(lp0
(dp1
S'alpha'
p2
F1.9129601531873672
sS'SSLfinal_State'
p3
(dp4
I0
(dp5
S'URL_of_Anchor'
p6
(dp7
I0
(dp8
S'Links_pointing_to_page'
p9
(dp10
I0
(dp11
S'web_traffic'
p12
(dp13
I0
I-1
sI1
(dp14
S'having_Sub_Domain'
p15
(dp16
I0
I-1
sI1
(dp17
S'having_At_Symbol'
p18
(dp19
I1
I1
sI-1
I-1
sssI-1
I-1
sssI-1
I-1
sssI1
I-1
sI-1
I1
sssI1
I-1
sI-1
I-1
sssI1
(dp20
g15
(dp21
I0
(dp22
S'Links_in_tags'
p23
(dp24
I0
(dp25
g12
(dp26
I0
(dp27
g9
(dp28
I0
(dp29
S'Page_Rank'
p30
(dp31
I1
I-1
sI-1
(dp32
S'having_IP_Address'
p33
(dp34
I1
I1
sI-1
I-1
sssssI1
(dp35
S'Domain_registeration_length'
p36
(dp37
I1
I1
sI-1
(dp38
g33
(dp39
I1
I-1
sI-1
I1
sssssI-1
I1
sssI1
(dp40
S'age_of_domain'
p41
(dp42
I1
(dp43
g33
(dp44
I1
(dp45
g6
(dp46
I0
I1
sI1
I1
sI-1
I-1
sssI-1
(dp47
g9
(dp48
I0
(dp49
S'URL_Length'
p50
(dp51
I1
I1
sI-1
I-1
sssI1
(dp52
g30
(dp53
I1
I-1
sI-1
I1
sssI-1
I1
sssssI-1
I1
sssI-1
(dp54
g9
(dp55
I0
I1
sI1
(dp56
g30
(dp57
I1
I1
sI-1
(dp58
g6
(dp59
I0
I-1
sI1
I1
sssssssssI1
(dp60
g12
(dp61
I0
(dp62
S'Prefix_Suffix'
p63
(dp64
I1
I1
sI-1
I-1
sssI1
(dp65
g41
(dp66
I1
(dp67
g6
(dp68
I0
(dp69
S'HTTPS_token'
p70
(dp71
I1
I-1
sI-1
I1
sssI1
I1
sI-1
I-1
sssI-1
I1
sssI-1
(dp72
g33
(dp73
I1
I1
sI-1
I-1
sssssI-1
(dp74
g12
(dp75
I0
(dp76
g6
(dp77
I0
(dp78
S'Request_URL'
p79
(dp80
I1
(dp81
g41
(dp82
I1
(dp83
g63
(dp84
I1
I1
sI-1
I-1
sssI-1
(dp85
g36
(dp86
I1
I1
sI-1
I1
sssssI-1
(dp87
S'Redirect'
p88
(dp89
I0
(dp90
g36
(dp91
I1
I-1
sI-1
I1
sssI1
(dp92
g33
(dp93
I1
I-1
sI-1
I-1
sssssssI1
I1
sI-1
I-1
sssI1
(dp94
g41
(dp95
I1
(dp96
g6
(dp97
I0
(dp98
S'Google_Index'
p99
(dp100
I1
(dp101
g18
(dp102
I1
I1
sI-1
I-1
sssI-1
(dp103
g50
(dp104
I1
I1
sI-1
I-1
sssssI1
I1
sI-1
I-1
sssI-1
(dp105
g9
(dp106
I0
(dp107
g33
(dp108
I1
(dp109
S'DNSRecord'
p110
(dp111
I1
I1
sI-1
I-1
sssI-1
I-1
sssI1
(dp112
g110
(dp113
I1
(dp114
g6
(dp115
I0
I1
sI1
I1
sssI-1
I1
sssI-1
I1
sssssI-1
(dp116
g6
(dp117
I0
(dp118
g33
(dp119
I1
I1
sI-1
(dp120
g9
(dp121
I0
I-1
sI1
(dp122
g50
(dp123
I1
I1
sI-1
I1
sssssssI1
I1
sI-1
I-1
sssssssI1
(dp124
g12
(dp125
I0
(dp126
g23
(dp127
I0
(dp128
g110
(dp129
I1
(dp130
g36
(dp131
I1
(dp132
S'SFH'
p133
(dp134
I0
I1
sI1
I1
sI-1
(dp135
g18
(dp136
I1
I1
sI-1
I1
sssssI-1
I1
sssI-1
(dp137
g50
(dp138
I1
(dp139
g33
(dp140
I1
I1
sI-1
I-1
sssI-1
(dp141
g9
(dp142
I0
(dp143
g36
(dp144
I1
I1
sI-1
I-1
sssI1
(dp145
g36
(dp146
I1
I1
sI-1
I1
sssssssssI1
(dp147
g9
(dp148
I0
(dp149
g41
(dp150
I1
(dp151
g6
(dp152
I0
I-1
sI1
I1
sssI-1
I1
sssI1
(dp153
g33
(dp154
I1
(dp155
S'Iframe'
p156
(dp157
I1
(dp158
S'popUpWidnow'
p159
(dp160
I1
I1
sI-1
I-1
sssI-1
I1
sssI-1
I1
sssI-1
(dp161
g70
(dp162
I1
I-1
sI-1
I1
sssssI-1
(dp163
g110
(dp164
I1
(dp165
g6
(dp166
I0
(dp167
g41
(dp168
I1
(dp169
g70
(dp170
I1
I1
sI-1
I-1
sssI-1
(dp171
g30
(dp172
I1
I1
sI-1
I1
sssssI1
I1
sI-1
I-1
sssI-1
(dp173
S'double_slash_redirecting'
p174
(dp175
I1
(dp176
g9
(dp177
I0
I-1
sI1
(dp178
S'Shortining_Service'
p179
(dp180
I1
I1
sI-1
I-1
sssssI-1
(dp181
g50
(dp182
I1
(dp183
g99
(dp184
I1
I1
sI-1
I1
sssI-1
I1
sssssssssI1
(dp185
g23
(dp186
I0
(dp187
g99
(dp188
I1
I1
sI-1
(dp189
g9
(dp190
I0
(dp191
g6
(dp192
I0
I1
sI1
(dp193
S'Submitting_to_email'
p194
(dp195
I1
I-1
sI-1
I1
sssssI1
(dp196
g110
(dp197
I1
I-1
sI-1
I1
sssI-1
I1
sssssI1
(dp198
g36
(dp199
I1
(dp200
g6
(dp201
I0
(dp202
g30
(dp203
I1
I1
sI-1
(dp204
g33
(dp205
I1
I1
sI-1
I1
sssssI1
I1
sssI-1
I1
sssI-1
(dp206
g6
(dp207
I0
(dp208
g36
(dp209
I1
(dp210
g133
(dp211
I1
I1
sI-1
(dp212
g41
(dp213
I1
I1
sI-1
I1
sssssI-1
I1
sssI1
(dp214
g18
(dp215
I1
I1
sI-1
(dp216
S'Favicon'
p217
(dp218
I1
(dp219
g179
(dp220
I1
I-1
sI-1
I1
sssI-1
I1
sssssI-1
(dp221
g33
(dp222
I1
I-1
sI-1
I1
sssssssI-1
(dp223
g6
(dp224
I0
I1
sI1
I1
sI-1
I-1
sssssI-1
(dp225
g23
(dp226
I0
(dp227
g12
(dp228
I0
(dp229
g110
(dp230
I1
(dp231
g79
(dp232
I1
(dp233
g9
(dp234
I0
(dp235
g99
(dp236
I1
I1
sI-1
I-1
sssI1
I1
sI-1
I-1
sssI-1
I1
sssI-1
I-1
sssI1
I1
sI-1
(dp237
g6
(dp238
I0
I1
sI1
I1
sI-1
I-1
sssssI1
(dp239
g6
(dp240
I0
(dp241
g12
(dp242
I0
(dp243
g9
(dp244
I0
(dp245
g41
(dp246
I1
I1
sI-1
I-1
sssI1
I1
sI-1
I-1
sssI1
I1
sI-1
I1
sssI1
(dp247
g36
(dp248
I1
(dp249
g33
(dp250
I1
I1
sI-1
(dp251
g9
(dp252
I0
I-1
sI1
I1
sssssI-1
I1
sssI-1
(dp253
g33
(dp254
I1
(dp255
g36
(dp256
I1
I-1
sI-1
I1
sssI-1
I-1
sssssI-1
(dp257
g9
(dp258
I0
(dp259
g12
(dp260
I0
(dp261
g6
(dp262
I0
(dp263
g41
(dp264
I1
I1
sI-1
(dp265
g79
(dp266
I1
I-1
sI-1
I-1
sssssI1
I1
sI-1
I-1
sssI1
(dp267
g36
(dp268
I1
(dp269
g41
(dp270
I1
(dp271
g6
(dp272
I0
I1
sI-1
I-1
sssI-1
(dp273
S'Abnormal_URL'
p274
(dp275
I1
I-1
sI-1
I1
sssssI-1
(dp276
g41
(dp277
I1
(dp278
g50
(dp279
I1
I1
sI-1
I-1
sssI-1
(dp280
g79
(dp281
I1
I1
sI-1
I-1
sssssssI-1
(dp282
g36
(dp283
I1
I-1
sI-1
(dp284
g79
(dp285
I1
I-1
sI-1
I1
sssssssI1
(dp286
g12
(dp287
I0
(dp288
g41
(dp289
I1
(dp290
S'Statistical_report'
p291
(dp292
I1
I1
sI-1
I-1
sssI-1
(dp293
g6
(dp294
I0
I-1
sI1
I1
sI-1
I-1
sssssI1
(dp295
g79
(dp296
I1
I1
sI-1
(dp297
g6
(dp298
I0
(dp299
g41
(dp300
I1
I1
sI-1
I-1
sssI1
(dp301
g41
(dp302
I1
I1
sI-1
I1
sssI-1
I-1
sssssI-1
I1
sssI-1
(dp303
g156
(dp304
I1
I1
sI-1
I-1
sssssssssI-1
(dp305
g6
(dp306
I0
(dp307
g15
(dp308
I0
(dp309
g23
(dp310
I0
(dp311
g33
(dp312
I1
(dp313
g30
(dp314
I1
(dp315
g63
(dp316
I1
I1
sI-1
(dp317
g41
(dp318
I1
I1
sI-1
I-1
sssssI-1
(dp319
g194
(dp320
I1
I1
sI-1
(dp321
g50
(dp322
I1
I1
sI-1
I-1
sssssssI-1
(dp323
g179
(dp324
I1
(dp325
g159
(dp326
I1
I-1
sI-1
(dp327
g217
(dp328
I1
I1
sI-1
I-1
sssssI-1
(dp329
g50
(dp330
I1
I-1
sI-1
I1
sssssssI1
(dp331
g9
(dp332
I0
(dp333
g12
(dp334
I0
I-1
sI1
I1
sssI1
(dp335
g79
(dp336
I1
I1
sI-1
I-1
sssssI-1
(dp337
g12
(dp338
I0
I-1
sI1
(dp339
g9
(dp340
I0
(dp341
g79
(dp342
I1
(dp343
g33
(dp344
I1
I1
sI-1
I-1
sssI-1
I-1
sssI1
(dp345
g41
(dp346
I1
I-1
sI-1
(dp347
g30
(dp348
I1
I-1
sI-1
I1
sssssI-1
I-1
sssI-1
(dp349
g63
(dp350
I1
I1
sI-1
(dp351
g99
(dp352
I1
I-1
sI-1
I1
sssssssssI1
(dp353
g12
(dp354
I0
(dp355
g23
(dp356
I0
(dp357
g9
(dp358
I0
(dp359
g174
(dp360
I1
I1
sI-1
I-1
sssI1
(dp361
g50
(dp362
I1
I-1
sI-1
I1
sssI-1
(dp363
g50
(dp364
I1
I1
sI-1
I-1
sssssI1
(dp365
g36
(dp366
I1
I1
sI-1
I-1
sssI-1
(dp367
g18
(dp368
I1
I-1
sI-1
(dp369
g33
(dp370
I1
I-1
sI-1
(dp371
g50
(dp372
I1
I-1
sI-1
I1
sssssssssI1
(dp373
g9
(dp374
I0
(dp375
g36
(dp376
I1
(dp377
g79
(dp378
I1
(dp379
g99
(dp380
I1
I1
sI-1
I-1
sssI-1
I-1
sssI-1
I-1
sssI1
(dp381
g23
(dp382
I0
(dp383
g33
(dp384
I1
(dp385
g79
(dp386
I1
I-1
sI-1
I1
sssI-1
(dp387
g179
(dp388
I1
I1
sI-1
I1
sssssI1
I-1
sI-1
(dp389
g33
(dp390
I1
(dp391
g174
(dp392
I1
I1
sI-1
I-1
sssI-1
(dp393
g18
(dp394
I1
I1
sI-1
I1
sssssssI-1
I-1
sssI-1
(dp395
g23
(dp396
I0
(dp397
g41
(dp398
I1
I-1
sI-1
I1
sssI1
I1
sI-1
(dp399
g179
(dp400
I1
I1
sI-1
I-1
sssssssI-1
(dp401
g23
(dp402
I0
(dp403
g9
(dp404
I0
(dp405
g99
(dp406
I1
(dp407
g12
(dp408
I0
I-1
sI1
(dp409
g50
(dp410
I1
I1
sI-1
I-1
sssI-1
I-1
sssI-1
I-1
sssI1
(dp411
g33
(dp412
I1
I-1
sI-1
I1
sssI-1
(dp413
g50
(dp414
I0
I-1
sI1
I1
sssssI1
(dp415
g9
(dp416
I0
I1
sI1
I-1
sssI-1
(dp417
g12
(dp418
I0
(dp419
g99
(dp420
I1
(dp421
g79
(dp422
I1
(dp423
g110
(dp424
I1
I1
sI-1
I-1
sssI-1
I-1
sssI-1
(dp425
g9
(dp426
I0
(dp427
g79
(dp428
I1
I-1
sI-1
I-1
sssI1
I1
sssssI1
(dp429
g110
(dp430
I1
(dp431
g36
(dp432
I1
(dp433
g41
(dp434
I1
I1
sI-1
I-1
sssI-1
(dp435
g217
(dp436
I1
I-1
sI-1
I1
sssssI-1
I-1
sssI-1
I-1
sssssssI1
(dp437
g15
(dp438
I0
(dp439
g36
(dp440
I1
I-1
sI-1
I1
sssI1
(dp441
g23
(dp442
I0
I1
sI1
(dp443
S'on_mouseover'
p444
(dp445
I1
I1
sI-1
I-1
sssI-1
I-1
sssI-1
(dp446
g63
(dp447
I1
I1
sI-1
(dp448
g23
(dp449
I0
(dp450
g99
(dp451
I1
(dp452
g88
(dp453
I0
I1
sI1
I-1
sssI-1
I-1
sssI-1
I-1
sssssssI-1
I-1
ssssa.