(lp0
(dp1
S'alpha'
p2
F0.5228180670231809
sS'cart'
p3
(dp4
S'7:0'
p5
(dp6
S'<=0.0'
p7
(dp8
S'13:-1'
p9
(dp10
S'<=-1.0'
p11
I-1
sS'>-1.0'
p12
(dp13
S'14:-1'
p14
(dp15
S'<=-1.0'
p16
I-1
sS'>-1.0'
p17
I-1
sssssS'>0.0'
p18
(dp19
S'13:-1'
p20
(dp21
S'<=-1.0'
p22
(dp23
S'5:-1'
p24
(dp25
S'<=-1.0'
p26
I-1
sS'>-1.0'
p27
I1
sssS'>-1.0'
p28
(dp29
S'14:-1'
p30
(dp31
S'<=-1.0'
p32
I1
sS'>-1.0'
p33
I1
sssssssS'error_rate'
p34
cnumpy.core.multiarray
scalar
p35
(cnumpy
dtype
p36
(S'f8'
p37
I0
I1
tp38
Rp39
(I3
S'<'
p40
NNNI-1
I-1
I0
tp41
bS'j\xbct\x93\x18\x04\xb6?'
p42
tp43
Rp44
sa(dp45
g2
F0.5499065931335234
sg3
(dp46
S'13:-1'
p47
(dp48
S'<=-1.0'
p49
(dp50
S'5:-1'
p51
(dp52
S'<=-1.0'
p53
(dp54
S'28:-1'
p55
(dp56
S'<=-1.0'
p57
I-1
sS'>-1.0'
p58
I-1
sssS'>-1.0'
p59
I1
sssS'>-1.0'
p60
(dp61
S'14:-1'
p62
(dp63
S'<=-1.0'
p64
(dp65
S'5:-1'
p66
(dp67
S'<=-1.0'
p68
I-1
sS'>-1.0'
p69
I1
sssS'>-1.0'
p70
(dp71
S'25:0'
p72
(dp73
S'<=0.0'
p74
I1
sS'>0.0'
p75
I1
sssssssg34
g35
(g39
S'\x1f\x85\xebQ\xb8\x1e\xc5?'
p76
tp77
Rp78
sa(dp79
g2
F0.5559830153868167
sg3
(dp80
S'13:-1'
p81
(dp82
S'<=-1.0'
p83
(dp84
S'28:-1'
p85
(dp86
S'<=-1.0'
p87
(dp88
S'7:0'
p89
(dp90
S'<=0.0'
p91
I-1
sS'>0.0'
p92
I1
sssS'>-1.0'
p93
(dp94
S'5:-1'
p95
(dp96
S'<=-1.0'
p97
I-1
sS'>-1.0'
p98
I1
sssssS'>-1.0'
p99
(dp100
S'7:0'
p101
(dp102
S'<=0.0'
p103
(dp104
S'27:-1'
p105
(dp106
S'<=-1.0'
p107
I-1
sS'>-1.0'
p108
I1
sssS'>0.0'
p109
(dp110
S'25:0'
p111
(dp112
S'<=0.0'
p113
I1
sS'>0.0'
p114
I1
sssssssg34
g35
(g39
S'\xdb\xf9~j\xbct\xb3?'
p115
tp116
Rp117
sa(dp118
g2
F0.5584467431952403
sg3
(dp119
S'7:0'
p120
(dp121
S'<=0.0'
p122
(dp123
S'13:-1'
p124
(dp125
S'<=-1.0'
p126
I-1
sS'>-1.0'
p127
(dp128
S'28:0'
p129
(dp130
S'<=0.0'
p131
I-1
sS'>0.0'
p132
I-1
sssssS'>0.0'
p133
(dp134
S'25:0'
p135
(dp136
S'<=0.0'
p137
(dp138
S'25:-1'
p139
(dp140
S'<=-1.0'
p141
I1
sS'>-1.0'
p142
I-1
sssS'>0.0'
p143
(dp144
S'13:0'
p145
(dp146
S'<=0.0'
p147
I1
sS'>0.0'
p148
I1
sssssssg34
g35
(g39
S'333333\xb3?'
p149
tp150
Rp151
sa(dp152
g2
F0.5857336865310482
sg3
(dp153
S'13:0'
p154
(dp155
S'<=0.0'
p156
(dp157
S'13:-1'
p158
(dp159
S'<=-1.0'
p160
(dp161
S'28:-1'
p162
(dp163
S'<=-1.0'
p164
I1
sS'>-1.0'
p165
I-1
sssS'>-1.0'
p166
(dp167
S'15:-1'
p168
(dp169
S'<=-1.0'
p170
I-1
sS'>-1.0'
p171
I1
sssssS'>0.0'
p172
(dp173
S'25:-1'
p174
(dp175
S'<=-1.0'
p176
(dp177
S'7:0'
p178
(dp179
S'<=0.0'
p180
I-1
sS'>0.0'
p181
I1
sssS'>-1.0'
p182
(dp183
S'8:-1'
p184
(dp185
S'<=-1.0'
p186
I1
sS'>-1.0'
p187
I1
sssssssg34
g35
(g39
S'\xb8\x1e\x85\xebQ\xb8\xae?'
p188
tp189
Rp190
sa(dp191
g2
F0.5805693728620462
sg3
(dp192
S'13:-1'
p193
(dp194
S'<=-1.0'
p195
(dp196
S'5:-1'
p197
(dp198
S'<=-1.0'
p199
(dp200
S'28:-1'
p201
(dp202
S'<=-1.0'
p203
I-1
sS'>-1.0'
p204
I-1
sssS'>-1.0'
p205
I1
sssS'>-1.0'
p206
(dp207
S'23:-1'
p208
(dp209
S'<=-1.0'
p210
(dp211
S'28:0'
p212
(dp213
S'<=0.0'
p214
I-1
sS'>0.0'
p215
I1
sssS'>-1.0'
p216
(dp217
S'5:-1'
p218
(dp219
S'<=-1.0'
p220
I1
sS'>-1.0'
p221
I1
sssssssg34
g35
(g39
S'D\x8bl\xe7\xfb\xa9\xb1?'
p222
tp223
Rp224
sa(dp225
g2
F0.5912804717065694
sg3
(dp226
S'0:-1'
p227
(dp228
S'<=-1.0'
p229
(dp230
S'5:-1'
p231
(dp232
S'<=-1.0'
p233
(dp234
S'1:-1'
p235
(dp236
S'<=-1.0'
p237
I-1
sS'>-1.0'
p238
I-1
sssS'>-1.0'
p239
I1
sssS'>-1.0'
p240
(dp241
S'24:-1'
p242
(dp243
S'<=-1.0'
p244
(dp245
S'25:0'
p246
(dp247
S'<=0.0'
p248
I-1
sS'>0.0'
p249
I1
sssS'>-1.0'
p250
(dp251
S'8:-1'
p252
(dp253
S'<=-1.0'
p254
I1
sS'>-1.0'
p255
I1
sssssssg34
g35
(g39
S'\xd9\xce\xf7S\xe3\xa5\xab?'
p256
tp257
Rp258
sa(dp259
g2
F0.6081571308216545
sg3
(dp260
S'6:0'
p261
(dp262
S'<=0.0'
p263
(dp264
S'5:-1'
p265
(dp266
S'<=-1.0'
p267
(dp268
S'13:-1'
p269
(dp270
S'<=-1.0'
p271
I-1
sS'>-1.0'
p272
I-1
sssS'>-1.0'
p273
I1
sssS'>0.0'
p274
(dp275
S'10:-1'
p276
(dp277
S'<=-1.0'
p278
(dp279
S'25:0'
p280
(dp281
S'<=0.0'
p282
I-1
sS'>0.0'
p283
I1
sssS'>-1.0'
p284
(dp285
S'25:-1'
p286
(dp287
S'<=-1.0'
p288
I1
sS'>-1.0'
p289
I1
sssssssg34
g35
(g39
S'\xf4\xfd\xd4x\xe9&\xb1?'
p290
tp291
Rp292
sa(dp293
g2
F0.5798813777641071
sg3
(dp294
S'6:0'
p295
(dp296
S'<=0.0'
p297
(dp298
S'13:-1'
p299
(dp300
S'<=-1.0'
p301
(dp302
S'28:-1'
p303
(dp304
S'<=-1.0'
p305
I1
sS'>-1.0'
p306
I-1
sssS'>-1.0'
p307
(dp308
S'27:-1'
p309
(dp310
S'<=-1.0'
p311
I-1
sS'>-1.0'
p312
I1
sssssS'>0.0'
p313
(dp314
S'25:-1'
p315
(dp316
S'<=-1.0'
p317
(dp318
S'23:-1'
p319
(dp320
S'<=-1.0'
p321
I-1
sS'>-1.0'
p322
I1
sssS'>-1.0'
p323
(dp324
S'26:-1'
p325
(dp326
S'<=-1.0'
p327
I-1
sS'>-1.0'
p328
I1
sssssssg34
g35
(g39
S'\xfa~j\xbct\x93\xa8?'
p329
tp330
Rp331
sa(dp332
g2
F0.6583340374660057
sg3
(dp333
S'5:-1'
p334
(dp335
S'<=-1.0'
p336
(dp337
S'13:-1'
p338
(dp339
S'<=-1.0'
p340
(dp341
S'28:-1'
p342
(dp343
S'<=-1.0'
p344
I-1
sS'>-1.0'
p345
I-1
sssS'>-1.0'
p346
(dp347
S'17:-1'
p348
(dp349
S'<=-1.0'
p350
I1
sS'>-1.0'
p351
I-1
sssssS'>-1.0'
p352
I1
sssg34
g35
(g39
S'\xe3\xa5\x9b\xc4 \xb0\xb2?'
p353
tp354
Rp355
sa.