(lp0
(dp1
S'alpha'
p2
F0.5285353953236928
sS'cart'
p3
(dp4
S'7:0'
p5
(dp6
S'<=0.0'
p7
(dp8
S'13:-1'
p9
(dp10
S'<=-1.0'
p11
I-1
sS'>-1.0'
p12
(dp13
S'5:-1'
p14
(dp15
S'<=-1.0'
p16
I-1
sS'>-1.0'
p17
I1
sssssS'>0.0'
p18
(dp19
S'13:-1'
p20
(dp21
S'<=-1.0'
p22
(dp23
S'28:-1'
p24
(dp25
S'<=-1.0'
p26
I1
sS'>-1.0'
p27
I-1
sssS'>-1.0'
p28
(dp29
S'14:-1'
p30
(dp31
S'<=-1.0'
p32
I1
sS'>-1.0'
p33
I1
sssssssS'error_rate'
p34
cnumpy.core.multiarray
scalar
p35
(cnumpy
dtype
p36
(S'f8'
p37
I0
I1
tp38
Rp39
(I3
S'<'
p40
NNNI-1
I-1
I0
tp41
bS'\x89A`\xe5\xd0"\xbb?'
p42
tp43
Rp44
sa(dp45
g2
F0.5579508663497524
sg3
(dp46
S'13:-1'
p47
(dp48
S'<=-1.0'
p49
(dp50
S'28:-1'
p51
(dp52
S'<=-1.0'
p53
(dp54
S'7:0'
p55
(dp56
S'<=0.0'
p57
I-1
sS'>0.0'
p58
I1
sssS'>-1.0'
p59
I-1
sssS'>-1.0'
p60
(dp61
S'14:-1'
p62
(dp63
S'<=-1.0'
p64
(dp65
S'27:-1'
p66
(dp67
S'<=-1.0'
p68
I-1
sS'>-1.0'
p69
I1
sssS'>-1.0'
p70
(dp71
S'6:0'
p72
(dp73
S'<=0.0'
p74
I1
sS'>0.0'
p75
I1
sssssssg34
g35
(g39
S'333333\xc3?'
p76
tp77
Rp78
sa(dp79
g2
F0.5735326313030837
sg3
(dp80
S'5:-1'
p81
(dp82
S'<=-1.0'
p83
(dp84
S'25:0'
p85
(dp86
S'<=0.0'
p87
(dp88
S'6:0'
p89
(dp90
S'<=0.0'
p91
I-1
sS'>0.0'
p92
I-1
sssS'>0.0'
p93
(dp94
S'13:0'
p95
(dp96
S'<=0.0'
p97
I-1
sS'>0.0'
p98
I1
sssssS'>-1.0'
p99
I1
sssg34
g35
(g39
S'\xe9&1\x08\xac\x1c\xba?'
p100
tp101
Rp102
sa(dp103
g2
F0.572100225926142
sg3
(dp104
S'13:-1'
p105
(dp106
S'<=-1.0'
p107
(dp108
S'28:-1'
p109
(dp110
S'<=-1.0'
p111
(dp112
S'7:0'
p113
(dp114
S'<=0.0'
p115
I-1
sS'>0.0'
p116
I1
sssS'>-1.0'
p117
I-1
sssS'>-1.0'
p118
(dp119
S'6:0'
p120
(dp121
S'<=0.0'
p122
(dp123
S'25:0'
p124
(dp125
S'<=0.0'
p126
I-1
sS'>0.0'
p127
I1
sssS'>0.0'
p128
(dp129
S'14:-1'
p130
(dp131
S'<=-1.0'
p132
I1
sS'>-1.0'
p133
I1
sssssssg34
g35
(g39
S'\x08\xac\x1cZd;\xbf?'
p134
tp135
Rp136
sa(dp137
g2
F0.5751853154175307
sg3
(dp138
S'14:-1'
p139
(dp140
S'<=-1.0'
p141
(dp142
S'26:-1'
p143
(dp144
S'<=-1.0'
p145
(dp146
S'5:-1'
p147
(dp148
S'<=-1.0'
p149
I-1
sS'>-1.0'
p150
I1
sssS'>-1.0'
p151
(dp152
S'7:-1'
p153
(dp154
S'<=-1.0'
p155
I-1
sS'>-1.0'
p156
I1
sssssS'>-1.0'
p157
(dp158
S'13:-1'
p159
(dp160
S'<=-1.0'
p161
(dp162
S'28:-1'
p163
(dp164
S'<=-1.0'
p165
I1
sS'>-1.0'
p166
I-1
sssS'>-1.0'
p167
(dp168
S'28:-1'
p169
(dp170
S'<=-1.0'
p171
I-1
sS'>-1.0'
p172
I1
sssssssg34
g35
(g39
S'\xd9\xce\xf7S\xe3\xa5\xbb?'
p173
tp174
Rp175
sa(dp176
g2
F0.6369359122280475
sg3
(dp177
S'5:-1'
p178
(dp179
S'<=-1.0'
p180
(dp181
S'27:-1'
p182
(dp183
S'<=-1.0'
p184
(dp185
S'2:-1'
p186
(dp187
S'<=-1.0'
p188
I1
sS'>-1.0'
p189
I-1
sssS'>-1.0'
p190
(dp191
S'13:-1'
p192
(dp193
S'<=-1.0'
p194
I-1
sS'>-1.0'
p195
I1
sssssS'>-1.0'
p196
I1
sssg34
g35
(g39
S'\xe9&1\x08\xac\x1c\xba?'
p197
tp198
Rp199
sa(dp200
g2
F0.5605316944238976
sg3
(dp201
S'22:-1'
p202
(dp203
S'<=-1.0'
p204
(dp205
S'13:-1'
p206
(dp207
S'<=-1.0'
p208
I-1
sS'>-1.0'
p209
I1
sssS'>-1.0'
p210
(dp211
S'5:-1'
p212
(dp213
S'<=-1.0'
p214
(dp215
S'15:0'
p216
(dp217
S'<=0.0'
p218
I-1
sS'>0.0'
p219
I-1
sssS'>-1.0'
p220
I1
sssssg34
g35
(g39
S'\n\xd7\xa3p=\n\xb7?'
p221
tp222
Rp223
sa(dp224
g2
F0.6043968816527021
sg3
(dp225
S'13:0'
p226
(dp227
S'<=0.0'
p228
(dp229
S'18:0'
p230
(dp231
S'<=0.0'
p232
(dp233
S'0:-1'
p234
(dp235
S'<=-1.0'
p236
I-1
sS'>-1.0'
p237
I1
sssS'>0.0'
p238
(dp239
S'28:0'
p240
(dp241
S'<=0.0'
p242
I-1
sS'>0.0'
p243
I1
sssssS'>0.0'
p244
(dp245
S'7:0'
p246
(dp247
S'<=0.0'
p248
(dp249
S'14:0'
p250
(dp251
S'<=0.0'
p252
I-1
sS'>0.0'
p253
I1
sssS'>0.0'
p254
(dp255
S'27:-1'
p256
(dp257
S'<=-1.0'
p258
I1
sS'>-1.0'
p259
I1
sssssssg34
g35
(g39
S'Zd;\xdfO\x8d\xb7?'
p260
tp261
Rp262
sa(dp263
g2
F0.5719451417468956
sg3
(dp264
S'13:0'
p265
(dp266
S'<=0.0'
p267
(dp268
S'0:-1'
p269
(dp270
S'<=-1.0'
p271
(dp272
S'15:-1'
p273
(dp274
S'<=-1.0'
p275
I-1
sS'>-1.0'
p276
I1
sssS'>-1.0'
p277
(dp278
S'28:-1'
p279
(dp280
S'<=-1.0'
p281
I1
sS'>-1.0'
p282
I-1
sssssS'>0.0'
p283
(dp284
S'14:-1'
p285
(dp286
S'<=-1.0'
p287
(dp288
S'24:-1'
p289
(dp290
S'<=-1.0'
p291
I1
sS'>-1.0'
p292
I-1
sssS'>-1.0'
p293
(dp294
S'7:0'
p295
(dp296
S'<=0.0'
p297
I1
sS'>0.0'
p298
I1
sssssssg34
g35
(g39
S'\x9c\xc4 \xb0rh\xb1?'
p299
tp300
Rp301
sa(dp302
g2
F0.598762974474425
sg3
(dp303
S'25:0'
p304
(dp305
S'<=0.0'
p306
(dp307
S'3:-1'
p308
(dp309
S'<=-1.0'
p310
(dp311
S'7:0'
p312
(dp313
S'<=0.0'
p314
I-1
sS'>0.0'
p315
I1
sssS'>-1.0'
p316
(dp317
S'23:-1'
p318
(dp319
S'<=-1.0'
p320
I-1
sS'>-1.0'
p321
I1
sssssS'>0.0'
p322
(dp323
S'29:-1'
p324
(dp325
S'<=-1.0'
p326
(dp327
S'7:0'
p328
(dp329
S'<=0.0'
p330
I-1
sS'>0.0'
p331
I1
sssS'>-1.0'
p332
(dp333
S'26:-1'
p334
(dp335
S'<=-1.0'
p336
I1
sS'>-1.0'
p337
I1
sssssssg34
g35
(g39
S'+\x87\x16\xd9\xce\xf7\xb3?'
p338
tp339
Rp340
sa.