(lp0
(dp1
S'alpha'
p2
F0.5156283643173961
sS'cart'
p3
(dp4
S'13:-1'
p5
(dp6
S'<=-1.0'
p7
I-1
sS'>-1.0'
p8
(dp9
S'7:0'
p10
(dp11
S'<=0.0'
p12
(dp13
S'1:-1'
p14
(dp15
S'<=-1.0'
p16
I-1
sS'>-1.0'
p17
I1
sssS'>0.0'
p18
(dp19
S'6:0'
p20
(dp21
S'<=0.0'
p22
I1
sS'>0.0'
p23
I1
sssssssS'error_rate'
p24
cnumpy.core.multiarray
scalar
p25
(cnumpy
dtype
p26
(S'f8'
p27
I0
I1
tp28
Rp29
(I3
S'<'
p30
NNNI-1
I-1
I0
tp31
bS'\xb8\x1e\x85\xebQ\xb8\xae?'
p32
tp33
Rp34
sa(dp35
g2
F0.5383721457610535
sg3
(dp36
S'13:-1'
p37
(dp38
S'<=-1.0'
p39
I-1
sS'>-1.0'
p40
(dp41
S'6:0'
p42
(dp43
S'<=0.0'
p44
(dp45
S'13:0'
p46
(dp47
S'<=0.0'
p48
I1
sS'>0.0'
p49
I1
sssS'>0.0'
p50
(dp51
S'20:-1'
p52
(dp53
S'<=-1.0'
p54
I-1
sS'>-1.0'
p55
I1
sssssssg24
g25
(g29
S'\x9a\x99\x99\x99\x99\x99\xb9?'
p56
tp57
Rp58
sa(dp59
g2
F0.5348764830638372
sg3
(dp60
S'13:0'
p61
(dp62
S'<=0.0'
p63
(dp64
S'6:0'
p65
(dp66
S'<=0.0'
p67
(dp68
S'5:-1'
p69
(dp70
S'<=-1.0'
p71
I-1
sS'>-1.0'
p72
I1
sssS'>0.0'
p73
(dp74
S'13:-1'
p75
(dp76
S'<=-1.0'
p77
I-1
sS'>-1.0'
p78
I1
sssssS'>0.0'
p79
I1
sssg24
g25
(g29
S'{\x14\xaeG\xe1z\xa4?'
p80
tp81
Rp82
sa(dp83
g2
F0.5333837579539974
sg3
(dp84
S'7:0'
p85
(dp86
S'<=0.0'
p87
(dp88
S'1:-1'
p89
(dp90
S'<=-1.0'
p91
(dp92
S'13:0'
p93
(dp94
S'<=0.0'
p95
I-1
sS'>0.0'
p96
I1
sssS'>-1.0'
p97
(dp98
S'0:-1'
p99
(dp100
S'<=-1.0'
p101
I-1
sS'>-1.0'
p102
I1
sssssS'>0.0'
p103
(dp104
S'23:-1'
p105
(dp106
S'<=-1.0'
p107
(dp108
S'13:-1'
p109
(dp110
S'<=-1.0'
p111
I-1
sS'>-1.0'
p112
I1
sssS'>-1.0'
p113
(dp114
S'28:0'
p115
(dp116
S'<=0.0'
p117
I-1
sS'>0.0'
p118
I1
sssssssg24
g25
(g29
S'\xb8\x1e\x85\xebQ\xb8\x9e?'
p119
tp120
Rp121
sa(dp122
g2
F0.5445813799580381
sg3
(dp123
S'13:-1'
p124
(dp125
S'<=-1.0'
p126
I-1
sS'>-1.0'
p127
(dp128
S'7:0'
p129
(dp130
S'<=0.0'
p131
(dp132
S'23:-1'
p133
(dp134
S'<=-1.0'
p135
I-1
sS'>-1.0'
p136
I1
sssS'>0.0'
p137
(dp138
S'6:0'
p139
(dp140
S'<=0.0'
p141
I1
sS'>0.0'
p142
I1
sssssssg24
g25
(g29
S'\xb8\x1e\x85\xebQ\xb8\x9e?'
p143
tp144
Rp145
sa(dp146
g2
F0.5557141265055893
sg3
(dp147
S'13:0'
p148
(dp149
S'<=0.0'
p150
(dp151
S'15:0'
p152
(dp153
S'<=0.0'
p154
(dp155
S'26:-1'
p156
(dp157
S'<=-1.0'
p158
I-1
sS'>-1.0'
p159
I1
sssS'>0.0'
p160
(dp161
S'0:-1'
p162
(dp163
S'<=-1.0'
p164
I-1
sS'>-1.0'
p165
I1
sssssS'>0.0'
p166
I1
sssg24
g25
(g29
S'{\x14\xaeG\xe1z\x84?'
p167
tp168
Rp169
sa(dp170
g2
F0.5878585051276037
sg3
(dp171
S'13:-1'
p172
(dp173
S'<=-1.0'
p174
I-1
sS'>-1.0'
p175
(dp176
S'6:0'
p177
(dp178
S'<=0.0'
p179
(dp180
S'19:-1'
p181
(dp182
S'<=-1.0'
p183
I1
sS'>-1.0'
p184
I-1
sssS'>0.0'
p185
(dp186
S'23:-1'
p187
(dp188
S'<=-1.0'
p189
I1
sS'>-1.0'
p190
I1
sssssssg24
g25
(g29
S'{\x14\xaeG\xe1z\x84?'
p191
tp192
Rp193
sa(dp194
g2
F0.5478915746919755
sg3
(dp195
S'7:0'
p196
(dp197
S'<=0.0'
p198
(dp199
S'12:-1'
p200
(dp201
S'<=-1.0'
p202
I-1
sS'>-1.0'
p203
(dp204
S'14:0'
p205
(dp206
S'<=0.0'
p207
I1
sS'>0.0'
p208
I-1
sssssS'>0.0'
p209
(dp210
S'8:-1'
p211
(dp212
S'<=-1.0'
p213
(dp214
S'23:-1'
p215
(dp216
S'<=-1.0'
p217
I1
sS'>-1.0'
p218
I1
sssS'>-1.0'
p219
(dp220
S'13:-1'
p221
(dp222
S'<=-1.0'
p223
I-1
sS'>-1.0'
p224
I1
sssssssg24
g25
(g29
S'{\x14\xaeG\xe1z\x84?'
p225
tp226
Rp227
sa(dp228
g2
F0.5695486685657913
sg3
(dp229
S'13:-1'
p230
(dp231
S'<=-1.0'
p232
I-1
sS'>-1.0'
p233
(dp234
S'8:-1'
p235
(dp236
S'<=-1.0'
p237
(dp238
S'15:-1'
p239
(dp240
S'<=-1.0'
p241
I-1
sS'>-1.0'
p242
I1
sssS'>-1.0'
p243
(dp244
S'7:0'
p245
(dp246
S'<=0.0'
p247
I-1
sS'>0.0'
p248
I1
sssssssg24
g25
(g29
S'\x00\x00\x00\x00\x00\x00\x00\x00'
p249
tp250
Rp251
sa.