(lp0
(dp1
S'alpha'
p2
F0.5204844712230957
sS'cart'
p3
(dp4
S'7:0'
p5
(dp6
S'<=0.0'
p7
(dp8
S'13:-1'
p9
(dp10
S'<=-1.0'
p11
I-1
sS'>-1.0'
p12
(dp13
S'5:-1'
p14
(dp15
S'<=-1.0'
p16
I-1
sS'>-1.0'
p17
I1
sssssS'>0.0'
p18
(dp19
S'13:-1'
p20
(dp21
S'<=-1.0'
p22
(dp23
S'5:-1'
p24
(dp25
S'<=-1.0'
p26
I-1
sS'>-1.0'
p27
I1
sssS'>-1.0'
p28
(dp29
S'25:0'
p30
(dp31
S'<=0.0'
p32
I1
sS'>0.0'
p33
I1
sssssssS'error_rate'
p34
cnumpy.core.multiarray
scalar
p35
(cnumpy
dtype
p36
(S'f8'
p37
I0
I1
tp38
Rp39
(I3
S'<'
p40
NNNI-1
I-1
I0
tp41
bS'H\x9aRq\xf6\xe1\xb3?'
p42
tp43
Rp44
sa(dp45
g2
F0.5553611291055145
sg3
(dp46
S'13:-1'
p47
(dp48
S'<=-1.0'
p49
(dp50
S'5:-1'
p51
(dp52
S'<=-1.0'
p53
(dp54
S'7:0'
p55
(dp56
S'<=0.0'
p57
I-1
sS'>0.0'
p58
I-1
sssS'>-1.0'
p59
I1
sssS'>-1.0'
p60
(dp61
S'14:-1'
p62
(dp63
S'<=-1.0'
p64
(dp65
S'5:-1'
p66
(dp67
S'<=-1.0'
p68
I-1
sS'>-1.0'
p69
I1
sssS'>-1.0'
p70
(dp71
S'25:0'
p72
(dp73
S'<=0.0'
p74
I1
sS'>0.0'
p75
I1
sssssssg34
g35
(g39
S'\x1b/\xdd$\x06\x81\xc5?'
p76
tp77
Rp78
sa(dp79
g2
F0.5677046056416771
sg3
(dp80
S'13:-1'
p81
(dp82
S'<=-1.0'
p83
(dp84
S'7:0'
p85
(dp86
S'<=0.0'
p87
I-1
sS'>0.0'
p88
(dp89
S'19:-1'
p90
(dp91
S'<=-1.0'
p92
I1
sS'>-1.0'
p93
I-1
sssssS'>-1.0'
p94
(dp95
S'7:0'
p96
(dp97
S'<=0.0'
p98
(dp99
S'14:-1'
p100
(dp101
S'<=-1.0'
p102
I1
sS'>-1.0'
p103
I-1
sssS'>0.0'
p104
(dp105
S'25:0'
p106
(dp107
S'<=0.0'
p108
I1
sS'>0.0'
p109
I1
sssssssg34
g35
(g39
S'H\x9aRq\xf6\xe1\xb3?'
p110
tp111
Rp112
sa(dp113
g2
F0.5822260730846363
sg3
(dp114
S'25:0'
p115
(dp116
S'<=0.0'
p117
(dp118
S'6:0'
p119
(dp120
S'<=0.0'
p121
(dp122
S'13:0'
p123
(dp124
S'<=0.0'
p125
I-1
sS'>0.0'
p126
I1
sssS'>0.0'
p127
(dp128
S'13:0'
p129
(dp130
S'<=0.0'
p131
I-1
sS'>0.0'
p132
I1
sssssS'>0.0'
p133
(dp134
S'15:-1'
p135
(dp136
S'<=-1.0'
p137
(dp138
S'13:0'
p139
(dp140
S'<=0.0'
p141
I-1
sS'>0.0'
p142
I1
sssS'>-1.0'
p143
(dp144
S'13:-1'
p145
(dp146
S'<=-1.0'
p147
I-1
sS'>-1.0'
p148
I1
sssssssg34
g35
(g39
S'[\xd6\xea\x98\xe0\xc1\xbc?'
p149
tp150
Rp151
sa(dp152
g2
F0.5728601197477047
sg3
(dp153
S'13:-1'
p154
(dp155
S'<=-1.0'
p156
(dp157
S'7:0'
p158
(dp159
S'<=0.0'
p160
I-1
sS'>0.0'
p161
(dp162
S'28:0'
p163
(dp164
S'<=0.0'
p165
I-1
sS'>0.0'
p166
I1
sssssS'>-1.0'
p167
(dp168
S'25:0'
p169
(dp170
S'<=0.0'
p171
(dp172
S'6:0'
p173
(dp174
S'<=0.0'
p175
I-1
sS'>0.0'
p176
I1
sssS'>0.0'
p177
(dp178
S'27:-1'
p179
(dp180
S'<=-1.0'
p181
I-1
sS'>-1.0'
p182
I1
sssssssg34
g35
(g39
S'\xce>|\x86]\x01\xb2?'
p183
tp184
Rp185
sa(dp186
g2
F0.6388087003668953
sg3
(dp187
S'5:-1'
p188
(dp189
S'<=-1.0'
p190
(dp191
S'13:-1'
p192
(dp193
S'<=-1.0'
p194
(dp195
S'7:0'
p196
(dp197
S'<=0.0'
p198
I-1
sS'>0.0'
p199
I-1
sssS'>-1.0'
p200
(dp201
S'25:-1'
p202
(dp203
S'<=-1.0'
p204
I1
sS'>-1.0'
p205
I1
sssssS'>-1.0'
p206
I1
sssg34
g35
(g39
S'\xe1z\x14\xaeG\xe1\xba?'
p207
tp208
Rp209
sa(dp210
g2
F0.5651370702419073
sg3
(dp211
S'5:-1'
p212
(dp213
S'<=-1.0'
p214
(dp215
S'25:-1'
p216
(dp217
S'<=-1.0'
p218
(dp219
S'7:0'
p220
(dp221
S'<=0.0'
p222
I-1
sS'>0.0'
p223
I1
sssS'>-1.0'
p224
(dp225
S'25:0'
p226
(dp227
S'<=0.0'
p228
I-1
sS'>0.0'
p229
I-1
sssssS'>-1.0'
p230
I1
sssg34
g35
(g39
S'\x9c\xc4 \xb0rh\xb1?'
p231
tp232
Rp233
sa(dp234
g2
F0.6320990295348546
sg3
(dp235
S'5:-1'
p236
(dp237
S'<=-1.0'
p238
(dp239
S'25:0'
p240
(dp241
S'<=0.0'
p242
(dp243
S'24:-1'
p244
(dp245
S'<=-1.0'
p246
I-1
sS'>-1.0'
p247
I-1
sssS'>0.0'
p248
(dp249
S'12:-1'
p250
(dp251
S'<=-1.0'
p252
I-1
sS'>-1.0'
p253
I1
sssssS'>-1.0'
p254
I1
sssg34
g35
(g39
S'\xbfX\xf2\x8b%\xbf\xb8?'
p255
tp256
Rp257
sa(dp258
g2
F0.5822824864946978
sg3
(dp259
S'25:0'
p260
(dp261
S'<=0.0'
p262
(dp263
S'24:-1'
p264
(dp265
S'<=-1.0'
p266
(dp267
S'28:0'
p268
(dp269
S'<=0.0'
p270
I-1
sS'>0.0'
p271
I1
sssS'>-1.0'
p272
(dp273
S'13:-1'
p274
(dp275
S'<=-1.0'
p276
I-1
sS'>-1.0'
p277
I1
sssssS'>0.0'
p278
(dp279
S'12:-1'
p280
(dp281
S'<=-1.0'
p282
(dp283
S'6:-1'
p284
(dp285
S'<=-1.0'
p286
I1
sS'>-1.0'
p287
I1
sssS'>-1.0'
p288
(dp289
S'6:0'
p290
(dp291
S'<=0.0'
p292
I-1
sS'>0.0'
p293
I1
sssssssg34
g35
(g39
S'\xdf\x96\xb5:&x\xb0?'
p294
tp295
Rp296
sa(dp297
g2
F0.6099586635911927
sg3
(dp298
S'0:-1'
p299
(dp300
S'<=-1.0'
p301
(dp302
S'28:0'
p303
(dp304
S'<=0.0'
p305
(dp306
S'1:0'
p307
(dp308
S'<=0.0'
p309
I-1
sS'>0.0'
p310
I1
sssS'>0.0'
p311
(dp312
S'1:0'
p313
(dp314
S'<=0.0'
p315
I1
sS'>0.0'
p316
I-1
sssssS'>-1.0'
p317
(dp318
S'6:0'
p319
(dp320
S'<=0.0'
p321
(dp322
S'1:0'
p323
(dp324
S'<=0.0'
p325
I1
sS'>0.0'
p326
I1
sssS'>0.0'
p327
(dp328
S'12:-1'
p329
(dp330
S'<=-1.0'
p331
I1
sS'>-1.0'
p332
I-1
sssssssg34
g35
(g39
S'\xfd\x1b\xa1\x8c\xde\x96\xb5?'
p333
tp334
Rp335
sa.