(lp0
(dp1
S'alpha'
p2
F0.5225365512153867
sS'cart'
p3
(dp4
S'7:0'
p5
(dp6
S'<=0.0'
p7
(dp8
S'13:-1'
p9
(dp10
S'<=-1.0'
p11
I-1
sS'>-1.0'
p12
(dp13
S'5:-1'
p14
(dp15
S'<=-1.0'
p16
I-1
sS'>-1.0'
p17
I1
sssssS'>0.0'
p18
(dp19
S'13:-1'
p20
(dp21
S'<=-1.0'
p22
(dp23
S'5:-1'
p24
(dp25
S'<=-1.0'
p26
I-1
sS'>-1.0'
p27
I1
sssS'>-1.0'
p28
(dp29
S'25:0'
p30
(dp31
S'<=0.0'
p32
I1
sS'>0.0'
p33
I1
sssssssS'error_rate'
p34
cnumpy.core.multiarray
scalar
p35
(cnumpy
dtype
p36
(S'f8'
p37
I0
I1
tp38
Rp39
(I3
S'<'
p40
NNNI-1
I-1
I0
tp41
bS'\xc3\xf5(\\\x8f\xc2\xb5?'
p42
tp43
Rp44
sa(dp45
g2
F0.5575954333245333
sg3
(dp46
S'13:-1'
p47
(dp48
S'<=-1.0'
p49
(dp50
S'5:-1'
p51
(dp52
S'<=-1.0'
p53
(dp54
S'7:0'
p55
(dp56
S'<=0.0'
p57
I-1
sS'>0.0'
p58
I-1
sssS'>-1.0'
p59
I1
sssS'>-1.0'
p60
(dp61
S'14:-1'
p62
(dp63
S'<=-1.0'
p64
(dp65
S'5:-1'
p66
(dp67
S'<=-1.0'
p68
I-1
sS'>-1.0'
p69
I1
sssS'>-1.0'
p70
(dp71
S'25:0'
p72
(dp73
S'<=0.0'
p74
I1
sS'>0.0'
p75
I1
sssssssg34
g35
(g39
S'M\xa98\xfb\xf0\x19\xc6?'
p76
tp77
Rp78
sa(dp79
g2
F0.56212734469825
sg3
(dp80
S'7:0'
p81
(dp82
S'<=0.0'
p83
(dp84
S'13:-1'
p85
(dp86
S'<=-1.0'
p87
I-1
sS'>-1.0'
p88
(dp89
S'27:-1'
p90
(dp91
S'<=-1.0'
p92
I-1
sS'>-1.0'
p93
I1
sssssS'>0.0'
p94
(dp95
S'25:0'
p96
(dp97
S'<=0.0'
p98
(dp99
S'25:-1'
p100
(dp101
S'<=-1.0'
p102
I1
sS'>-1.0'
p103
I-1
sssS'>0.0'
p104
(dp105
S'15:-1'
p106
(dp107
S'<=-1.0'
p108
I1
sS'>-1.0'
p109
I1
sssssssg34
g35
(g39
S'\n\xd7\xa3p=\n\xb7?'
p110
tp111
Rp112
sa(dp113
g2
F0.5752798044293539
sg3
(dp114
S'7:0'
p115
(dp116
S'<=0.0'
p117
(dp118
S'13:-1'
p119
(dp120
S'<=-1.0'
p121
I-1
sS'>-1.0'
p122
(dp123
S'5:-1'
p124
(dp125
S'<=-1.0'
p126
I-1
sS'>-1.0'
p127
I1
sssssS'>0.0'
p128
(dp129
S'15:-1'
p130
(dp131
S'<=-1.0'
p132
(dp133
S'6:0'
p134
(dp135
S'<=0.0'
p136
I-1
sS'>0.0'
p137
I1
sssS'>-1.0'
p138
(dp139
S'13:-1'
p140
(dp141
S'<=-1.0'
p142
I-1
sS'>-1.0'
p143
I1
sssssssg34
g35
(g39
S'\xbc\xbb\xbb\xbb\xbb\xbb\xbb?'
p144
tp145
Rp146
sa(dp147
g2
F0.6027661642725303
sg3
(dp148
S'13:-1'
p149
(dp150
S'<=-1.0'
p151
(dp152
S'7:0'
p153
(dp154
S'<=0.0'
p155
I-1
sS'>0.0'
p156
(dp157
S'10:-1'
p158
(dp159
S'<=-1.0'
p160
I1
sS'>-1.0'
p161
I-1
sssssS'>-1.0'
p162
(dp163
S'5:-1'
p164
(dp165
S'<=-1.0'
p166
(dp167
S'14:-1'
p168
(dp169
S'<=-1.0'
p170
I1
sS'>-1.0'
p171
I1
sssS'>-1.0'
p172
I1
sssssg34
g35
(g39
S'\xf0`\x9e\xa8\x7f#\xb4?'
p173
tp174
Rp175
sa(dp176
g2
F0.5902430059295197
sg3
(dp177
S'5:-1'
p178
(dp179
S'<=-1.0'
p180
(dp181
S'14:-1'
p182
(dp183
S'<=-1.0'
p184
(dp185
S'7:0'
p186
(dp187
S'<=0.0'
p188
I-1
sS'>0.0'
p189
I1
sssS'>-1.0'
p190
(dp191
S'13:0'
p192
(dp193
S'<=0.0'
p194
I-1
sS'>0.0'
p195
I-1
sssssS'>-1.0'
p196
I1
sssg34
g35
(g39
S'\xa5\xe2\xec\xc3g\xd8\xb5?'
p197
tp198
Rp199
sa(dp200
g2
F0.5988227478626897
sg3
(dp201
S'13:0'
p202
(dp203
S'<=0.0'
p204
(dp205
S'28:0'
p206
(dp207
S'<=0.0'
p208
(dp209
S'1:0'
p210
(dp211
S'<=0.0'
p212
I-1
sS'>0.0'
p213
I1
sssS'>0.0'
p214
(dp215
S'1:0'
p216
(dp217
S'<=0.0'
p218
I1
sS'>0.0'
p219
I-1
sssssS'>0.0'
p220
(dp221
S'12:-1'
p222
(dp223
S'<=-1.0'
p224
(dp225
S'0:-1'
p226
(dp227
S'<=-1.0'
p228
I-1
sS'>-1.0'
p229
I1
sssS'>-1.0'
p230
(dp231
S'27:-1'
p232
(dp233
S'<=-1.0'
p234
I-1
sS'>-1.0'
p235
I1
sssssssg34
g35
(g39
S'\xc1\x83y\xa2\xfe\x8d\xb0?'
p236
tp237
Rp238
sa(dp239
g2
F0.5913922315254555
sg3
(dp240
S'8:-1'
p241
(dp242
S'<=-1.0'
p243
(dp244
S'25:0'
p245
(dp246
S'<=0.0'
p247
(dp248
S'24:-1'
p249
(dp250
S'<=-1.0'
p251
I-1
sS'>-1.0'
p252
I1
sssS'>0.0'
p253
(dp254
S'0:-1'
p255
(dp256
S'<=-1.0'
p257
I-1
sS'>-1.0'
p258
I1
sssssS'>-1.0'
p259
(dp260
S'28:0'
p261
(dp262
S'<=0.0'
p263
(dp264
S'0:-1'
p265
(dp266
S'<=-1.0'
p267
I-1
sS'>-1.0'
p268
I1
sssS'>0.0'
p269
(dp270
S'13:0'
p271
(dp272
S'<=0.0'
p273
I-1
sS'>0.0'
p274
I1
sssssssg34
g35
(g39
S'{\x14\xaeG\xe1z\xb4?'
p275
tp276
Rp277
sa(dp278
g2
F0.6343284002312204
sg3
(dp279
S'2:-1'
p280
(dp281
S'<=-1.0'
p282
(dp283
S'13:-1'
p284
(dp285
S'<=-1.0'
p286
I-1
sS'>-1.0'
p287
(dp288
S'14:-1'
p289
(dp290
S'<=-1.0'
p291
I1
sS'>-1.0'
p292
I1
sssssS'>-1.0'
p293
(dp294
S'5:-1'
p295
(dp296
S'<=-1.0'
p297
(dp298
S'13:-1'
p299
(dp300
S'<=-1.0'
p301
I-1
sS'>-1.0'
p302
I-1
sssS'>-1.0'
p303
I1
sssssg34
g35
(g39
S'C\xd2\x94\x8a\xb3\x0f\xaf?'
p304
tp305
Rp306
sa(dp307
g2
F0.5771501497900099
sg3
(dp308
S'13:-1'
p309
(dp310
S'<=-1.0'
p311
(dp312
S'25:0'
p313
(dp314
S'<=0.0'
p315
(dp316
S'5:-1'
p317
(dp318
S'<=-1.0'
p319
I-1
sS'>-1.0'
p320
I1
sssS'>0.0'
p321
(dp322
S'7:0'
p323
(dp324
S'<=0.0'
p325
I-1
sS'>0.0'
p326
I1
sssssS'>-1.0'
p327
(dp328
S'18:0'
p329
(dp330
S'<=0.0'
p331
(dp332
S'15:-1'
p333
(dp334
S'<=-1.0'
p335
I1
sS'>-1.0'
p336
I1
sssS'>0.0'
p337
(dp338
S'25:0'
p339
(dp340
S'<=0.0'
p341
I-1
sS'>0.0'
p342
I1
sssssssg34
g35
(g39
S'L7\x89A`\xe5\xb0?'
p343
tp344
Rp345
sa.