(lp0
(dp1
S'alpha'
p2
F0.522724183147725
sS'cart'
p3
(dp4
S'7:0'
p5
(dp6
S'<=0.0'
p7
(dp8
S'13:-1'
p9
(dp10
S'<=-1.0'
p11
I-1
sS'>-1.0'
p12
(dp13
S'5:-1'
p14
(dp15
S'<=-1.0'
p16
I-1
sS'>-1.0'
p17
I1
sssssS'>0.0'
p18
(dp19
S'13:-1'
p20
(dp21
S'<=-1.0'
p22
(dp23
S'5:-1'
p24
(dp25
S'<=-1.0'
p26
I-1
sS'>-1.0'
p27
I1
sssS'>-1.0'
p28
(dp29
S'25:0'
p30
(dp31
S'<=0.0'
p32
I1
sS'>0.0'
p33
I1
sssssssS'error_rate'
p34
cnumpy.core.multiarray
scalar
p35
(cnumpy
dtype
p36
(S'f8'
p37
I0
I1
tp38
Rp39
(I3
S'<'
p40
NNNI-1
I-1
I0
tp41
bS'\x88\xcf\xb0+@\xee\xb5?'
p42
tp43
Rp44
sa(dp45
g2
F0.5550802312295693
sg3
(dp46
S'13:-1'
p47
(dp48
S'<=-1.0'
p49
(dp50
S'5:-1'
p51
(dp52
S'<=-1.0'
p53
(dp54
S'7:0'
p55
(dp56
S'<=0.0'
p57
I-1
sS'>0.0'
p58
I-1
sssS'>-1.0'
p59
I1
sssS'>-1.0'
p60
(dp61
S'14:-1'
p62
(dp63
S'<=-1.0'
p64
(dp65
S'5:-1'
p66
(dp67
S'<=-1.0'
p68
I-1
sS'>-1.0'
p69
I1
sssS'>-1.0'
p70
(dp71
S'25:0'
p72
(dp73
S'<=0.0'
p74
I1
sS'>0.0'
p75
I1
sssssssg34
g35
(g39
S'sh\x91\xed|?\xc5?'
p76
tp77
Rp78
sa(dp79
g2
F0.5604203047297871
sg3
(dp80
S'13:-1'
p81
(dp82
S'<=-1.0'
p83
(dp84
S'7:0'
p85
(dp86
S'<=0.0'
p87
I-1
sS'>0.0'
p88
(dp89
S'25:0'
p90
(dp91
S'<=0.0'
p92
I-1
sS'>0.0'
p93
I1
sssssS'>-1.0'
p94
(dp95
S'25:0'
p96
(dp97
S'<=0.0'
p98
(dp99
S'6:0'
p100
(dp101
S'<=0.0'
p102
I-1
sS'>0.0'
p103
I1
sssS'>0.0'
p104
(dp105
S'7:0'
p106
(dp107
S'<=0.0'
p108
I1
sS'>0.0'
p109
I1
sssssssg34
g35
(g39
S'\xcb\xa1E\xb6\xf3\xfd\xb4?'
p110
tp111
Rp112
sa(dp113
g2
F0.5917388217716106
sg3
(dp114
S'7:0'
p115
(dp116
S'<=0.0'
p117
(dp118
S'13:-1'
p119
(dp120
S'<=-1.0'
p121
I-1
sS'>-1.0'
p122
(dp123
S'5:-1'
p124
(dp125
S'<=-1.0'
p126
I-1
sS'>-1.0'
p127
I1
sssssS'>0.0'
p128
(dp129
S'13:0'
p130
(dp131
S'<=0.0'
p132
(dp133
S'25:-1'
p134
(dp135
S'<=-1.0'
p136
I1
sS'>-1.0'
p137
I-1
sssS'>0.0'
p138
(dp139
S'27:-1'
p140
(dp141
S'<=-1.0'
p142
I1
sS'>-1.0'
p143
I1
sssssssg34
g35
(g39
S'X9\xb4\xc8v\xbe\xbf?'
p144
tp145
Rp146
sa(dp147
g2
F0.5831637491073303
sg3
(dp148
S'13:-1'
p149
(dp150
S'<=-1.0'
p151
(dp152
S'7:0'
p153
(dp154
S'<=0.0'
p155
I-1
sS'>0.0'
p156
(dp157
S'12:-1'
p158
(dp159
S'<=-1.0'
p160
I-1
sS'>-1.0'
p161
I1
sssssS'>-1.0'
p162
(dp163
S'15:-1'
p164
(dp165
S'<=-1.0'
p166
(dp167
S'5:-1'
p168
(dp169
S'<=-1.0'
p170
I1
sS'>-1.0'
p171
I1
sssS'>-1.0'
p172
(dp173
S'25:0'
p174
(dp175
S'<=0.0'
p176
I1
sS'>0.0'
p177
I1
sssssssg34
g35
(g39
S'H\x9aRq\xf6\xe1\xb3?'
p178
tp179
Rp180
sa(dp181
g2
F0.5904291302675282
sg3
(dp182
S'5:-1'
p183
(dp184
S'<=-1.0'
p185
(dp186
S'15:-1'
p187
(dp188
S'<=-1.0'
p189
(dp190
S'28:0'
p191
(dp192
S'<=0.0'
p193
I-1
sS'>0.0'
p194
I-1
sssS'>-1.0'
p195
(dp196
S'25:0'
p197
(dp198
S'<=0.0'
p199
I-1
sS'>0.0'
p200
I1
sssssS'>-1.0'
p201
I1
sssg34
g35
(g39
S'\xd4\xbf\x11\xca\xe8m\xb9?'
p202
tp203
Rp204
sa(dp205
g2
F0.5974168991668319
sg3
(dp206
S'13:-1'
p207
(dp208
S'<=-1.0'
p209
(dp210
S'7:0'
p211
(dp212
S'<=0.0'
p213
I-1
sS'>0.0'
p214
(dp215
S'14:-1'
p216
(dp217
S'<=-1.0'
p218
I-1
sS'>-1.0'
p219
I1
sssssS'>-1.0'
p220
(dp221
S'27:-1'
p222
(dp223
S'<=-1.0'
p224
(dp225
S'17:-1'
p226
(dp227
S'<=-1.0'
p228
I1
sS'>-1.0'
p229
I-1
sssS'>-1.0'
p230
(dp231
S'14:-1'
p232
(dp233
S'<=-1.0'
p234
I1
sS'>-1.0'
p235
I1
sssssssg34
g35
(g39
S';\xdfO\x8d\x97n\xb2?'
p236
tp237
Rp238
sa(dp239
g2
F0.6109319273099243
sg3
(dp240
S'27:-1'
p241
(dp242
S'<=-1.0'
p243
(dp244
S'13:-1'
p245
(dp246
S'<=-1.0'
p247
I-1
sS'>-1.0'
p248
(dp249
S'25:0'
p250
(dp251
S'<=0.0'
p252
I1
sS'>0.0'
p253
I1
sssssS'>-1.0'
p254
(dp255
S'14:-1'
p256
(dp257
S'<=-1.0'
p258
(dp259
S'7:0'
p260
(dp261
S'<=0.0'
p262
I-1
sS'>0.0'
p263
I1
sssS'>-1.0'
p264
(dp265
S'5:-1'
p266
(dp267
S'<=-1.0'
p268
I-1
sS'>-1.0'
p269
I1
sssssssg34
g35
(g39
S'@\xee5\x17\x92\xa6\xb4?'
p270
tp271
Rp272
sa(dp273
g2
F0.6083642749094825
sg3
(dp274
S'28:0'
p275
(dp276
S'<=0.0'
p277
(dp278
S'0:-1'
p279
(dp280
S'<=-1.0'
p281
(dp282
S'6:0'
p283
(dp284
S'<=0.0'
p285
I-1
sS'>0.0'
p286
I-1
sssS'>-1.0'
p287
(dp288
S'24:-1'
p289
(dp290
S'<=-1.0'
p291
I-1
sS'>-1.0'
p292
I1
sssssS'>0.0'
p293
(dp294
S'1:0'
p295
(dp296
S'<=0.0'
p297
(dp298
S'4:-1'
p299
(dp300
S'<=-1.0'
p301
I1
sS'>-1.0'
p302
I1
sssS'>0.0'
p303
(dp304
S'9:-1'
p305
(dp306
S'<=-1.0'
p307
I1
sS'>-1.0'
p308
I-1
sssssssg34
g35
(g39
S'\xf4\xfd\xd4x\xe9&\xb1?'
p309
tp310
Rp311
sa(dp312
g2
F0.5894885176555738
sg3
(dp313
S'1:-1'
p314
(dp315
S'<=-1.0'
p316
(dp317
S'4:-1'
p318
(dp319
S'<=-1.0'
p320
(dp321
S'2:-1'
p322
(dp323
S'<=-1.0'
p324
I1
sS'>-1.0'
p325
I-1
sssS'>-1.0'
p326
(dp327
S'14:-1'
p328
(dp329
S'<=-1.0'
p330
I-1
sS'>-1.0'
p331
I-1
sssssS'>-1.0'
p332
(dp333
S'7:0'
p334
(dp335
S'<=0.0'
p336
(dp337
S'28:-1'
p338
(dp339
S'<=-1.0'
p340
I1
sS'>-1.0'
p341
I-1
sssS'>0.0'
p342
(dp343
S'25:0'
p344
(dp345
S'<=0.0'
p346
I1
sS'>0.0'
p347
I1
sssssssg34
g35
(g39
S'\xa0\xd3\x06:m\xa0\xb3?'
p348
tp349
Rp350
sa.