(lp0
(dp1
S'alpha'
p2
F0.5225365512153867
sS'cart'
p3
(dp4
S'7:0'
p5
(dp6
S'<=0.0'
p7
(dp8
S'13:-1'
p9
(dp10
S'<=-1.0'
p11
I-1
sS'>-1.0'
p12
(dp13
S'5:-1'
p14
(dp15
S'<=-1.0'
p16
I-1
sS'>-1.0'
p17
I1
sssssS'>0.0'
p18
(dp19
S'13:-1'
p20
(dp21
S'<=-1.0'
p22
(dp23
S'5:-1'
p24
(dp25
S'<=-1.0'
p26
I-1
sS'>-1.0'
p27
I1
sssS'>-1.0'
p28
(dp29
S'25:0'
p30
(dp31
S'<=0.0'
p32
I1
sS'>0.0'
p33
I1
sssssssS'error_rate'
p34
cnumpy.core.multiarray
scalar
p35
(cnumpy
dtype
p36
(S'f8'
p37
I0
I1
tp38
Rp39
(I3
S'<'
p40
NNNI-1
I-1
I0
tp41
bS'\xc3\xf5(\\\x8f\xc2\xb5?'
p42
tp43
Rp44
sa(dp45
g2
F0.5547262470925854
sg3
(dp46
S'13:-1'
p47
(dp48
S'<=-1.0'
p49
(dp50
S'5:-1'
p51
(dp52
S'<=-1.0'
p53
(dp54
S'7:0'
p55
(dp56
S'<=0.0'
p57
I-1
sS'>0.0'
p58
I-1
sssS'>-1.0'
p59
I1
sssS'>-1.0'
p60
(dp61
S'14:-1'
p62
(dp63
S'<=-1.0'
p64
(dp65
S'5:-1'
p66
(dp67
S'<=-1.0'
p68
I-1
sS'>-1.0'
p69
I1
sssS'>-1.0'
p70
(dp71
S'25:0'
p72
(dp73
S'<=0.0'
p74
I1
sS'>0.0'
p75
I1
sssssssg34
g35
(g39
S'\xc7K7\x89A`\xc5?'
p76
tp77
Rp78
sa(dp79
g2
F0.5585719059641358
sg3
(dp80
S'13:-1'
p81
(dp82
S'<=-1.0'
p83
(dp84
S'5:-1'
p85
(dp86
S'<=-1.0'
p87
(dp88
S'7:0'
p89
(dp90
S'<=0.0'
p91
I-1
sS'>0.0'
p92
I-1
sssS'>-1.0'
p93
I1
sssS'>-1.0'
p94
(dp95
S'25:0'
p96
(dp97
S'<=0.0'
p98
(dp99
S'6:0'
p100
(dp101
S'<=0.0'
p102
I-1
sS'>0.0'
p103
I1
sssS'>0.0'
p104
(dp105
S'7:0'
p106
(dp107
S'<=0.0'
p108
I1
sS'>0.0'
p109
I1
sssssssg34
g35
(g39
S'\xad\x8e\t\x1e\xcc\x13\xb5?'
p110
tp111
Rp112
sa(dp113
g2
F0.5977086063466854
sg3
(dp114
S'7:0'
p115
(dp116
S'<=0.0'
p117
(dp118
S'13:-1'
p119
(dp120
S'<=-1.0'
p121
I-1
sS'>-1.0'
p122
(dp123
S'5:-1'
p124
(dp125
S'<=-1.0'
p126
I-1
sS'>-1.0'
p127
I1
sssssS'>0.0'
p128
(dp129
S'13:0'
p130
(dp131
S'<=0.0'
p132
(dp133
S'15:-1'
p134
(dp135
S'<=-1.0'
p136
I1
sS'>-1.0'
p137
I1
sssS'>0.0'
p138
(dp139
S'27:-1'
p140
(dp141
S'<=-1.0'
p142
I1
sS'>-1.0'
p143
I1
sssssssg34
g35
(g39
S'\xc3\xf5(\\\x8f\xc2\xb5?'
p144
tp145
Rp146
sa(dp147
g2
F0.5832654515574807
sg3
(dp148
S'13:0'
p149
(dp150
S'<=0.0'
p151
(dp152
S'13:-1'
p153
(dp154
S'<=-1.0'
p155
(dp156
S'22:-1'
p157
(dp158
S'<=-1.0'
p159
I-1
sS'>-1.0'
p160
I-1
sssS'>-1.0'
p161
(dp162
S'7:0'
p163
(dp164
S'<=0.0'
p165
I1
sS'>0.0'
p166
I-1
sssssS'>0.0'
p167
(dp168
S'27:-1'
p169
(dp170
S'<=-1.0'
p171
(dp172
S'24:-1'
p173
(dp174
S'<=-1.0'
p175
I1
sS'>-1.0'
p176
I-1
sssS'>-1.0'
p177
(dp178
S'12:-1'
p179
(dp180
S'<=-1.0'
p181
I1
sS'>-1.0'
p182
I1
sssssssg34
g35
(g39
S'\x0et\xda@\xa7\r\xb4?'
p183
tp184
Rp185
sa(dp186
g2
F0.6101347489930016
sg3
(dp187
S'7:0'
p188
(dp189
S'<=0.0'
p190
(dp191
S'13:-1'
p192
(dp193
S'<=-1.0'
p194
I-1
sS'>-1.0'
p195
(dp196
S'11:-1'
p197
(dp198
S'<=-1.0'
p199
I1
sS'>-1.0'
p200
I-1
sssssS'>0.0'
p201
(dp202
S'15:-1'
p203
(dp204
S'<=-1.0'
p205
(dp206
S'5:-1'
p207
(dp208
S'<=-1.0'
p209
I-1
sS'>-1.0'
p210
I1
sssS'>-1.0'
p211
(dp212
S'24:-1'
p213
(dp214
S'<=-1.0'
p215
I1
sS'>-1.0'
p216
I1
sssssssg34
g35
(g39
S'K~\xb1\xe4\x17K\xbe?'
p217
tp218
Rp219
sa(dp220
g2
F0.5846900208711808
sg3
(dp221
S'7:0'
p222
(dp223
S'<=0.0'
p224
(dp225
S'13:-1'
p226
(dp227
S'<=-1.0'
p228
I-1
sS'>-1.0'
p229
(dp230
S'18:0'
p231
(dp232
S'<=0.0'
p233
I1
sS'>0.0'
p234
I-1
sssssS'>0.0'
p235
(dp236
S'1:0'
p237
(dp238
S'<=0.0'
p239
(dp240
S'28:0'
p241
(dp242
S'<=0.0'
p243
I1
sS'>0.0'
p244
I1
sssS'>0.0'
p245
(dp246
S'24:-1'
p247
(dp248
S'<=-1.0'
p249
I-1
sS'>-1.0'
p250
I1
sssssssg34
g35
(g39
S'\x05\xc8\xbd\xe6B\xd2\xb4?'
p251
tp252
Rp253
sa(dp254
g2
F0.6010148599439846
sg3
(dp255
S'7:0'
p256
(dp257
S'<=0.0'
p258
(dp259
S'13:0'
p260
(dp261
S'<=0.0'
p262
(dp263
S'14:-1'
p264
(dp265
S'<=-1.0'
p266
I-1
sS'>-1.0'
p267
I-1
sssS'>0.0'
p268
(dp269
S'25:-1'
p270
(dp271
S'<=-1.0'
p272
I-1
sS'>-1.0'
p273
I1
sssssS'>0.0'
p274
(dp275
S'25:-1'
p276
(dp277
S'<=-1.0'
p278
(dp279
S'13:-1'
p280
(dp281
S'<=-1.0'
p282
I-1
sS'>-1.0'
p283
I1
sssS'>-1.0'
p284
(dp285
S'28:0'
p286
(dp287
S'<=0.0'
p288
I-1
sS'>0.0'
p289
I1
sssssssg34
g35
(g39
S'\xf5o\x842z[\xb6?'
p290
tp291
Rp292
sa(dp293
g2
F0.5852813264223858
sg3
(dp294
S'0:-1'
p295
(dp296
S'<=-1.0'
p297
(dp298
S'27:-1'
p299
(dp300
S'<=-1.0'
p301
(dp302
S'2:-1'
p303
(dp304
S'<=-1.0'
p305
I1
sS'>-1.0'
p306
I-1
sssS'>-1.0'
p307
(dp308
S'28:0'
p309
(dp310
S'<=0.0'
p311
I-1
sS'>0.0'
p312
I1
sssssS'>-1.0'
p313
(dp314
S'24:-1'
p315
(dp316
S'<=-1.0'
p317
(dp318
S'25:0'
p319
(dp320
S'<=0.0'
p321
I-1
sS'>0.0'
p322
I1
sssS'>-1.0'
p323
(dp324
S'13:-1'
p325
(dp326
S'<=-1.0'
p327
I-1
sS'>-1.0'
p328
I1
sssssssg34
g35
(g39
S'\xd6\xea\x98\xe0\xc1<\xb1?'
p329
tp330
Rp331
sa(dp332
g2
F0.6097313253200586
sg3
(dp333
S'28:0'
p334
(dp335
S'<=0.0'
p336
(dp337
S'7:0'
p338
(dp339
S'<=0.0'
p340
(dp341
S'12:-1'
p342
(dp343
S'<=-1.0'
p344
I-1
sS'>-1.0'
p345
I-1
sssS'>0.0'
p346
(dp347
S'16:-1'
p348
(dp349
S'<=-1.0'
p350
I1
sS'>-1.0'
p351
I1
sssssS'>0.0'
p352
(dp353
S'1:0'
p354
(dp355
S'<=0.0'
p356
(dp357
S'16:-1'
p358
(dp359
S'<=-1.0'
p360
I-1
sS'>-1.0'
p361
I-1
sssS'>0.0'
p362
(dp363
S'9:-1'
p364
(dp365
S'<=-1.0'
p366
I1
sS'>-1.0'
p367
I-1
sssssssg34
g35
(g39
S'\x16 \xf7\x9a\x0bI\xb3?'
p368
tp369
Rp370
sa.