(lp0
(dp1
S'alpha'
p2
F1.1004668902009647
sS'SSLfinal_State'
p3
(dp4
I0
(dp5
S'URL_of_Anchor'
p6
(dp7
I0
(dp8
S'Links_pointing_to_page'
p9
(dp10
I0
I-1
sI1
I-1
sI-1
I1
sssI1
I-1
sI-1
I-1
sssI1
(dp11
S'having_Sub_Domain'
p12
(dp13
I0
(dp14
S'web_traffic'
p15
(dp16
I0
I-1
sI1
I1
sI-1
I1
sssI1
(dp17
g15
(dp18
I0
I1
sI1
I1
sI-1
I1
sssI-1
(dp19
S'Links_in_tags'
p20
(dp21
I0
I1
sI1
I1
sI-1
I1
sssssI-1
(dp22
g6
(dp23
I0
(dp24
g12
(dp25
I0
I-1
sI1
I-1
sI-1
I-1
sssI1
(dp26
g20
(dp27
I0
I1
sI1
I1
sI-1
I-1
sssI-1
I-1
ssssa(dp28
g2
F1.1004668902009647
sg3
(dp29
I0
(dp30
g6
(dp31
I0
(dp32
g12
(dp33
I0
I-1
sI1
I1
sI-1
I-1
sssI1
I-1
sI-1
I-1
sssI1
(dp34
g12
(dp35
I0
(dp36
g15
(dp37
I0
I-1
sI1
I1
sI-1
I1
sssI1
(dp38
g15
(dp39
I0
I1
sI1
I1
sI-1
I1
sssI-1
(dp40
g15
(dp41
I0
I-1
sI1
I1
sI-1
I1
sssssI-1
(dp42
g6
(dp43
I0
(dp44
g12
(dp45
I0
I-1
sI1
I-1
sI-1
I-1
sssI1
(dp46
g12
(dp47
I0
I1
sI1
I1
sI-1
I-1
sssI-1
I-1
ssssa(dp48
g2
F1.1004668902009647
sg3
(dp49
I0
(dp50
g6
(dp51
I0
(dp52
g12
(dp53
I0
I-1
sI1
I1
sI-1
I-1
sssI1
I-1
sI-1
I-1
sssI1
(dp54
g12
(dp55
I0
(dp56
g15
(dp57
I0
I-1
sI1
I1
sI-1
I1
sssI1
(dp58
g20
(dp59
I0
I1
sI1
I1
sI-1
I1
sssI-1
(dp60
g15
(dp61
I0
I-1
sI1
I1
sI-1
I1
sssssI-1
(dp62
g6
(dp63
I0
(dp64
g12
(dp65
I0
I-1
sI1
I-1
sI-1
I-1
sssI1
(dp66
g12
(dp67
I0
I1
sI1
I1
sI-1
I-1
sssI-1
I-1
ssssa(dp68
g2
F1.1004668902009647
sg3
(dp69
I0
(dp70
g6
(dp71
I0
(dp72
g12
(dp73
I0
I-1
sI1
I1
sI-1
I-1
sssI1
I-1
sI-1
I-1
sssI1
(dp74
g12
(dp75
I0
(dp76
g15
(dp77
I0
I-1
sI1
I1
sI-1
I1
sssI1
(dp78
g20
(dp79
I0
I1
sI1
I1
sI-1
I1
sssI-1
(dp80
g15
(dp81
I0
I-1
sI1
I1
sI-1
I1
sssssI-1
(dp82
g6
(dp83
I0
(dp84
g12
(dp85
I0
I-1
sI1
I-1
sI-1
I-1
sssI1
(dp86
g12
(dp87
I0
I1
sI1
I1
sI-1
I-1
sssI-1
I-1
ssssa(dp88
g2
F1.1004668902009647
sg3
(dp89
I0
(dp90
g6
(dp91
I0
(dp92
g12
(dp93
I0
I-1
sI1
I1
sI-1
I-1
sssI1
I-1
sI-1
I-1
sssI1
(dp94
g12
(dp95
I0
(dp96
g15
(dp97
I0
I-1
sI1
I1
sI-1
I1
sssI1
(dp98
g20
(dp99
I0
I1
sI1
I1
sI-1
I1
sssI-1
(dp100
g15
(dp101
I0
I-1
sI1
I1
sI-1
I1
sssssI-1
(dp102
g6
(dp103
I0
(dp104
g12
(dp105
I0
I-1
sI1
I-1
sI-1
I-1
sssI1
(dp106
g12
(dp107
I0
I1
sI1
I1
sI-1
I-1
sssI-1
I-1
ssssa(dp108
g2
F1.1004668902009647
sg3
(dp109
I0
(dp110
g6
(dp111
I0
(dp112
g12
(dp113
I0
I-1
sI1
I1
sI-1
I-1
sssI1
I-1
sI-1
I-1
sssI1
(dp114
g12
(dp115
I0
(dp116
g15
(dp117
I0
I-1
sI1
I1
sI-1
I1
sssI1
(dp118
g20
(dp119
I0
I1
sI1
I1
sI-1
I1
sssI-1
(dp120
g15
(dp121
I0
I-1
sI1
I1
sI-1
I1
sssssI-1
(dp122
g6
(dp123
I0
(dp124
g12
(dp125
I0
I-1
sI1
I-1
sI-1
I-1
sssI1
(dp126
g12
(dp127
I0
I1
sI1
I1
sI-1
I-1
sssI-1
I-1
ssssa(dp128
g2
F1.1004668902009647
sg3
(dp129
I0
(dp130
g6
(dp131
I0
(dp132
g12
(dp133
I0
I-1
sI1
I1
sI-1
I-1
sssI1
I-1
sI-1
I-1
sssI1
(dp134
g12
(dp135
I0
(dp136
g15
(dp137
I0
I-1
sI1
I1
sI-1
I1
sssI1
(dp138
g20
(dp139
I0
I1
sI1
I1
sI-1
I1
sssI-1
(dp140
g15
(dp141
I0
I-1
sI1
I1
sI-1
I1
sssssI-1
(dp142
g6
(dp143
I0
(dp144
g12
(dp145
I0
I-1
sI1
I-1
sI-1
I-1
sssI1
(dp146
g12
(dp147
I0
I1
sI1
I1
sI-1
I-1
sssI-1
I-1
ssssa(dp148
g2
F1.1004668902009647
sg3
(dp149
I0
(dp150
g6
(dp151
I0
(dp152
g12
(dp153
I0
I-1
sI1
I1
sI-1
I-1
sssI1
I-1
sI-1
I-1
sssI1
(dp154
g12
(dp155
I0
(dp156
g15
(dp157
I0
I-1
sI1
I1
sI-1
I1
sssI1
(dp158
g20
(dp159
I0
I1
sI1
I1
sI-1
I1
sssI-1
(dp160
g15
(dp161
I0
I-1
sI1
I1
sI-1
I1
sssssI-1
(dp162
g6
(dp163
I0
(dp164
g12
(dp165
I0
I-1
sI1
I-1
sI-1
I-1
sssI1
(dp166
g12
(dp167
I0
I1
sI1
I1
sI-1
I-1
sssI-1
I-1
ssssa(dp168
g2
F1.1004668902009647
sg3
(dp169
I0
(dp170
g6
(dp171
I0
(dp172
g12
(dp173
I0
I-1
sI1
I1
sI-1
I-1
sssI1
I-1
sI-1
I-1
sssI1
(dp174
g12
(dp175
I0
(dp176
g15
(dp177
I0
I-1
sI1
I1
sI-1
I1
sssI1
(dp178
g20
(dp179
I0
I1
sI1
I1
sI-1
I1
sssI-1
(dp180
g15
(dp181
I0
I-1
sI1
I1
sI-1
I1
sssssI-1
(dp182
g6
(dp183
I0
(dp184
g12
(dp185
I0
I-1
sI1
I-1
sI-1
I-1
sssI1
(dp186
g12
(dp187
I0
I1
sI1
I1
sI-1
I-1
sssI-1
I-1
ssssa(dp188
g2
F1.1004668902009647
sg3
(dp189
I0
(dp190
g6
(dp191
I0
(dp192
g12
(dp193
I0
I-1
sI1
I1
sI-1
I-1
sssI1
I-1
sI-1
I-1
sssI1
(dp194
g12
(dp195
I0
(dp196
g15
(dp197
I0
I-1
sI1
I1
sI-1
I1
sssI1
(dp198
g20
(dp199
I0
I1
sI1
I1
sI-1
I1
sssI-1
(dp200
g15
(dp201
I0
I-1
sI1
I1
sI-1
I1
sssssI-1
(dp202
g6
(dp203
I0
(dp204
g12
(dp205
I0
I-1
sI1
I-1
sI-1
I-1
sssI1
(dp206
g12
(dp207
I0
I1
sI1
I1
sI-1
I-1
sssI-1
I-1
ssssa.