(lp0
(dp1
S'alpha'
p2
F1.1193230806931167
sS'SSLfinal_State'
p3
(dp4
I0
(dp5
S'URL_of_Anchor'
p6
(dp7
I0
(dp8
S'Links_pointing_to_page'
p9
(dp10
I0
I-1
sI1
I-1
sI-1
I1
sssI1
I-1
sI-1
I-1
sssI1
(dp11
S'having_Sub_Domain'
p12
(dp13
I0
(dp14
S'Links_in_tags'
p15
(dp16
I0
I1
sI1
I1
sI-1
I1
sssI1
(dp17
S'web_traffic'
p18
(dp19
I0
I1
sI1
I1
sI-1
I1
sssI-1
(dp20
g15
(dp21
I0
I1
sI1
I1
sI-1
I1
sssssI-1
(dp22
g6
(dp23
I0
(dp24
g12
(dp25
I0
I-1
sI1
I-1
sI-1
I-1
sssI1
(dp26
g12
(dp27
I0
I1
sI1
I1
sI-1
I-1
sssI-1
I-1
ssssa(dp28
g2
F1.1289706252586904
sg3
(dp29
I0
(dp30
g6
(dp31
I0
(dp32
g9
(dp33
I0
I-1
sI1
I-1
sI-1
I1
sssI1
I-1
sI-1
I-1
sssI1
(dp34
g12
(dp35
I0
(dp36
g18
(dp37
I0
I-1
sI1
I1
sI-1
I1
sssI1
(dp38
g18
(dp39
I0
I1
sI1
I1
sI-1
I1
sssI-1
(dp40
g18
(dp41
I0
I-1
sI1
I1
sI-1
I1
sssssI-1
(dp42
g6
(dp43
I0
(dp44
g12
(dp45
I0
I-1
sI1
I-1
sI-1
I-1
sssI1
(dp46
g12
(dp47
I0
I1
sI1
I1
sI-1
I-1
sssI-1
I-1
ssssa(dp48
g2
F1.1193230806931167
sg3
(dp49
I0
(dp50
g6
(dp51
I0
(dp52
g9
(dp53
I0
I-1
sI1
I-1
sI-1
I1
sssI1
I-1
sI-1
I-1
sssI1
(dp54
g12
(dp55
I0
(dp56
g15
(dp57
I0
I1
sI1
I1
sI-1
I1
sssI1
(dp58
g18
(dp59
I0
I1
sI1
I1
sI-1
I1
sssI-1
(dp60
g15
(dp61
I0
I1
sI1
I1
sI-1
I1
sssssI-1
(dp62
g6
(dp63
I0
(dp64
g12
(dp65
I0
I-1
sI1
I-1
sI-1
I-1
sssI1
(dp66
g12
(dp67
I0
I1
sI1
I1
sI-1
I-1
sssI-1
I-1
ssssa(dp68
g2
F1.1289706252586904
sg3
(dp69
I0
(dp70
g6
(dp71
I0
(dp72
g9
(dp73
I0
I-1
sI1
I-1
sI-1
I1
sssI1
I-1
sI-1
I-1
sssI1
(dp74
g12
(dp75
I0
(dp76
g18
(dp77
I0
I-1
sI1
I1
sI-1
I1
sssI1
(dp78
g18
(dp79
I0
I1
sI1
I1
sI-1
I1
sssI-1
(dp80
g18
(dp81
I0
I-1
sI1
I1
sI-1
I1
sssssI-1
(dp82
g6
(dp83
I0
(dp84
g12
(dp85
I0
I-1
sI1
I-1
sI-1
I-1
sssI1
(dp86
g12
(dp87
I0
I1
sI1
I1
sI-1
I-1
sssI-1
I-1
ssssa(dp88
g2
F1.1193230806931167
sg3
(dp89
I0
(dp90
g6
(dp91
I0
(dp92
g9
(dp93
I0
I-1
sI1
I-1
sI-1
I1
sssI1
I-1
sI-1
I-1
sssI1
(dp94
g12
(dp95
I0
(dp96
g15
(dp97
I0
I1
sI1
I1
sI-1
I1
sssI1
(dp98
g18
(dp99
I0
I1
sI1
I1
sI-1
I1
sssI-1
(dp100
g15
(dp101
I0
I1
sI1
I1
sI-1
I1
sssssI-1
(dp102
g6
(dp103
I0
(dp104
g12
(dp105
I0
I-1
sI1
I-1
sI-1
I-1
sssI1
(dp106
g12
(dp107
I0
I1
sI1
I1
sI-1
I-1
sssI-1
I-1
ssssa(dp108
g2
F1.1289706252586904
sg3
(dp109
I0
(dp110
g6
(dp111
I0
(dp112
g9
(dp113
I0
I-1
sI1
I-1
sI-1
I1
sssI1
I-1
sI-1
I-1
sssI1
(dp114
g12
(dp115
I0
(dp116
g18
(dp117
I0
I-1
sI1
I1
sI-1
I1
sssI1
(dp118
g18
(dp119
I0
I1
sI1
I1
sI-1
I1
sssI-1
(dp120
g18
(dp121
I0
I-1
sI1
I1
sI-1
I1
sssssI-1
(dp122
g6
(dp123
I0
(dp124
g12
(dp125
I0
I-1
sI1
I-1
sI-1
I-1
sssI1
(dp126
g12
(dp127
I0
I1
sI1
I1
sI-1
I-1
sssI-1
I-1
ssssa(dp128
g2
F1.1193230806931167
sg3
(dp129
I0
(dp130
g6
(dp131
I0
(dp132
g9
(dp133
I0
I-1
sI1
I-1
sI-1
I1
sssI1
I-1
sI-1
I-1
sssI1
(dp134
g12
(dp135
I0
(dp136
g15
(dp137
I0
I1
sI1
I1
sI-1
I1
sssI1
(dp138
g18
(dp139
I0
I1
sI1
I1
sI-1
I1
sssI-1
(dp140
g15
(dp141
I0
I1
sI1
I1
sI-1
I1
sssssI-1
(dp142
g6
(dp143
I0
(dp144
g12
(dp145
I0
I-1
sI1
I-1
sI-1
I-1
sssI1
(dp146
g12
(dp147
I0
I1
sI1
I1
sI-1
I-1
sssI-1
I-1
ssssa(dp148
g2
F1.1289706252586904
sg3
(dp149
I0
(dp150
g6
(dp151
I0
(dp152
g9
(dp153
I0
I-1
sI1
I-1
sI-1
I1
sssI1
I-1
sI-1
I-1
sssI1
(dp154
g12
(dp155
I0
(dp156
g18
(dp157
I0
I-1
sI1
I1
sI-1
I1
sssI1
(dp158
g18
(dp159
I0
I1
sI1
I1
sI-1
I1
sssI-1
(dp160
g18
(dp161
I0
I-1
sI1
I1
sI-1
I1
sssssI-1
(dp162
g6
(dp163
I0
(dp164
g12
(dp165
I0
I-1
sI1
I-1
sI-1
I-1
sssI1
(dp166
g12
(dp167
I0
I1
sI1
I1
sI-1
I-1
sssI-1
I-1
ssssa(dp168
g2
F1.1193230806931167
sg3
(dp169
I0
(dp170
g6
(dp171
I0
(dp172
g9
(dp173
I0
I-1
sI1
I-1
sI-1
I1
sssI1
I-1
sI-1
I-1
sssI1
(dp174
g12
(dp175
I0
(dp176
g15
(dp177
I0
I1
sI1
I1
sI-1
I1
sssI1
(dp178
g18
(dp179
I0
I1
sI1
I1
sI-1
I1
sssI-1
(dp180
g15
(dp181
I0
I1
sI1
I1
sI-1
I1
sssssI-1
(dp182
g6
(dp183
I0
(dp184
g12
(dp185
I0
I-1
sI1
I-1
sI-1
I-1
sssI1
(dp186
g12
(dp187
I0
I1
sI1
I1
sI-1
I-1
sssI-1
I-1
ssssa(dp188
g2
F1.1289706252586904
sg3
(dp189
I0
(dp190
g6
(dp191
I0
(dp192
g9
(dp193
I0
I-1
sI1
I-1
sI-1
I1
sssI1
I-1
sI-1
I-1
sssI1
(dp194
g12
(dp195
I0
(dp196
g18
(dp197
I0
I-1
sI1
I1
sI-1
I1
sssI1
(dp198
g18
(dp199
I0
I1
sI1
I1
sI-1
I1
sssI-1
(dp200
g18
(dp201
I0
I-1
sI1
I1
sI-1
I1
sssssI-1
(dp202
g6
(dp203
I0
(dp204
g12
(dp205
I0
I-1
sI1
I-1
sI-1
I-1
sssI1
(dp206
g12
(dp207
I0
I1
sI1
I1
sI-1
I-1
sssI-1
I-1
ssssa(dp208
g2
F1.1193230806931167
sg3
(dp209
I0
(dp210
g6
(dp211
I0
(dp212
g9
(dp213
I0
I-1
sI1
I-1
sI-1
I1
sssI1
I-1
sI-1
I-1
sssI1
(dp214
g12
(dp215
I0
(dp216
g15
(dp217
I0
I1
sI1
I1
sI-1
I1
sssI1
(dp218
g18
(dp219
I0
I1
sI1
I1
sI-1
I1
sssI-1
(dp220
g15
(dp221
I0
I1
sI1
I1
sI-1
I1
sssssI-1
(dp222
g6
(dp223
I0
(dp224
g12
(dp225
I0
I-1
sI1
I-1
sI-1
I-1
sssI1
(dp226
g12
(dp227
I0
I1
sI1
I1
sI-1
I-1
sssI-1
I-1
ssssa(dp228
g2
F1.1289706252586904
sg3
(dp229
I0
(dp230
g6
(dp231
I0
(dp232
g9
(dp233
I0
I-1
sI1
I-1
sI-1
I1
sssI1
I-1
sI-1
I-1
sssI1
(dp234
g12
(dp235
I0
(dp236
g18
(dp237
I0
I-1
sI1
I1
sI-1
I1
sssI1
(dp238
g18
(dp239
I0
I1
sI1
I1
sI-1
I1
sssI-1
(dp240
g18
(dp241
I0
I-1
sI1
I1
sI-1
I1
sssssI-1
(dp242
g6
(dp243
I0
(dp244
g12
(dp245
I0
I-1
sI1
I-1
sI-1
I-1
sssI1
(dp246
g12
(dp247
I0
I1
sI1
I1
sI-1
I-1
sssI-1
I-1
ssssa(dp248
g2
F1.1193230806931167
sg3
(dp249
I0
(dp250
g6
(dp251
I0
(dp252
g9
(dp253
I0
I-1
sI1
I-1
sI-1
I1
sssI1
I-1
sI-1
I-1
sssI1
(dp254
g12
(dp255
I0
(dp256
g15
(dp257
I0
I1
sI1
I1
sI-1
I1
sssI1
(dp258
g18
(dp259
I0
I1
sI1
I1
sI-1
I1
sssI-1
(dp260
g15
(dp261
I0
I1
sI1
I1
sI-1
I1
sssssI-1
(dp262
g6
(dp263
I0
(dp264
g12
(dp265
I0
I-1
sI1
I-1
sI-1
I-1
sssI1
(dp266
g12
(dp267
I0
I1
sI1
I1
sI-1
I-1
sssI-1
I-1
ssssa(dp268
g2
F1.1289706252586904
sg3
(dp269
I0
(dp270
g6
(dp271
I0
(dp272
g9
(dp273
I0
I-1
sI1
I-1
sI-1
I1
sssI1
I-1
sI-1
I-1
sssI1
(dp274
g12
(dp275
I0
(dp276
g18
(dp277
I0
I-1
sI1
I1
sI-1
I1
sssI1
(dp278
g18
(dp279
I0
I1
sI1
I1
sI-1
I1
sssI-1
(dp280
g18
(dp281
I0
I-1
sI1
I1
sI-1
I1
sssssI-1
(dp282
g6
(dp283
I0
(dp284
g12
(dp285
I0
I-1
sI1
I-1
sI-1
I-1
sssI1
(dp286
g12
(dp287
I0
I1
sI1
I1
sI-1
I-1
sssI-1
I-1
ssssa(dp288
g2
F1.1193230806931167
sg3
(dp289
I0
(dp290
g6
(dp291
I0
(dp292
g9
(dp293
I0
I-1
sI1
I-1
sI-1
I1
sssI1
I-1
sI-1
I-1
sssI1
(dp294
g12
(dp295
I0
(dp296
g15
(dp297
I0
I1
sI1
I1
sI-1
I1
sssI1
(dp298
g18
(dp299
I0
I1
sI1
I1
sI-1
I1
sssI-1
(dp300
g15
(dp301
I0
I1
sI1
I1
sI-1
I1
sssssI-1
(dp302
g6
(dp303
I0
(dp304
g12
(dp305
I0
I-1
sI1
I-1
sI-1
I-1
sssI1
(dp306
g12
(dp307
I0
I1
sI1
I1
sI-1
I-1
sssI-1
I-1
ssssa(dp308
g2
F1.1289706252586904
sg3
(dp309
I0
(dp310
g6
(dp311
I0
(dp312
g9
(dp313
I0
I-1
sI1
I-1
sI-1
I1
sssI1
I-1
sI-1
I-1
sssI1
(dp314
g12
(dp315
I0
(dp316
g18
(dp317
I0
I-1
sI1
I1
sI-1
I1
sssI1
(dp318
g18
(dp319
I0
I1
sI1
I1
sI-1
I1
sssI-1
(dp320
g18
(dp321
I0
I-1
sI1
I1
sI-1
I1
sssssI-1
(dp322
g6
(dp323
I0
(dp324
g12
(dp325
I0
I-1
sI1
I-1
sI-1
I-1
sssI1
(dp326
g12
(dp327
I0
I1
sI1
I1
sI-1
I-1
sssI-1
I-1
ssssa(dp328
g2
F1.1193230806931167
sg3
(dp329
I0
(dp330
g6
(dp331
I0
(dp332
g9
(dp333
I0
I-1
sI1
I-1
sI-1
I1
sssI1
I-1
sI-1
I-1
sssI1
(dp334
g12
(dp335
I0
(dp336
g15
(dp337
I0
I1
sI1
I1
sI-1
I1
sssI1
(dp338
g18
(dp339
I0
I1
sI1
I1
sI-1
I1
sssI-1
(dp340
g15
(dp341
I0
I1
sI1
I1
sI-1
I1
sssssI-1
(dp342
g6
(dp343
I0
(dp344
g12
(dp345
I0
I-1
sI1
I-1
sI-1
I-1
sssI1
(dp346
g12
(dp347
I0
I1
sI1
I1
sI-1
I-1
sssI-1
I-1
ssssa(dp348
g2
F1.1289706252586904
sg3
(dp349
I0
(dp350
g6
(dp351
I0
(dp352
g9
(dp353
I0
I-1
sI1
I-1
sI-1
I1
sssI1
I-1
sI-1
I-1
sssI1
(dp354
g12
(dp355
I0
(dp356
g18
(dp357
I0
I-1
sI1
I1
sI-1
I1
sssI1
(dp358
g18
(dp359
I0
I1
sI1
I1
sI-1
I1
sssI-1
(dp360
g18
(dp361
I0
I-1
sI1
I1
sI-1
I1
sssssI-1
(dp362
g6
(dp363
I0
(dp364
g12
(dp365
I0
I-1
sI1
I-1
sI-1
I-1
sssI1
(dp366
g12
(dp367
I0
I1
sI1
I1
sI-1
I-1
sssI-1
I-1
ssssa(dp368
g2
F1.1193230806931167
sg3
(dp369
I0
(dp370
g6
(dp371
I0
(dp372
g9
(dp373
I0
I-1
sI1
I-1
sI-1
I1
sssI1
I-1
sI-1
I-1
sssI1
(dp374
g12
(dp375
I0
(dp376
g15
(dp377
I0
I1
sI1
I1
sI-1
I1
sssI1
(dp378
g18
(dp379
I0
I1
sI1
I1
sI-1
I1
sssI-1
(dp380
g15
(dp381
I0
I1
sI1
I1
sI-1
I1
sssssI-1
(dp382
g6
(dp383
I0
(dp384
g12
(dp385
I0
I-1
sI1
I-1
sI-1
I-1
sssI1
(dp386
g12
(dp387
I0
I1
sI1
I1
sI-1
I-1
sssI-1
I-1
ssssa(dp388
g2
F1.1289706252586904
sg3
(dp389
I0
(dp390
g6
(dp391
I0
(dp392
g9
(dp393
I0
I-1
sI1
I-1
sI-1
I1
sssI1
I-1
sI-1
I-1
sssI1
(dp394
g12
(dp395
I0
(dp396
g18
(dp397
I0
I-1
sI1
I1
sI-1
I1
sssI1
(dp398
g18
(dp399
I0
I1
sI1
I1
sI-1
I1
sssI-1
(dp400
g18
(dp401
I0
I-1
sI1
I1
sI-1
I1
sssssI-1
(dp402
g6
(dp403
I0
(dp404
g12
(dp405
I0
I-1
sI1
I-1
sI-1
I-1
sssI1
(dp406
g12
(dp407
I0
I1
sI1
I1
sI-1
I-1
sssI-1
I-1
ssssa(dp408
g2
F1.1193230806931167
sg3
(dp409
I0
(dp410
g6
(dp411
I0
(dp412
g9
(dp413
I0
I-1
sI1
I-1
sI-1
I1
sssI1
I-1
sI-1
I-1
sssI1
(dp414
g12
(dp415
I0
(dp416
g15
(dp417
I0
I1
sI1
I1
sI-1
I1
sssI1
(dp418
g18
(dp419
I0
I1
sI1
I1
sI-1
I1
sssI-1
(dp420
g15
(dp421
I0
I1
sI1
I1
sI-1
I1
sssssI-1
(dp422
g6
(dp423
I0
(dp424
g12
(dp425
I0
I-1
sI1
I-1
sI-1
I-1
sssI1
(dp426
g12
(dp427
I0
I1
sI1
I1
sI-1
I-1
sssI-1
I-1
ssssa(dp428
g2
F1.1289706252586904
sg3
(dp429
I0
(dp430
g6
(dp431
I0
(dp432
g9
(dp433
I0
I-1
sI1
I-1
sI-1
I1
sssI1
I-1
sI-1
I-1
sssI1
(dp434
g12
(dp435
I0
(dp436
g18
(dp437
I0
I-1
sI1
I1
sI-1
I1
sssI1
(dp438
g18
(dp439
I0
I1
sI1
I1
sI-1
I1
sssI-1
(dp440
g18
(dp441
I0
I-1
sI1
I1
sI-1
I1
sssssI-1
(dp442
g6
(dp443
I0
(dp444
g12
(dp445
I0
I-1
sI1
I-1
sI-1
I-1
sssI1
(dp446
g12
(dp447
I0
I1
sI1
I1
sI-1
I-1
sssI-1
I-1
ssssa(dp448
g2
F1.1193230806931167
sg3
(dp449
I0
(dp450
g6
(dp451
I0
(dp452
g9
(dp453
I0
I-1
sI1
I-1
sI-1
I1
sssI1
I-1
sI-1
I-1
sssI1
(dp454
g12
(dp455
I0
(dp456
g15
(dp457
I0
I1
sI1
I1
sI-1
I1
sssI1
(dp458
g18
(dp459
I0
I1
sI1
I1
sI-1
I1
sssI-1
(dp460
g15
(dp461
I0
I1
sI1
I1
sI-1
I1
sssssI-1
(dp462
g6
(dp463
I0
(dp464
g12
(dp465
I0
I-1
sI1
I-1
sI-1
I-1
sssI1
(dp466
g12
(dp467
I0
I1
sI1
I1
sI-1
I-1
sssI-1
I-1
ssssa(dp468
g2
F1.1289706252586904
sg3
(dp469
I0
(dp470
g6
(dp471
I0
(dp472
g9
(dp473
I0
I-1
sI1
I-1
sI-1
I1
sssI1
I-1
sI-1
I-1
sssI1
(dp474
g12
(dp475
I0
(dp476
g18
(dp477
I0
I-1
sI1
I1
sI-1
I1
sssI1
(dp478
g18
(dp479
I0
I1
sI1
I1
sI-1
I1
sssI-1
(dp480
g18
(dp481
I0
I-1
sI1
I1
sI-1
I1
sssssI-1
(dp482
g6
(dp483
I0
(dp484
g12
(dp485
I0
I-1
sI1
I-1
sI-1
I-1
sssI1
(dp486
g12
(dp487
I0
I1
sI1
I1
sI-1
I-1
sssI-1
I-1
ssssa(dp488
g2
F1.1193230806931167
sg3
(dp489
I0
(dp490
g6
(dp491
I0
(dp492
g9
(dp493
I0
I-1
sI1
I-1
sI-1
I1
sssI1
I-1
sI-1
I-1
sssI1
(dp494
g12
(dp495
I0
(dp496
g15
(dp497
I0
I1
sI1
I1
sI-1
I1
sssI1
(dp498
g18
(dp499
I0
I1
sI1
I1
sI-1
I1
sssI-1
(dp500
g15
(dp501
I0
I1
sI1
I1
sI-1
I1
sssssI-1
(dp502
g6
(dp503
I0
(dp504
g12
(dp505
I0
I-1
sI1
I-1
sI-1
I-1
sssI1
(dp506
g12
(dp507
I0
I1
sI1
I1
sI-1
I-1
sssI-1
I-1
ssssa(dp508
g2
F1.1289706252586904
sg3
(dp509
I0
(dp510
g6
(dp511
I0
(dp512
g9
(dp513
I0
I-1
sI1
I-1
sI-1
I1
sssI1
I-1
sI-1
I-1
sssI1
(dp514
g12
(dp515
I0
(dp516
g18
(dp517
I0
I-1
sI1
I1
sI-1
I1
sssI1
(dp518
g18
(dp519
I0
I1
sI1
I1
sI-1
I1
sssI-1
(dp520
g18
(dp521
I0
I-1
sI1
I1
sI-1
I1
sssssI-1
(dp522
g6
(dp523
I0
(dp524
g12
(dp525
I0
I-1
sI1
I-1
sI-1
I-1
sssI1
(dp526
g12
(dp527
I0
I1
sI1
I1
sI-1
I-1
sssI-1
I-1
ssssa(dp528
g2
F1.1193230806931167
sg3
(dp529
I0
(dp530
g6
(dp531
I0
(dp532
g9
(dp533
I0
I-1
sI1
I-1
sI-1
I1
sssI1
I-1
sI-1
I-1
sssI1
(dp534
g12
(dp535
I0
(dp536
g15
(dp537
I0
I1
sI1
I1
sI-1
I1
sssI1
(dp538
g18
(dp539
I0
I1
sI1
I1
sI-1
I1
sssI-1
(dp540
g15
(dp541
I0
I1
sI1
I1
sI-1
I1
sssssI-1
(dp542
g6
(dp543
I0
(dp544
g12
(dp545
I0
I-1
sI1
I-1
sI-1
I-1
sssI1
(dp546
g12
(dp547
I0
I1
sI1
I1
sI-1
I-1
sssI-1
I-1
ssssa(dp548
g2
F1.1289706252586904
sg3
(dp549
I0
(dp550
g6
(dp551
I0
(dp552
g9
(dp553
I0
I-1
sI1
I-1
sI-1
I1
sssI1
I-1
sI-1
I-1
sssI1
(dp554
g12
(dp555
I0
(dp556
g18
(dp557
I0
I-1
sI1
I1
sI-1
I1
sssI1
(dp558
g18
(dp559
I0
I1
sI1
I1
sI-1
I1
sssI-1
(dp560
g18
(dp561
I0
I-1
sI1
I1
sI-1
I1
sssssI-1
(dp562
g6
(dp563
I0
(dp564
g12
(dp565
I0
I-1
sI1
I-1
sI-1
I-1
sssI1
(dp566
g12
(dp567
I0
I1
sI1
I1
sI-1
I-1
sssI-1
I-1
ssssa(dp568
g2
F1.1193230806931167
sg3
(dp569
I0
(dp570
g6
(dp571
I0
(dp572
g9
(dp573
I0
I-1
sI1
I-1
sI-1
I1
sssI1
I-1
sI-1
I-1
sssI1
(dp574
g12
(dp575
I0
(dp576
g15
(dp577
I0
I1
sI1
I1
sI-1
I1
sssI1
(dp578
g18
(dp579
I0
I1
sI1
I1
sI-1
I1
sssI-1
(dp580
g15
(dp581
I0
I1
sI1
I1
sI-1
I1
sssssI-1
(dp582
g6
(dp583
I0
(dp584
g12
(dp585
I0
I-1
sI1
I-1
sI-1
I-1
sssI1
(dp586
g12
(dp587
I0
I1
sI1
I1
sI-1
I-1
sssI-1
I-1
ssssa(dp588
g2
F1.1289706252586904
sg3
(dp589
I0
(dp590
g6
(dp591
I0
(dp592
g9
(dp593
I0
I-1
sI1
I-1
sI-1
I1
sssI1
I-1
sI-1
I-1
sssI1
(dp594
g12
(dp595
I0
(dp596
g18
(dp597
I0
I-1
sI1
I1
sI-1
I1
sssI1
(dp598
g18
(dp599
I0
I1
sI1
I1
sI-1
I1
sssI-1
(dp600
g18
(dp601
I0
I-1
sI1
I1
sI-1
I1
sssssI-1
(dp602
g6
(dp603
I0
(dp604
g12
(dp605
I0
I-1
sI1
I-1
sI-1
I-1
sssI1
(dp606
g12
(dp607
I0
I1
sI1
I1
sI-1
I-1
sssI-1
I-1
ssssa.