(lp0
(dp1
S'alpha'
p2
F1.107940917470381
sS'SSLfinal_State'
p3
(dp4
I0
(dp5
S'URL_of_Anchor'
p6
(dp7
I0
(dp8
S'having_Sub_Domain'
p9
(dp10
I0
I-1
sI1
I1
sI-1
I-1
sssI1
I-1
sI-1
I-1
sssI1
(dp11
g9
(dp12
I0
(dp13
S'Links_in_tags'
p14
(dp15
I0
I1
sI1
I1
sI-1
I1
sssI1
(dp16
S'web_traffic'
p17
(dp18
I0
I1
sI1
I1
sI-1
I1
sssI-1
(dp19
g17
(dp20
I0
I-1
sI1
I1
sI-1
I1
sssssI-1
(dp21
g6
(dp22
I0
(dp23
g9
(dp24
I0
I-1
sI1
I-1
sI-1
I-1
sssI1
(dp25
g14
(dp26
I0
I1
sI1
I1
sI-1
I-1
sssI-1
I-1
ssssa(dp27
g2
F1.0967631741345645
sg3
(dp28
I0
(dp29
S'Links_pointing_to_page'
p30
(dp31
I0
(dp32
g6
(dp33
I0
I-1
sI1
I-1
sI-1
I-1
sssI1
I-1
sI-1
(dp34
g6
(dp35
I0
I1
sI-1
I-1
sssssI1
(dp36
g9
(dp37
I0
(dp38
g14
(dp39
I0
I1
sI1
I1
sI-1
I1
sssI1
(dp40
g17
(dp41
I0
I1
sI1
I1
sI-1
I1
sssI-1
(dp42
g14
(dp43
I0
I1
sI1
I1
sI-1
I1
sssssI-1
(dp44
g6
(dp45
I0
(dp46
g9
(dp47
I0
I-1
sI1
I-1
sI-1
I-1
sssI1
(dp48
g14
(dp49
I0
I1
sI1
I1
sI-1
I-1
sssI-1
I-1
ssssa(dp50
g2
F1.0678945382741718
sg3
(dp51
I0
(dp52
g30
(dp53
I0
(dp54
g6
(dp55
I0
I-1
sI1
I-1
sI-1
I-1
sssI1
I-1
sI-1
(dp56
g6
(dp57
I0
I1
sI-1
I-1
sssssI1
(dp58
g9
(dp59
I0
(dp60
g14
(dp61
I0
I1
sI1
I1
sI-1
I1
sssI1
(dp62
g17
(dp63
I0
I1
sI1
I1
sI-1
I1
sssI-1
(dp64
g14
(dp65
I0
I1
sI1
I1
sI-1
I1
sssssI-1
(dp66
g9
(dp67
I0
(dp68
g6
(dp69
I0
I-1
sI1
I1
sI-1
I-1
sssI1
(dp70
g17
(dp71
I0
I-1
sI1
I-1
sI-1
I-1
sssI-1
(dp72
g14
(dp73
I0
I-1
sI1
I-1
sI-1
I-1
ssssssa(dp74
g2
F1.0678945382741718
sg3
(dp75
I0
(dp76
g30
(dp77
I0
(dp78
S'Page_Rank'
p79
(dp80
I1
I-1
sI-1
I-1
sssI1
I-1
sI-1
(dp81
g6
(dp82
I0
I1
sI-1
I-1
sssssI1
(dp83
g9
(dp84
I0
(dp85
g14
(dp86
I0
I1
sI1
I1
sI-1
I1
sssI1
(dp87
g17
(dp88
I0
I1
sI1
I1
sI-1
I1
sssI-1
(dp89
g14
(dp90
I0
I1
sI1
I1
sI-1
I1
sssssI-1
(dp91
g9
(dp92
I0
(dp93
g6
(dp94
I0
I-1
sI1
I1
sI-1
I-1
sssI1
(dp95
g17
(dp96
I0
I-1
sI1
I-1
sI-1
I-1
sssI-1
(dp97
g14
(dp98
I0
I-1
sI1
I-1
sI-1
I-1
ssssssa(dp99
g2
F1.0678945382741718
sg3
(dp100
I0
(dp101
g30
(dp102
I0
(dp103
g79
(dp104
I1
I-1
sI-1
I-1
sssI1
I-1
sI-1
(dp105
g6
(dp106
I0
I1
sI-1
I-1
sssssI1
(dp107
g9
(dp108
I0
(dp109
g14
(dp110
I0
I1
sI1
I1
sI-1
I1
sssI1
(dp111
g17
(dp112
I0
I1
sI1
I1
sI-1
I1
sssI-1
(dp113
g14
(dp114
I0
I1
sI1
I1
sI-1
I1
sssssI-1
(dp115
g9
(dp116
I0
(dp117
g6
(dp118
I0
I-1
sI1
I1
sI-1
I-1
sssI1
(dp119
g17
(dp120
I0
I-1
sI1
I-1
sI-1
I-1
sssI-1
(dp121
g14
(dp122
I0
I-1
sI1
I-1
sI-1
I-1
ssssssa(dp123
g2
F1.0678945382741718
sg3
(dp124
I0
(dp125
g30
(dp126
I0
(dp127
g79
(dp128
I1
I-1
sI-1
I-1
sssI1
I-1
sI-1
(dp129
g6
(dp130
I0
I1
sI-1
I-1
sssssI1
(dp131
g9
(dp132
I0
(dp133
g14
(dp134
I0
I1
sI1
I1
sI-1
I1
sssI1
(dp135
g17
(dp136
I0
I1
sI1
I1
sI-1
I1
sssI-1
(dp137
g14
(dp138
I0
I1
sI1
I1
sI-1
I1
sssssI-1
(dp139
g9
(dp140
I0
(dp141
g6
(dp142
I0
I-1
sI1
I1
sI-1
I-1
sssI1
(dp143
g17
(dp144
I0
I-1
sI1
I-1
sI-1
I-1
sssI-1
(dp145
g14
(dp146
I0
I-1
sI1
I-1
sI-1
I-1
ssssssa(dp147
g2
F1.0678945382741718
sg3
(dp148
I0
(dp149
g30
(dp150
I0
(dp151
g79
(dp152
I1
I-1
sI-1
I-1
sssI1
I-1
sI-1
(dp153
g6
(dp154
I0
I1
sI-1
I-1
sssssI1
(dp155
g9
(dp156
I0
(dp157
g14
(dp158
I0
I1
sI1
I1
sI-1
I1
sssI1
(dp159
g17
(dp160
I0
I1
sI1
I1
sI-1
I1
sssI-1
(dp161
g14
(dp162
I0
I1
sI1
I1
sI-1
I1
sssssI-1
(dp163
g9
(dp164
I0
(dp165
g6
(dp166
I0
I-1
sI1
I1
sI-1
I-1
sssI1
(dp167
g17
(dp168
I0
I-1
sI1
I-1
sI-1
I-1
sssI-1
(dp169
g14
(dp170
I0
I-1
sI1
I-1
sI-1
I-1
ssssssa(dp171
g2
F1.0678945382741718
sg3
(dp172
I0
(dp173
g30
(dp174
I0
(dp175
g79
(dp176
I1
I-1
sI-1
I-1
sssI1
I-1
sI-1
(dp177
g6
(dp178
I0
I1
sI-1
I-1
sssssI1
(dp179
g9
(dp180
I0
(dp181
g14
(dp182
I0
I1
sI1
I1
sI-1
I1
sssI1
(dp183
g17
(dp184
I0
I1
sI1
I1
sI-1
I1
sssI-1
(dp185
g14
(dp186
I0
I1
sI1
I1
sI-1
I1
sssssI-1
(dp187
g9
(dp188
I0
(dp189
g6
(dp190
I0
I-1
sI1
I1
sI-1
I-1
sssI1
(dp191
g17
(dp192
I0
I-1
sI1
I-1
sI-1
I-1
sssI-1
(dp193
g14
(dp194
I0
I-1
sI1
I-1
sI-1
I-1
ssssssa(dp195
g2
F1.0678945382741718
sg3
(dp196
I0
(dp197
g30
(dp198
I0
(dp199
g79
(dp200
I1
I-1
sI-1
I-1
sssI1
I-1
sI-1
(dp201
g6
(dp202
I0
I1
sI-1
I-1
sssssI1
(dp203
g9
(dp204
I0
(dp205
g14
(dp206
I0
I1
sI1
I1
sI-1
I1
sssI1
(dp207
g17
(dp208
I0
I1
sI1
I1
sI-1
I1
sssI-1
(dp209
g14
(dp210
I0
I1
sI1
I1
sI-1
I1
sssssI-1
(dp211
g9
(dp212
I0
(dp213
g6
(dp214
I0
I-1
sI1
I1
sI-1
I-1
sssI1
(dp215
g17
(dp216
I0
I-1
sI1
I-1
sI-1
I-1
sssI-1
(dp217
g14
(dp218
I0
I-1
sI1
I-1
sI-1
I-1
ssssssa(dp219
g2
F1.0678945382741718
sg3
(dp220
I0
(dp221
g30
(dp222
I0
(dp223
g79
(dp224
I1
I-1
sI-1
I-1
sssI1
I-1
sI-1
(dp225
g6
(dp226
I0
I1
sI-1
I-1
sssssI1
(dp227
g9
(dp228
I0
(dp229
g14
(dp230
I0
I1
sI1
I1
sI-1
I1
sssI1
(dp231
g17
(dp232
I0
I1
sI1
I1
sI-1
I1
sssI-1
(dp233
g14
(dp234
I0
I1
sI1
I1
sI-1
I1
sssssI-1
(dp235
g9
(dp236
I0
(dp237
g6
(dp238
I0
I-1
sI1
I1
sI-1
I-1
sssI1
(dp239
g17
(dp240
I0
I-1
sI1
I-1
sI-1
I-1
sssI-1
(dp241
g14
(dp242
I0
I-1
sI1
I-1
sI-1
I-1
ssssssa.