(lp0
(dp1
S'index'
p2
I6
sS'right'
p3
(dp4
g2
I8
sg3
(dp5
g2
I7
sg3
(dp6
g2
I13
sg3
(dp7
g2
I27
sg3
(dp8
g2
I0
sg3
I1
sS'value'
p9
I1
sS'left'
p10
I1
ssg9
I1
sg10
(dp11
g2
I12
sg3
I1
sg9
I1
sg10
I1
sssg9
I0
sg10
I-1
ssg9
I1
sg10
(dp12
g2
I13
sg3
(dp13
g2
I11
sg3
(dp14
g2
I25
sg3
I-1
sg9
I0
sg10
I1
ssg9
I1
sg10
(dp15
g2
I23
sg3
I-1
sg9
I1
sg10
I-1
sssg9
I0
sg10
(dp16
g2
I0
sg3
(dp17
g2
I20
sg3
I-1
sg9
I1
sg10
I-1
ssg9
I1
sg10
(dp18
g2
I9
sg3
I-1
sg9
I1
sg10
I-1
sssssg9
I1
sg10
(dp19
g2
I25
sg3
(dp20
g2
I20
sg3
(dp21
g2
I18
sg3
(dp22
g2
I5
sg3
I1
sg9
I1
sg10
I1
ssg9
I1
sg10
(dp23
g2
I21
sg3
I1
sg9
I1
sg10
I1
sssg9
I1
sg10
(dp24
g2
I6
sg3
I1
sg9
I1
sg10
I1
sssg9
I1
sg10
(dp25
g2
I24
sg3
(dp26
g2
I25
sg3
(dp27
g2
I13
sg3
I1
sg9
I0
sg10
I-1
ssg9
I0
sg10
(dp28
g2
I13
sg3
I1
sg9
I0
sg10
I-1
sssg9
I1
sg10
(dp29
g2
I7
sg3
(dp30
g2
I0
sg3
I1
sg9
I1
sg10
I1
ssg9
I1
sg10
(dp31
g2
I14
sg3
I-1
sg9
I1
sg10
I-1
ssssssg9
I1
sg10
(dp32
g2
I8
sg3
(dp33
g2
I13
sg3
(dp34
g2
I5
sg3
(dp35
g2
I15
sg3
I1
sg9
I-1
sg10
I1
ssg9
I1
sg10
(dp36
g2
I2
sg3
(dp37
g2
I0
sg3
I1
sg9
I1
sg10
I-1
ssg9
I1
sg10
(dp38
g2
I18
sg3
I1
sg9
I1
sg10
I1
ssssg9
I0
sg10
(dp39
g2
I4
sg3
(dp40
g2
I14
sg3
(dp41
g2
I19
sg3
I-1
sg9
I-1
sg10
I-1
ssg9
I0
sg10
(dp42
g2
I11
sg3
I-1
sg9
I1
sg10
I-1
sssg9
I1
sg10
(dp43
g2
I24
sg3
I-1
sg9
I-1
sg10
I-1
ssssg9
I1
sg10
(dp44
g2
I7
sg3
(dp45
g2
I0
sg3
(dp46
g2
I5
sg3
(dp47
g2
I12
sg3
I1
sg9
I1
sg10
I1
ssg9
I1
sg10
(dp48
g2
I26
sg3
I1
sg9
I1
sg10
I1
sssg9
I1
sg10
(dp49
g2
I24
sg3
(dp50
g2
I25
sg3
I1
sg9
I1
sg10
I1
ssg9
I1
sg10
(dp51
g2
I11
sg3
I1
sg9
I1
sg10
I1
ssssg9
I1
sg10
(dp52
g2
I7
sg3
(dp53
g2
I24
sg3
I-1
sg9
I-1
sg10
I-1
ssg9
I0
sg10
(dp54
g2
I12
sg3
(dp55
g2
I13
sg3
I-1
sg9
I0
sg10
I-1
ssg9
I1
sg10
(dp56
g2
I3
sg3
I-1
sg9
I-1
sg10
I-1
ssssssa(dp57
g2
I25
sg3
(dp58
g2
I15
sg3
(dp59
g2
I7
sg3
(dp60
g2
I16
sg3
(dp61
g2
I6
sg3
I1
sg9
I-1
sg10
I1
ssg9
I1
sg10
(dp62
g2
I0
sg3
(dp63
g2
I28
sg3
I1
sg9
I0
sg10
I1
ssg9
I1
sg10
(dp64
g2
I29
sg3
I1
sg9
I1
sg10
I1
ssssg9
I1
sg10
(dp65
g2
I20
sg3
(dp66
g2
I12
sg3
(dp67
g2
I23
sg3
I1
sg9
I1
sg10
I1
ssg9
I1
sg10
(dp68
g2
I27
sg3
I-1
sg9
I1
sg10
I-1
sssg9
I1
sg10
(dp69
g2
I28
sg3
I-1
sg9
I1
sg10
I-1
ssssg9
I0
sg10
(dp70
g2
I10
sg3
(dp71
g2
I13
sg3
(dp72
g2
I2
sg3
(dp73
g2
I22
sg3
I1
sg9
I1
sg10
I1
ssg9
I1
sg10
(dp74
g2
I21
sg3
I1
sg9
I1
sg10
I-1
sssg9
I0
sg10
(dp75
g2
I6
sg3
(dp76
g2
I12
sg3
I-1
sg9
I-1
sg10
I-1
ssg9
I0
sg10
(dp77
g2
I0
sg3
I-1
sg9
I1
sg10
I-1
ssssg9
I1
sg10
(dp78
g2
I0
sg3
(dp79
g2
I6
sg3
(dp80
g2
I14
sg3
I1
sg9
I1
sg10
I1
ssg9
I1
sg10
(dp81
g2
I5
sg3
I1
sg9
I1
sg10
I1
sssg9
I1
sg10
(dp82
g2
I13
sg3
(dp83
g2
I11
sg3
I1
sg9
I1
sg10
I-1
ssg9
I0
sg10
(dp84
g2
I3
sg3
I-1
sg9
I-1
sg10
I-1
ssssssg9
I1
sg10
(dp85
g2
I12
sg3
(dp86
g2
I29
sg3
(dp87
g2
I13
sg3
(dp88
g2
I15
sg3
(dp89
g2
I25
sg3
I1
sg9
I0
sg10
I1
ssg9
I0
sg10
(dp90
g2
I14
sg3
I1
sg9
I0
sg10
I1
sssg9
I0
sg10
(dp91
g2
I5
sg3
I-1
sg9
I-1
sg10
I-1
sssg9
I1
sg10
(dp92
g2
I15
sg3
(dp93
g2
I13
sg3
(dp94
g2
I21
sg3
I1
sg9
I-1
sg10
I1
ssg9
I0
sg10
(dp95
g2
I26
sg3
I-1
sg9
I-1
sg10
I-1
sssg9
I1
sg10
(dp96
g2
I24
sg3
(dp97
g2
I7
sg3
I1
sg9
I1
sg10
I-1
ssg9
I1
sg10
(dp98
g2
I7
sg3
I-1
sg9
I1
sg10
I-1
sssssg9
I1
sg10
(dp99
g2
I7
sg3
(dp100
g2
I25
sg3
(dp101
g2
I5
sg3
(dp102
g2
I19
sg3
I1
sg9
I1
sg10
I1
ssg9
I1
sg10
(dp103
g2
I1
sg3
I-1
sg9
I1
sg10
I1
sssg9
I0
sg10
(dp104
g2
I1
sg3
(dp105
g2
I0
sg3
I1
sg9
I1
sg10
I-1
ssg9
I1
sg10
(dp106
g2
I14
sg3
I1
sg9
I1
sg10
I1
ssssg9
I1
sg10
(dp107
g2
I19
sg3
(dp108
g2
I24
sg3
(dp109
g2
I13
sg3
I-1
sg9
I0
sg10
I-1
ssg9
I1
sg10
(dp110
g2
I21
sg3
I-1
sg9
I1
sg10
I-1
sssg9
I1
sg10
(dp111
g2
I3
sg3
I-1
sg9
I-1
sg10
I-1
sssssa(dp112
g2
I0
sg3
(dp113
g2
I13
sg3
(dp114
g2
I25
sg3
(dp115
g2
I12
sg3
(dp116
g2
I10
sg3
(dp117
g2
I27
sg3
I1
sg9
I1
sg10
I1
ssg9
I1
sg10
(dp118
g2
I9
sg3
I1
sg9
I-1
sg10
I1
sssg9
I1
sg10
(dp119
g2
I13
sg3
(dp120
g2
I13
sg3
I1
sg9
I1
sg10
I1
ssg9
I1
sg10
(dp121
g2
I6
sg3
I1
sg9
I0
sg10
I1
ssssg9
I1
sg10
(dp122
g2
I15
sg3
(dp123
g2
I7
sg3
(dp124
g2
I24
sg3
I1
sg9
I1
sg10
I1
ssg9
I1
sg10
(dp125
g2
I28
sg3
I-1
sg9
I0
sg10
I-1
sssg9
I1
sg10
(dp126
g2
I5
sg3
(dp127
g2
I25
sg3
I1
sg9
I-1
sg10
I1
ssg9
I1
sg10
(dp128
g2
I25
sg3
I-1
sg9
I0
sg10
I1
sssssg9
I0
sg10
(dp129
g2
I25
sg3
(dp130
g2
I6
sg3
(dp131
g2
I2
sg3
(dp132
g2
I7
sg3
I-1
sg9
I-1
sg10
I-1
ssg9
I1
sg10
I-1
ssg9
I0
sg10
(dp133
g2
I16
sg3
(dp134
g2
I29
sg3
I-1
sg9
I1
sg10
I1
ssg9
I1
sg10
(dp135
g2
I19
sg3
I-1
sg9
I-1
sg10
I-1
ssssg9
I1
sg10
(dp136
g2
I20
sg3
(dp137
g2
I23
sg3
I-1
sg9
I-1
sg10
I-1
ssg9
I1
sg10
(dp138
g2
I8
sg3
(dp139
g2
I26
sg3
I-1
sg9
I-1
sg10
I-1
ssg9
I1
sg10
(dp140
g2
I7
sg3
I-1
sg9
I-1
sg10
I-1
ssssssg9
I1
sg10
(dp141
g2
I2
sg3
(dp142
g2
I9
sg3
(dp143
g2
I27
sg3
(dp144
g2
I3
sg3
(dp145
g2
I5
sg3
I1
sg9
I1
sg10
I-1
ssg9
I1
sg10
(dp146
g2
I15
sg3
I1
sg9
I0
sg10
I-1
sssg9
I1
sg10
(dp147
g2
I7
sg3
(dp148
g2
I23
sg3
I-1
sg9
I1
sg10
I1
ssg9
I1
sg10
(dp149
g2
I20
sg3
I-1
sg9
I1
sg10
I-1
ssssg9
I1
sg10
(dp150
g2
I8
sg3
(dp151
g2
I6
sg3
(dp152
g2
I19
sg3
I1
sg9
I1
sg10
I1
ssg9
I1
sg10
(dp153
g2
I3
sg3
I1
sg9
I1
sg10
I-1
sssg9
I1
sg10
(dp154
g2
I13
sg3
(dp155
g2
I29
sg3
I1
sg9
I1
sg10
I-1
ssg9
I0
sg10
(dp156
g2
I28
sg3
I-1
sg9
I0
sg10
I-1
sssssg9
I1
sg10
(dp157
g2
I16
sg3
(dp158
g2
I19
sg3
(dp159
g2
I7
sg3
(dp160
g2
I17
sg3
I1
sg9
I1
sg10
I1
ssg9
I1
sg10
(dp161
g2
I13
sg3
I1
sg9
I0
sg10
I-1
sssg9
I1
sg10
(dp162
g2
I24
sg3
(dp163
g2
I27
sg3
I1
sg9
I1
sg10
I1
ssg9
I1
sg10
(dp164
g2
I5
sg3
I-1
sg9
I-1
sg10
I-1
ssssg9
I1
sg10
(dp165
g2
I13
sg3
(dp166
g2
I16
sg3
I1
sg9
I-1
sg10
I1
ssg9
I1
sg10
(dp167
g2
I25
sg3
(dp168
g2
I12
sg3
I-1
sg9
I1
sg10
I-1
ssg9
I1
sg10
(dp169
g2
I20
sg3
I-1
sg9
I1
sg10
I-1
ssssssa(dp170
g2
I25
sg3
(dp171
g2
I5
sg3
(dp172
g2
I26
sg3
(dp173
g2
I25
sg3
I1
sg9
I1
sg10
I1
ssg9
I1
sg10
(dp174
g2
I19
sg3
(dp175
g2
I7
sg3
(dp176
g2
I21
sg3
I1
sg9
I1
sg10
I1
ssg9
I1
sg10
(dp177
g2
I10
sg3
I1
sg9
I1
sg10
I1
sssg9
I1
sg10
(dp178
g2
I21
sg3
I1
sg9
I-1
sg10
I1
ssssg9
I1
sg10
(dp179
g2
I7
sg3
(dp180
g2
I13
sg3
(dp181
g2
I15
sg3
(dp182
g2
I6
sg3
I1
sg9
I1
sg10
I1
ssg9
I0
sg10
(dp183
g2
I29
sg3
I1
sg9
I1
sg10
I1
sssg9
I0
sg10
(dp184
g2
I18
sg3
(dp185
g2
I20
sg3
I-1
sg9
I-1
sg10
I-1
ssg9
I1
sg10
(dp186
g2
I29
sg3
I-1
sg9
I1
sg10
I-1
ssssg9
I1
sg10
(dp187
g2
I14
sg3
(dp188
g2
I13
sg3
(dp189
g2
I5
sg3
I1
sg9
I-1
sg10
I1
ssg9
I1
sg10
(dp190
g2
I24
sg3
I-1
sg9
I1
sg10
I-1
sssg9
I0
sg10
(dp191
g2
I26
sg3
(dp192
g2
I18
sg3
I-1
sg9
I0
sg10
I-1
ssg9
I1
sg10
(dp193
g2
I8
sg3
I-1
sg9
I1
sg10
I-1
ssssssg9
I1
sg10
(dp194
g2
I7
sg3
(dp195
g2
I6
sg3
(dp196
g2
I25
sg3
(dp197
g2
I12
sg3
(dp198
g2
I17
sg3
I1
sg9
I1
sg10
I1
ssg9
I1
sg10
(dp199
g2
I1
sg3
I1
sg9
I-1
sg10
I1
sssg9
I0
sg10
(dp200
g2
I14
sg3
(dp201
g2
I6
sg3
I1
sg9
I1
sg10
I1
ssg9
I1
sg10
(dp202
g2
I15
sg3
I1
sg9
I1
sg10
I1
ssssg9
I1
sg10
(dp203
g2
I13
sg3
(dp204
g2
I14
sg3
(dp205
g2
I13
sg3
I1
sg9
I1
sg10
I1
ssg9
I0
sg10
(dp206
g2
I23
sg3
I1
sg9
I1
sg10
I1
sssg9
I0
sg10
(dp207
g2
I11
sg3
(dp208
g2
I3
sg3
I-1
sg9
I1
sg10
I-1
ssg9
I1
sg10
(dp209
g2
I15
sg3
I-1
sg9
I-1
sg10
I-1
sssssg9
I1
sg10
(dp210
g2
I14
sg3
(dp211
g2
I0
sg3
(dp212
g2
I25
sg3
(dp213
g2
I8
sg3
I1
sg9
I1
sg10
I-1
ssg9
I0
sg10
(dp214
g2
I21
sg3
I-1
sg9
I1
sg10
I-1
sssg9
I1
sg10
(dp215
g2
I13
sg3
(dp216
g2
I16
sg3
I1
sg9
I1
sg10
I1
ssg9
I0
sg10
(dp217
g2
I23
sg3
I-1
sg9
I1
sg10
I-1
ssssg9
I1
sg10
(dp218
g2
I29
sg3
(dp219
g2
I7
sg3
(dp220
g2
I19
sg3
I-1
sg9
I1
sg10
I-1
ssg9
I0
sg10
(dp221
g2
I26
sg3
I-1
sg9
I1
sg10
I-1
sssg9
I1
sg10
(dp222
g2
I9
sg3
I-1
sg9
I-1
sg10
I-1
sssssa(dp223
g2
I12
sg3
(dp224
g2
I6
sg3
(dp225
g2
I22
sg3
(dp226
g2
I7
sg3
(dp227
g2
I16
sg3
(dp228
g2
I13
sg3
I1
sg9
I0
sg10
I-1
ssg9
I1
sg10
(dp229
g2
I25
sg3
I1
sg9
I1
sg10
I1
sssg9
I1
sg10
(dp230
g2
I7
sg3
(dp231
g2
I19
sg3
I-1
sg9
I1
sg10
I-1
ssg9
I0
sg10
(dp232
g2
I10
sg3
I-1
sg9
I1
sg10
I1
ssssg9
I1
sg10
(dp233
g2
I27
sg3
(dp234
g2
I7
sg3
I1
sg9
I1
sg10
I1
ssg9
I1
sg10
(dp235
g2
I0
sg3
(dp236
g2
I2
sg3
I1
sg9
I1
sg10
I1
ssg9
I1
sg10
I-1
ssssg9
I1
sg10
(dp237
g2
I7
sg3
(dp238
g2
I8
sg3
(dp239
g2
I25
sg3
(dp240
g2
I14
sg3
I1
sg9
I1
sg10
I-1
ssg9
I0
sg10
(dp241
g2
I27
sg3
I1
sg9
I-1
sg10
I1
sssg9
I1
sg10
(dp242
g2
I25
sg3
(dp243
g2
I27
sg3
I1
sg9
I1
sg10
I1
ssg9
I1
sg10
(dp244
g2
I14
sg3
I-1
sg9
I1
sg10
I1
ssssg9
I1
sg10
(dp245
g2
I8
sg3
(dp246
g2
I15
sg3
(dp247
g2
I1
sg3
I-1
sg9
I1
sg10
I1
ssg9
I1
sg10
(dp248
g2
I13
sg3
I-1
sg9
I0
sg10
I-1
sssg9
I1
sg10
(dp249
g2
I13
sg3
(dp250
g2
I1
sg3
I1
sg9
I1
sg10
I-1
ssg9
I0
sg10
(dp251
g2
I3
sg3
I-1
sg9
I1
sg10
I-1
ssssssg9
I1
sg10
(dp252
g2
I13
sg3
(dp253
g2
I17
sg3
(dp254
g2
I11
sg3
(dp255
g2
I13
sg3
(dp256
g2
I18
sg3
I-1
sg9
I1
sg10
I1
ssg9
I1
sg10
(dp257
g2
I5
sg3
I1
sg9
I1
sg10
I1
sssg9
I1
sg10
(dp258
g2
I28
sg3
(dp259
g2
I7
sg3
I1
sg9
I1
sg10
I-1
ssg9
I1
sg10
(dp260
g2
I27
sg3
I-1
sg9
I1
sg10
I-1
ssssg9
I1
sg10
(dp261
g2
I8
sg3
(dp262
g2
I3
sg3
(dp263
g2
I4
sg3
I1
sg9
I1
sg10
I1
ssg9
I1
sg10
(dp264
g2
I20
sg3
I1
sg9
I1
sg10
I1
sssg9
I1
sg10
(dp265
g2
I28
sg3
(dp266
g2
I13
sg3
I1
sg9
I0
sg10
I1
ssg9
I1
sg10
(dp267
g2
I23
sg3
I1
sg9
I-1
sg10
I1
sssssg9
I0
sg10
(dp268
g2
I3
sg3
(dp269
g2
I10
sg3
(dp270
g2
I2
sg3
(dp271
g2
I28
sg3
I-1
sg9
I0
sg10
I-1
ssg9
I1
sg10
(dp272
g2
I17
sg3
I-1
sg9
I-1
sg10
I-1
sssg9
I1
sg10
(dp273
g2
I15
sg3
I-1
sg9
I-1
sg10
I-1
sssg9
I1
sg10
(dp274
g2
I8
sg3
(dp275
g2
I26
sg3
I-1
sg9
I-1
sg10
I-1
ssg9
I1
sg10
(dp276
g2
I20
sg3
(dp277
g2
I3
sg3
I-1
sg9
I-1
sg10
I-1
ssg9
I1
sg10
I-1
sssssa(dp278
g2
I6
sg3
(dp279
g2
I14
sg3
(dp280
g2
I7
sg3
(dp281
g2
I5
sg3
(dp282
g2
I18
sg3
I1
sg9
I0
sg10
I1
ssg9
I1
sg10
(dp283
g2
I13
sg3
(dp284
g2
I25
sg3
I1
sg9
I1
sg10
I1
ssg9
I0
sg10
I-1
sssg9
I1
sg10
(dp285
g2
I12
sg3
(dp286
g2
I10
sg3
(dp287
g2
I13
sg3
I1
sg9
I0
sg10
I-1
ssg9
I1
sg10
(dp288
g2
I3
sg3
I-1
sg9
I1
sg10
I-1
sssg9
I1
sg10
(dp289
g2
I16
sg3
(dp290
g2
I25
sg3
I-1
sg9
I0
sg10
I-1
ssg9
I1
sg10
(dp291
g2
I12
sg3
I-1
sg9
I-1
sg10
I-1
sssssg9
I0
sg10
(dp292
g2
I15
sg3
(dp293
g2
I13
sg3
(dp294
g2
I25
sg3
(dp295
g2
I25
sg3
I1
sg9
I1
sg10
I1
ssg9
I0
sg10
(dp296
g2
I7
sg3
I1
sg9
I1
sg10
I-1
sssg9
I0
sg10
(dp297
g2
I11
sg3
I-1
sg9
I1
sg10
I-1
sssg9
I0
sg10
(dp298
g2
I13
sg3
(dp299
g2
I7
sg3
(dp300
g2
I21
sg3
I1
sg9
I1
sg10
I1
ssg9
I1
sg10
(dp301
g2
I0
sg3
I-1
sg9
I1
sg10
I-1
sssg9
I0
sg10
(dp302
g2
I7
sg3
(dp303
g2
I20
sg3
I-1
sg9
I1
sg10
I-1
ssg9
I1
sg10
(dp304
g2
I16
sg3
I-1
sg9
I1
sg10
I-1
ssssssg9
I1
sg10
(dp305
g2
I13
sg3
(dp306
g2
I15
sg3
(dp307
g2
I0
sg3
(dp308
g2
I24
sg3
(dp309
g2
I13
sg3
I1
sg9
I1
sg10
I1
ssg9
I1
sg10
(dp310
g2
I23
sg3
I1
sg9
I1
sg10
I1
sssg9
I1
sg10
(dp311
g2
I22
sg3
(dp312
g2
I7
sg3
I1
sg9
I1
sg10
I1
ssg9
I1
sg10
(dp313
g2
I2
sg3
I1
sg9
I1
sg10
I1
ssssg9
I1
sg10
(dp314
g2
I13
sg3
(dp315
g2
I25
sg3
(dp316
g2
I6
sg3
I1
sg9
I0
sg10
I1
ssg9
I0
sg10
(dp317
g2
I22
sg3
I-1
sg9
I1
sg10
I1
sssg9
I1
sg10
(dp318
g2
I4
sg3
(dp319
g2
I20
sg3
I1
sg9
I1
sg10
I1
ssg9
I1
sg10
(dp320
g2
I1
sg3
I-1
sg9
I1
sg10
I1
sssssg9
I0
sg10
(dp321
g2
I25
sg3
(dp322
g2
I6
sg3
(dp323
g2
I23
sg3
(dp324
g2
I20
sg3
I-1
sg9
I1
sg10
I-1
ssg9
I1
sg10
(dp325
g2
I14
sg3
I-1
sg9
I0
sg10
I-1
sssg9
I0
sg10
(dp326
g2
I7
sg3
(dp327
g2
I29
sg3
I-1
sg9
I1
sg10
I1
ssg9
I1
sg10
(dp328
g2
I4
sg3
I-1
sg9
I1
sg10
I-1
ssssg9
I1
sg10
(dp329
g2
I22
sg3
(dp330
g2
I12
sg3
I-1
sg9
I-1
sg10
I-1
ssg9
I1
sg10
(dp331
g2
I4
sg3
(dp332
g2
I18
sg3
I-1
sg9
I0
sg10
I-1
ssg9
I1
sg10
(dp333
g2
I22
sg3
I-1
sg9
I-1
sg10
I-1
ssssssa(dp334
g2
I18
sg3
(dp335
g2
I25
sg3
(dp336
g2
I11
sg3
(dp337
g2
I12
sg3
(dp338
g2
I23
sg3
(dp339
g2
I24
sg3
I-1
sg9
I1
sg10
I-1
ssg9
I1
sg10
(dp340
g2
I0
sg3
I1
sg9
I1
sg10
I1
sssg9
I1
sg10
(dp341
g2
I14
sg3
(dp342
g2
I7
sg3
I1
sg9
I1
sg10
I-1
ssg9
I0
sg10
(dp343
g2
I26
sg3
I-1
sg9
I-1
sg10
I-1
ssssg9
I1
sg10
(dp344
g2
I9
sg3
(dp345
g2
I28
sg3
(dp346
g2
I27
sg3
I1
sg9
I1
sg10
I1
ssg9
I1
sg10
(dp347
g2
I24
sg3
I1
sg9
I1
sg10
I-1
sssg9
I1
sg10
(dp348
g2
I23
sg3
(dp349
g2
I11
sg3
I-1
sg9
I-1
sg10
I-1
ssg9
I1
sg10
(dp350
g2
I5
sg3
I1
sg9
I1
sg10
I-1
sssssg9
I1
sg10
(dp351
g2
I13
sg3
(dp352
g2
I0
sg3
(dp353
g2
I15
sg3
I1
sg9
I1
sg10
(dp354
g2
I1
sg3
I1
sg9
I1
sg10
I-1
sssg9
I1
sg10
(dp355
g2
I13
sg3
(dp356
g2
I8
sg3
I1
sg9
I-1
sg10
I1
ssg9
I1
sg10
(dp357
g2
I11
sg3
I-1
sg9
I1
sg10
I1
ssssg9
I0
sg10
(dp358
g2
I2
sg3
I-1
sg9
I-1
sg10
I-1
ssssg9
I1
sg10
(dp359
g2
I13
sg3
(dp360
g2
I5
sg3
(dp361
g2
I20
sg3
(dp362
g2
I16
sg3
(dp363
g2
I8
sg3
I1
sg9
I-1
sg10
I1
ssg9
I1
sg10
(dp364
g2
I1
sg3
I1
sg9
I-1
sg10
I1
sssg9
I1
sg10
(dp365
g2
I25
sg3
I1
sg9
I1
sg10
I1
sssg9
I1
sg10
(dp366
g2
I7
sg3
(dp367
g2
I13
sg3
(dp368
g2
I21
sg3
I1
sg9
I1
sg10
I1
ssg9
I1
sg10
(dp369
g2
I26
sg3
I1
sg9
I1
sg10
I1
sssg9
I1
sg10
(dp370
g2
I17
sg3
(dp371
g2
I25
sg3
I-1
sg9
I1
sg10
I-1
ssg9
I1
sg10
(dp372
g2
I11
sg3
I-1
sg9
I-1
sg10
I-1
sssssg9
I0
sg10
(dp373
g2
I25
sg3
(dp374
g2
I22
sg3
(dp375
g2
I27
sg3
(dp376
g2
I24
sg3
I-1
sg9
I1
sg10
I-1
ssg9
I1
sg10
(dp377
g2
I14
sg3
I-1
sg9
I0
sg10
I-1
sssg9
I1
sg10
(dp378
g2
I23
sg3
(dp379
g2
I25
sg3
I-1
sg9
I1
sg10
I-1
ssg9
I1
sg10
(dp380
g2
I10
sg3
I-1
sg9
I1
sg10
I1
ssssg9
I1
sg10
(dp381
g2
I27
sg3
(dp382
g2
I18
sg3
I-1
sg9
I0
sg10
I-1
ssg9
I1
sg10
(dp383
g2
I24
sg3
(dp384
g2
I29
sg3
I-1
sg9
I-1
sg10
I-1
ssg9
I1
sg10
(dp385
g2
I21
sg3
I-1
sg9
I1
sg10
I-1
ssssssa(dp386
g2
I13
sg3
(dp387
g2
I6
sg3
(dp388
g2
I12
sg3
(dp389
g2
I25
sg3
(dp390
g2
I21
sg3
(dp391
g2
I7
sg3
I1
sg9
I1
sg10
I-1
ssg9
I1
sg10
(dp392
g2
I26
sg3
I1
sg9
I1
sg10
I1
sssg9
I1
sg10
(dp393
g2
I24
sg3
(dp394
g2
I7
sg3
I1
sg9
I1
sg10
I-1
ssg9
I1
sg10
(dp395
g2
I13
sg3
I1
sg9
I1
sg10
I1
ssssg9
I1
sg10
(dp396
g2
I2
sg3
(dp397
g2
I7
sg3
(dp398
g2
I24
sg3
I1
sg9
I1
sg10
I1
ssg9
I1
sg10
(dp399
g2
I22
sg3
I-1
sg9
I1
sg10
I-1
sssg9
I1
sg10
(dp400
g2
I23
sg3
I1
sg9
I-1
sg10
I1
ssssg9
I1
sg10
(dp401
g2
I15
sg3
(dp402
g2
I10
sg3
(dp403
g2
I1
sg3
(dp404
g2
I14
sg3
I1
sg9
I1
sg10
I1
ssg9
I1
sg10
(dp405
g2
I29
sg3
I1
sg9
I1
sg10
I-1
sssg9
I1
sg10
(dp406
g2
I7
sg3
(dp407
g2
I15
sg3
I1
sg9
I1
sg10
I1
ssg9
I1
sg10
I1
sssg9
I1
sg10
(dp408
g2
I2
sg3
(dp409
g2
I5
sg3
(dp410
g2
I22
sg3
I1
sg9
I1
sg10
I1
ssg9
I1
sg10
(dp411
g2
I18
sg3
I-1
sg9
I1
sg10
I1
sssg9
I1
sg10
(dp412
g2
I22
sg3
(dp413
g2
I7
sg3
I1
sg9
I1
sg10
I1
ssg9
I1
sg10
(dp414
g2
I7
sg3
I-1
sg9
I-1
sg10
I-1
ssssssg9
I0
sg10
(dp415
g2
I15
sg3
(dp416
g2
I23
sg3
(dp417
g2
I3
sg3
(dp418
g2
I25
sg3
(dp419
g2
I6
sg3
I-1
sg9
I0
sg10
I1
ssg9
I1
sg10
(dp420
g2
I26
sg3
I-1
sg9
I-1
sg10
I-1
sssg9
I1
sg10
(dp421
g2
I9
sg3
I-1
sg9
I-1
sg10
I-1
sssg9
I1
sg10
(dp422
g2
I26
sg3
I-1
sg9
I-1
sg10
I-1
sssg9
I1
sg10
(dp423
g2
I10
sg3
(dp424
g2
I22
sg3
(dp425
g2
I18
sg3
I-1
sg9
I0
sg10
I-1
ssg9
I1
sg10
I-1
ssg9
I1
sg10
(dp426
g2
I25
sg3
(dp427
g2
I19
sg3
(dp428
g2
I9
sg3
I-1
sg9
I-1
sg10
I-1
ssg9
I1
sg10
(dp429
g2
I28
sg3
I-1
sg9
I1
sg10
I-1
sssg9
I1
sg10
(dp430
g2
I18
sg3
I-1
sg9
I0
sg10
I-1
sssssa(dp431
g2
I25
sg3
(dp432
g2
I1
sg3
(dp433
g2
I8
sg3
(dp434
g2
I3
sg3
(dp435
g2
I27
sg3
(dp436
g2
I24
sg3
I1
sg9
I1
sg10
I1
ssg9
I1
sg10
(dp437
g2
I26
sg3
I-1
sg9
I1
sg10
I1
sssg9
I1
sg10
(dp438
g2
I13
sg3
I1
sg9
I0
sg10
(dp439
g2
I27
sg3
I-1
sg9
I-1
sg10
I-1
ssssg9
I1
sg10
(dp440
g2
I7
sg3
(dp441
g2
I3
sg3
(dp442
g2
I8
sg3
I1
sg9
I-1
sg10
I1
ssg9
I1
sg10
(dp443
g2
I15
sg3
I1
sg9
I0
sg10
I1
sssg9
I1
sg10
(dp444
g2
I6
sg3
(dp445
g2
I18
sg3
I-1
sg9
I1
sg10
I1
ssg9
I0
sg10
(dp446
g2
I29
sg3
I-1
sg9
I1
sg10
I-1
sssssg9
I1
sg10
(dp447
g2
I6
sg3
(dp448
g2
I5
sg3
(dp449
g2
I10
sg3
(dp450
g2
I28
sg3
I1
sg9
I0
sg10
I1
ssg9
I1
sg10
(dp451
g2
I24
sg3
I1
sg9
I1
sg10
I1
sssg9
I1
sg10
(dp452
g2
I26
sg3
(dp453
g2
I11
sg3
I1
sg9
I1
sg10
I1
ssg9
I1
sg10
(dp454
g2
I7
sg3
I1
sg9
I1
sg10
I-1
ssssg9
I1
sg10
(dp455
g2
I27
sg3
(dp456
g2
I7
sg3
(dp457
g2
I24
sg3
I1
sg9
I1
sg10
I1
ssg9
I1
sg10
(dp458
g2
I14
sg3
I-1
sg9
I0
sg10
I-1
sssg9
I1
sg10
(dp459
g2
I24
sg3
(dp460
g2
I6
sg3
I-1
sg9
I0
sg10
I-1
ssg9
I1
sg10
(dp461
g2
I26
sg3
I1
sg9
I1
sg10
I-1
ssssssg9
I1
sg10
(dp462
g2
I7
sg3
(dp463
g2
I6
sg3
(dp464
g2
I11
sg3
(dp465
g2
I19
sg3
(dp466
g2
I27
sg3
I1
sg9
I1
sg10
I1
ssg9
I1
sg10
(dp467
g2
I26
sg3
I1
sg9
I-1
sg10
I1
sssg9
I1
sg10
(dp468
g2
I5
sg3
(dp469
g2
I23
sg3
I1
sg9
I1
sg10
I1
ssg9
I1
sg10
(dp470
g2
I14
sg3
I1
sg9
I1
sg10
I1
ssssg9
I1
sg10
(dp471
g2
I13
sg3
(dp472
g2
I23
sg3
(dp473
g2
I6
sg3
I1
sg9
I0
sg10
I1
ssg9
I1
sg10
(dp474
g2
I29
sg3
I1
sg9
I1
sg10
I1
sssg9
I0
sg10
(dp475
g2
I0
sg3
I-1
sg9
I-1
sg10
I-1
ssssg9
I1
sg10
(dp476
g2
I28
sg3
(dp477
g2
I13
sg3
(dp478
g2
I6
sg3
(dp479
g2
I18
sg3
I-1
sg9
I1
sg10
I1
ssg9
I1
sg10
(dp480
g2
I5
sg3
I1
sg9
I1
sg10
I-1
sssg9
I0
sg10
(dp481
g2
I2
sg3
(dp482
g2
I21
sg3
I-1
sg9
I1
sg10
I-1
ssg9
I1
sg10
(dp483
g2
I24
sg3
I-1
sg9
I-1
sg10
I-1
ssssg9
I0
sg10
(dp484
g2
I21
sg3
(dp485
g2
I13
sg3
(dp486
g2
I3
sg3
I1
sg9
I1
sg10
I1
ssg9
I0
sg10
(dp487
g2
I3
sg3
I-1
sg9
I-1
sg10
I-1
sssg9
I1
sg10
(dp488
g2
I10
sg3
I-1
sg9
I-1
sg10
I-1
sssssa(dp489
g2
I6
sg3
(dp490
g2
I13
sg3
(dp491
g2
I15
sg3
(dp492
g2
I7
sg3
(dp493
g2
I8
sg3
(dp494
g2
I0
sg3
I1
sg9
I1
sg10
I1
ssg9
I1
sg10
(dp495
g2
I28
sg3
I1
sg9
I1
sg10
I1
sssg9
I1
sg10
(dp496
g2
I4
sg3
(dp497
g2
I13
sg3
I-1
sg9
I0
sg10
I-1
ssg9
I1
sg10
I1
sssg9
I0
sg10
(dp498
g2
I25
sg3
(dp499
g2
I29
sg3
(dp500
g2
I23
sg3
I1
sg9
I1
sg10
I1
ssg9
I1
sg10
(dp501
g2
I29
sg3
I1
sg9
I-1
sg10
I1
sssg9
I1
sg10
(dp502
g2
I25
sg3
(dp503
g2
I9
sg3
I1
sg9
I1
sg10
I1
ssg9
I0
sg10
(dp504
g2
I18
sg3
I1
sg9
I1
sg10
I1
sssssg9
I0
sg10
(dp505
g2
I19
sg3
(dp506
g2
I16
sg3
(dp507
g2
I14
sg3
(dp508
g2
I19
sg3
I-1
sg9
I1
sg10
I-1
ssg9
I1
sg10
(dp509
g2
I15
sg3
I-1
sg9
I-1
sg10
I-1
sssg9
I1
sg10
(dp510
g2
I3
sg3
I-1
sg9
I1
sg10
I-1
sssg9
I1
sg10
(dp511
g2
I12
sg3
(dp512
g2
I28
sg3
(dp513
g2
I25
sg3
I1
sg9
I1
sg10
I-1
ssg9
I1
sg10
(dp514
g2
I7
sg3
I-1
sg9
I-1
sg10
I-1
sssg9
I1
sg10
(dp515
g2
I9
sg3
I-1
sg9
I-1
sg10
I-1
sssssg9
I1
sg10
(dp516
g2
I28
sg3
(dp517
g2
I8
sg3
(dp518
g2
I1
sg3
(dp519
g2
I13
sg3
(dp520
g2
I27
sg3
I1
sg9
I1
sg10
I-1
ssg9
I0
sg10
(dp521
g2
I9
sg3
I-1
sg9
I1
sg10
I-1
sssg9
I0
sg10
(dp522
g2
I0
sg3
(dp523
g2
I7
sg3
I1
sg9
I1
sg10
I-1
ssg9
I1
sg10
(dp524
g2
I13
sg3
I1
sg9
I0
sg10
I-1
ssssg9
I1
sg10
(dp525
g2
I5
sg3
(dp526
g2
I25
sg3
(dp527
g2
I21
sg3
I1
sg9
I1
sg10
I1
ssg9
I1
sg10
(dp528
g2
I17
sg3
I1
sg9
I-1
sg10
I1
sssg9
I1
sg10
(dp529
g2
I13
sg3
(dp530
g2
I20
sg3
I1
sg9
I1
sg10
I1
ssg9
I0
sg10
(dp531
g2
I26
sg3
I-1
sg9
I-1
sg10
I-1
sssssg9
I0
sg10
(dp532
g2
I4
sg3
(dp533
g2
I5
sg3
(dp534
g2
I14
sg3
(dp535
g2
I21
sg3
I1
sg9
I1
sg10
I1
ssg9
I1
sg10
(dp536
g2
I4
sg3
I1
sg9
I1
sg10
I1
sssg9
I1
sg10
(dp537
g2
I17
sg3
(dp538
g2
I26
sg3
I1
sg9
I1
sg10
I1
ssg9
I1
sg10
(dp539
g2
I29
sg3
I1
sg9
I1
sg10
I1
ssssg9
I1
sg10
(dp540
g2
I5
sg3
(dp541
g2
I18
sg3
I1
sg9
I1
sg10
I1
ssg9
I1
sg10
(dp542
g2
I29
sg3
I-1
sg9
I1
sg10
I-1
sssssa(dp543
g2
I7
sg3
(dp544
g2
I14
sg3
(dp545
g2
I6
sg3
(dp546
g2
I12
sg3
(dp547
g2
I10
sg3
(dp548
g2
I28
sg3
I1
sg9
I1
sg10
I1
ssg9
I1
sg10
(dp549
g2
I0
sg3
I1
sg9
I1
sg10
I1
sssg9
I1
sg10
(dp550
g2
I8
sg3
(dp551
g2
I13
sg3
I1
sg9
I0
sg10
I-1
ssg9
I1
sg10
(dp552
g2
I29
sg3
I1
sg9
I1
sg10
I1
ssssg9
I1
sg10
(dp553
g2
I26
sg3
(dp554
g2
I25
sg3
(dp555
g2
I12
sg3
I1
sg9
I1
sg10
I1
ssg9
I1
sg10
(dp556
g2
I21
sg3
I1
sg9
I1
sg10
I1
sssg9
I1
sg10
(dp557
g2
I16
sg3
(dp558
g2
I15
sg3
I1
sg9
I0
sg10
I1
ssg9
I1
sg10
(dp559
g2
I22
sg3
I1
sg9
I1
sg10
I1
sssssg9
I0
sg10
(dp560
g2
I12
sg3
(dp561
g2
I11
sg3
(dp562
g2
I13
sg3
(dp563
g2
I28
sg3
I1
sg9
I1
sg10
I1
ssg9
I0
sg10
(dp564
g2
I5
sg3
I1
sg9
I1
sg10
I-1
sssg9
I1
sg10
(dp565
g2
I0
sg3
(dp566
g2
I23
sg3
I1
sg9
I1
sg10
I1
ssg9
I1
sg10
(dp567
g2
I18
sg3
I1
sg9
I1
sg10
I1
ssssg9
I1
sg10
(dp568
g2
I2
sg3
(dp569
g2
I23
sg3
(dp570
g2
I27
sg3
I1
sg9
I1
sg10
I-1
ssg9
I1
sg10
(dp571
g2
I5
sg3
I1
sg9
I1
sg10
I-1
sssg9
I1
sg10
(dp572
g2
I21
sg3
I1
sg9
I1
sg10
I1
sssssg9
I1
sg10
(dp573
g2
I25
sg3
(dp574
g2
I13
sg3
(dp575
g2
I2
sg3
(dp576
g2
I13
sg3
(dp577
g2
I20
sg3
I1
sg9
I1
sg10
I-1
ssg9
I1
sg10
(dp578
g2
I24
sg3
I-1
sg9
I1
sg10
I-1
sssg9
I1
sg10
(dp579
g2
I6
sg3
(dp580
g2
I14
sg3
I-1
sg9
I1
sg10
I1
ssg9
I0
sg10
I-1
sssg9
I0
sg10
(dp581
g2
I18
sg3
I-1
sg9
I0
sg10
I-1
sssg9
I1
sg10
(dp582
g2
I16
sg3
(dp583
g2
I7
sg3
(dp584
g2
I8
sg3
(dp585
g2
I16
sg3
I-1
sg9
I1
sg10
I-1
ssg9
I1
sg10
(dp586
g2
I1
sg3
I-1
sg9
I-1
sg10
I-1
sssg9
I0
sg10
(dp587
g2
I23
sg3
(dp588
g2
I3
sg3
I-1
sg9
I1
sg10
I-1
ssg9
I1
sg10
(dp589
g2
I24
sg3
I-1
sg9
I1
sg10
I-1
ssssg9
I1
sg10
(dp590
g2
I7
sg3
(dp591
g2
I21
sg3
I-1
sg9
I-1
sg10
I-1
ssg9
I0
sg10
(dp592
g2
I26
sg3
I-1
sg9
I-1
sg10
I-1
sssssa(dp593
g2
I12
sg3
(dp594
g2
I11
sg3
(dp595
g2
I7
sg3
(dp596
g2
I26
sg3
(dp597
g2
I13
sg3
(dp598
g2
I16
sg3
I1
sg9
I1
sg10
I1
ssg9
I0
sg10
(dp599
g2
I25
sg3
I-1
sg9
I0
sg10
I-1
sssg9
I1
sg10
(dp600
g2
I25
sg3
(dp601
g2
I21
sg3
I1
sg9
I1
sg10
I1
ssg9
I1
sg10
(dp602
g2
I20
sg3
I1
sg9
I1
sg10
I1
ssssg9
I1
sg10
(dp603
g2
I16
sg3
(dp604
g2
I5
sg3
(dp605
g2
I10
sg3
I1
sg9
I1
sg10
I1
ssg9
I1
sg10
(dp606
g2
I13
sg3
I-1
sg9
I0
sg10
I-1
sssg9
I1
sg10
(dp607
g2
I19
sg3
(dp608
g2
I27
sg3
I-1
sg9
I1
sg10
I-1
ssg9
I1
sg10
(dp609
g2
I15
sg3
I1
sg9
I1
sg10
I-1
sssssg9
I1
sg10
(dp610
g2
I13
sg3
(dp611
g2
I5
sg3
(dp612
g2
I24
sg3
I1
sg9
I-1
sg10
I1
ssg9
I1
sg10
(dp613
g2
I16
sg3
(dp614
g2
I15
sg3
I1
sg9
I1
sg10
I1
ssg9
I1
sg10
(dp615
g2
I26
sg3
I1
sg9
I1
sg10
I-1
ssssg9
I0
sg10
(dp616
g2
I0
sg3
I-1
sg9
I-1
sg10
I-1
ssssg9
I1
sg10
(dp617
g2
I6
sg3
(dp618
g2
I25
sg3
(dp619
g2
I26
sg3
(dp620
g2
I28
sg3
(dp621
g2
I10
sg3
I1
sg9
I-1
sg10
I1
ssg9
I1
sg10
(dp622
g2
I17
sg3
I1
sg9
I1
sg10
I1
sssg9
I1
sg10
(dp623
g2
I7
sg3
(dp624
g2
I27
sg3
I1
sg9
I1
sg10
I1
ssg9
I1
sg10
(dp625
g2
I14
sg3
I-1
sg9
I0
sg10
I-1
ssssg9
I1
sg10
(dp626
g2
I26
sg3
(dp627
g2
I7
sg3
(dp628
g2
I4
sg3
I1
sg9
I1
sg10
I1
ssg9
I1
sg10
(dp629
g2
I22
sg3
I-1
sg9
I1
sg10
I-1
sssg9
I1
sg10
(dp630
g2
I24
sg3
(dp631
g2
I14
sg3
I1
sg9
I1
sg10
I1
ssg9
I1
sg10
(dp632
g2
I16
sg3
I-1
sg9
I1
sg10
I-1
sssssg9
I1
sg10
(dp633
g2
I0
sg3
(dp634
g2
I8
sg3
(dp635
g2
I24
sg3
(dp636
g2
I19
sg3
I-1
sg9
I1
sg10
I-1
ssg9
I1
sg10
(dp637
g2
I28
sg3
I-1
sg9
I1
sg10
I-1
sssg9
I1
sg10
(dp638
g2
I7
sg3
(dp639
g2
I19
sg3
I1
sg9
I1
sg10
I1
ssg9
I1
sg10
(dp640
g2
I5
sg3
I-1
sg9
I-1
sg10
I-1
ssssg9
I1
sg10
(dp641
g2
I13
sg3
(dp642
g2
I7
sg3
(dp643
g2
I3
sg3
I1
sg9
I1
sg10
I-1
ssg9
I1
sg10
(dp644
g2
I18
sg3
I-1
sg9
I1
sg10
I-1
sssg9
I0
sg10
(dp645
g2
I22
sg3
I-1
sg9
I-1
sg10
I-1
sssssa(dp646
g2
I7
sg3
(dp647
g2
I25
sg3
(dp648
g2
I12
sg3
(dp649
g2
I6
sg3
(dp650
g2
I16
sg3
(dp651
g2
I4
sg3
I1
sg9
I1
sg10
I1
ssg9
I1
sg10
(dp652
g2
I18
sg3
I1
sg9
I0
sg10
I1
sssg9
I1
sg10
(dp653
g2
I15
sg3
(dp654
g2
I22
sg3
I1
sg9
I1
sg10
I1
ssg9
I1
sg10
(dp655
g2
I28
sg3
I1
sg9
I1
sg10
I1
ssssg9
I1
sg10
(dp656
g2
I0
sg3
(dp657
g2
I14
sg3
(dp658
g2
I26
sg3
I1
sg9
I1
sg10
I1
ssg9
I0
sg10
(dp659
g2
I9
sg3
I1
sg9
I1
sg10
I1
sssg9
I1
sg10
(dp660
g2
I15
sg3
(dp661
g2
I25
sg3
I1
sg9
I1
sg10
I1
ssg9
I0
sg10
(dp662
g2
I2
sg3
I-1
sg9
I1
sg10
I1
sssssg9
I1
sg10
(dp663
g2
I15
sg3
(dp664
g2
I27
sg3
(dp665
g2
I4
sg3
(dp666
g2
I0
sg3
I1
sg9
I1
sg10
I1
ssg9
I1
sg10
(dp667
g2
I26
sg3
I1
sg9
I1
sg10
I1
sssg9
I1
sg10
(dp668
g2
I14
sg3
(dp669
g2
I29
sg3
I1
sg9
I1
sg10
I1
ssg9
I0
sg10
(dp670
g2
I13
sg3
I1
sg9
I0
sg10
I-1
ssssg9
I0
sg10
(dp671
g2
I6
sg3
(dp672
g2
I21
sg3
(dp673
g2
I13
sg3
I1
sg9
I0
sg10
I-1
ssg9
I1
sg10
(dp674
g2
I14
sg3
I1
sg9
I0
sg10
I1
sssg9
I1
sg10
(dp675
g2
I19
sg3
(dp676
g2
I6
sg3
I-1
sg9
I0
sg10
I1
ssg9
I1
sg10
(dp677
g2
I11
sg3
I-1
sg9
I1
sg10
I-1
ssssssg9
I1
sg10
(dp678
g2
I5
sg3
(dp679
g2
I22
sg3
I1
sg9
I1
sg10
I1
ssg9
I1
sg10
(dp680
g2
I7
sg3
(dp681
g2
I23
sg3
(dp682
g2
I13
sg3
(dp683
g2
I18
sg3
I-1
sg9
I1
sg10
I-1
ssg9
I0
sg10
(dp684
g2
I14
sg3
I-1
sg9
I0
sg10
I-1
sssg9
I1
sg10
(dp685
g2
I9
sg3
(dp686
g2
I14
sg3
I-1
sg9
I0
sg10
I-1
ssg9
I1
sg10
(dp687
g2
I29
sg3
I-1
sg9
I1
sg10
I-1
ssssg9
I0
sg10
(dp688
g2
I20
sg3
(dp689
g2
I25
sg3
(dp690
g2
I1
sg3
I-1
sg9
I1
sg10
I-1
ssg9
I1
sg10
(dp691
g2
I3
sg3
I-1
sg9
I1
sg10
I-1
sssg9
I1
sg10
(dp692
g2
I26
sg3
I-1
sg9
I-1
sg10
I-1
sssssa(dp693
g2
I26
sg3
(dp694
g2
I7
sg3
(dp695
g2
I13
sg3
(dp696
g2
I0
sg3
(dp697
g2
I24
sg3
(dp698
g2
I27
sg3
I1
sg9
I1
sg10
I1
ssg9
I1
sg10
(dp699
g2
I12
sg3
I1
sg9
I1
sg10
I1
sssg9
I1
sg10
(dp700
g2
I15
sg3
(dp701
g2
I13
sg3
I1
sg9
I0
sg10
I1
ssg9
I0
sg10
(dp702
g2
I5
sg3
I1
sg9
I1
sg10
I1
ssssg9
I0
sg10
(dp703
g2
I7
sg3
I-1
sg9
I1
sg10
I-1
sssg9
I1
sg10
(dp704
g2
I12
sg3
(dp705
g2
I17
sg3
(dp706
g2
I29
sg3
(dp707
g2
I0
sg3
I-1
sg9
I1
sg10
I-1
ssg9
I1
sg10
(dp708
g2
I14
sg3
I-1
sg9
I0
sg10
I-1
sssg9
I1
sg10
(dp709
g2
I5
sg3
(dp710
g2
I12
sg3
I1
sg9
I1
sg10
I1
ssg9
I1
sg10
(dp711
g2
I17
sg3
I-1
sg9
I-1
sg10
I-1
ssssg9
I1
sg10
(dp712
g2
I14
sg3
(dp713
g2
I14
sg3
I-1
sg9
I0
sg10
I-1
ssg9
I0
sg10
(dp714
g2
I8
sg3
(dp715
g2
I15
sg3
I-1
sg9
I0
sg10
I-1
ssg9
I1
sg10
(dp716
g2
I14
sg3
I-1
sg9
I-1
sg10
I-1
ssssssg9
I1
sg10
(dp717
g2
I14
sg3
(dp718
g2
I12
sg3
(dp719
g2
I28
sg3
(dp720
g2
I22
sg3
(dp721
g2
I6
sg3
I1
sg9
I1
sg10
I1
ssg9
I1
sg10
(dp722
g2
I3
sg3
I1
sg9
I1
sg10
I1
sssg9
I1
sg10
(dp723
g2
I14
sg3
(dp724
g2
I18
sg3
I-1
sg9
I1
sg10
I1
ssg9
I1
sg10
(dp725
g2
I24
sg3
I1
sg9
I1
sg10
I-1
ssssg9
I1
sg10
(dp726
g2
I19
sg3
(dp727
g2
I6
sg3
(dp728
g2
I13
sg3
I1
sg9
I0
sg10
I-1
ssg9
I1
sg10
(dp729
g2
I7
sg3
I1
sg9
I1
sg10
I-1
sssg9
I1
sg10
(dp730
g2
I18
sg3
(dp731
g2
I7
sg3
I-1
sg9
I0
sg10
I-1
ssg9
I1
sg10
(dp732
g2
I7
sg3
I1
sg9
I1
sg10
I-1
sssssg9
I0
sg10
(dp733
g2
I22
sg3
(dp734
g2
I21
sg3
(dp735
g2
I25
sg3
(dp736
g2
I23
sg3
I-1
sg9
I1
sg10
I1
ssg9
I1
sg10
(dp737
g2
I7
sg3
I1
sg9
I1
sg10
I-1
sssg9
I1
sg10
(dp738
g2
I25
sg3
(dp739
g2
I12
sg3
I1
sg9
I1
sg10
I1
ssg9
I1
sg10
(dp740
g2
I8
sg3
I-1
sg9
I-1
sg10
I-1
ssssg9
I1
sg10
(dp741
g2
I7
sg3
(dp742
g2
I12
sg3
(dp743
g2
I24
sg3
I1
sg9
I-1
sg10
I1
ssg9
I1
sg10
(dp744
g2
I16
sg3
I-1
sg9
I1
sg10
I1
sssg9
I1
sg10
(dp745
g2
I15
sg3
I-1
sg9
I-1
sg10
I-1
sssssa(dp746
g2
I15
sg3
(dp747
g2
I7
sg3
(dp748
g2
I13
sg3
(dp749
g2
I2
sg3
(dp750
g2
I7
sg3
I1
sg9
I1
sg10
I1
ssg9
I1
sg10
(dp751
g2
I6
sg3
(dp752
g2
I25
sg3
I1
sg9
I1
sg10
I1
ssg9
I1
sg10
(dp753
g2
I12
sg3
I1
sg9
I1
sg10
I1
ssssg9
I0
sg10
(dp754
g2
I23
sg3
(dp755
g2
I20
sg3
I1
sg9
I1
sg10
I1
ssg9
I1
sg10
I-1
sssg9
I1
sg10
(dp756
g2
I0
sg3
(dp757
g2
I14
sg3
(dp758
g2
I28
sg3
(dp759
g2
I24
sg3
I-1
sg9
I1
sg10
I-1
ssg9
I0
sg10
I1
ssg9
I0
sg10
(dp760
g2
I7
sg3
I-1
sg9
I-1
sg10
I-1
sssg9
I1
sg10
(dp761
g2
I13
sg3
(dp762
g2
I14
sg3
(dp763
g2
I6
sg3
I1
sg9
I1
sg10
I1
ssg9
I0
sg10
I-1
ssg9
I0
sg10
(dp764
g2
I20
sg3
I-1
sg9
I-1
sg10
I-1
sssssg9
I1
sg10
(dp765
g2
I13
sg3
(dp766
g2
I14
sg3
(dp767
g2
I11
sg3
(dp768
g2
I6
sg3
(dp769
g2
I7
sg3
I1
sg9
I1
sg10
I1
ssg9
I1
sg10
(dp770
g2
I23
sg3
I1
sg9
I1
sg10
I1
sssg9
I1
sg10
(dp771
g2
I19
sg3
(dp772
g2
I28
sg3
I1
sg9
I1
sg10
I1
ssg9
I1
sg10
(dp773
g2
I5
sg3
I1
sg9
I1
sg10
I-1
ssssg9
I0
sg10
(dp774
g2
I12
sg3
(dp775
g2
I5
sg3
(dp776
g2
I27
sg3
I1
sg9
I1
sg10
I1
ssg9
I1
sg10
(dp777
g2
I21
sg3
I1
sg9
I1
sg10
I1
sssg9
I1
sg10
(dp778
g2
I13
sg3
(dp779
g2
I16
sg3
I1
sg9
I1
sg10
I1
ssg9
I1
sg10
(dp780
g2
I0
sg3
I-1
sg9
I1
sg10
I-1
sssssg9
I0
sg10
(dp781
g2
I0
sg3
(dp782
g2
I7
sg3
(dp783
g2
I28
sg3
(dp784
g2
I14
sg3
I-1
sg9
I0
sg10
I1
ssg9
I1
sg10
(dp785
g2
I16
sg3
I-1
sg9
I1
sg10
I-1
sssg9
I1
sg10
(dp786
g2
I3
sg3
(dp787
g2
I12
sg3
I-1
sg9
I-1
sg10
I-1
ssg9
I1
sg10
(dp788
g2
I16
sg3
I-1
sg9
I1
sg10
I-1
ssssg9
I1
sg10
(dp789
g2
I0
sg3
I-1
sg9
I-1
sg10
I-1
ssssa(dp790
g2
I15
sg3
(dp791
g2
I16
sg3
(dp792
g2
I6
sg3
(dp793
g2
I28
sg3
(dp794
g2
I7
sg3
(dp795
g2
I4
sg3
I1
sg9
I1
sg10
I1
ssg9
I1
sg10
(dp796
g2
I17
sg3
I-1
sg9
I1
sg10
I1
sssg9
I1
sg10
(dp797
g2
I18
sg3
I-1
sg9
I1
sg10
(dp798
g2
I13
sg3
I1
sg9
I0
sg10
I-1
ssssg9
I0
sg10
(dp799
g2
I5
sg3
(dp800
g2
I26
sg3
I1
sg9
I1
sg10
(dp801
g2
I27
sg3
I1
sg9
I1
sg10
I1
sssg9
I1
sg10
(dp802
g2
I25
sg3
(dp803
g2
I4
sg3
I1
sg9
I1
sg10
I1
ssg9
I1
sg10
(dp804
g2
I8
sg3
I-1
sg9
I1
sg10
I-1
sssssg9
I1
sg10
(dp805
g2
I8
sg3
I1
sg9
I-1
sg10
I1
sssg9
I1
sg10
(dp806
g2
I3
sg3
(dp807
g2
I13
sg3
(dp808
g2
I6
sg3
(dp809
g2
I8
sg3
(dp810
g2
I14
sg3
I1
sg9
I0
sg10
I1
ssg9
I1
sg10
(dp811
g2
I14
sg3
I1
sg9
I0
sg10
I1
sssg9
I1
sg10
(dp812
g2
I28
sg3
(dp813
g2
I2
sg3
I1
sg9
I1
sg10
I1
ssg9
I1
sg10
(dp814
g2
I27
sg3
I1
sg9
I1
sg10
I-1
ssssg9
I0
sg10
(dp815
g2
I23
sg3
(dp816
g2
I14
sg3
(dp817
g2
I12
sg3
I-1
sg9
I1
sg10
I-1
ssg9
I0
sg10
(dp818
g2
I8
sg3
I-1
sg9
I1
sg10
I-1
sssg9
I1
sg10
(dp819
g2
I3
sg3
I-1
sg9
I1
sg10
I-1
ssssg9
I1
sg10
(dp820
g2
I13
sg3
(dp821
g2
I7
sg3
(dp822
g2
I14
sg3
(dp823
g2
I12
sg3
I1
sg9
I1
sg10
I1
ssg9
I0
sg10
(dp824
g2
I2
sg3
I1
sg9
I1
sg10
I1
sssg9
I1
sg10
(dp825
g2
I28
sg3
(dp826
g2
I7
sg3
I-1
sg9
I0
sg10
I1
ssg9
I1
sg10
(dp827
g2
I1
sg3
I1
sg9
I1
sg10
I-1
ssssg9
I0
sg10
(dp828
g2
I5
sg3
I-1
sg9
I-1
sg10
I-1
ssssa(dp829
g2
I13
sg3
(dp830
g2
I25
sg3
(dp831
g2
I27
sg3
(dp832
g2
I9
sg3
(dp833
g2
I5
sg3
(dp834
g2
I21
sg3
I1
sg9
I1
sg10
I1
ssg9
I1
sg10
(dp835
g2
I1
sg3
I1
sg9
I0
sg10
I1
sssg9
I1
sg10
(dp836
g2
I10
sg3
(dp837
g2
I12
sg3
I1
sg9
I1
sg10
I1
ssg9
I1
sg10
(dp838
g2
I12
sg3
I1
sg9
I1
sg10
I1
ssssg9
I1
sg10
(dp839
g2
I13
sg3
(dp840
g2
I12
sg3
(dp841
g2
I6
sg3
I1
sg9
I0
sg10
I1
ssg9
I1
sg10
(dp842
g2
I22
sg3
I1
sg9
I1
sg10
I1
sssg9
I1
sg10
(dp843
g2
I14
sg3
(dp844
g2
I2
sg3
I1
sg9
I1
sg10
I1
ssg9
I0
sg10
(dp845
g2
I17
sg3
I-1
sg9
I1
sg10
I1
sssssg9
I1
sg10
(dp846
g2
I8
sg3
(dp847
g2
I7
sg3
(dp848
g2
I0
sg3
(dp849
g2
I11
sg3
I1
sg9
I1
sg10
I-1
ssg9
I1
sg10
(dp850
g2
I23
sg3
I1
sg9
I1
sg10
I1
sssg9
I1
sg10
(dp851
g2
I22
sg3
(dp852
g2
I5
sg3
I1
sg9
I1
sg10
I-1
ssg9
I1
sg10
(dp853
g2
I28
sg3
I-1
sg9
I0
sg10
I-1
ssssg9
I1
sg10
(dp854
g2
I5
sg3
(dp855
g2
I19
sg3
(dp856
g2
I9
sg3
I1
sg9
I1
sg10
I1
ssg9
I1
sg10
(dp857
g2
I29
sg3
I1
sg9
I1
sg10
I1
sssg9
I1
sg10
(dp858
g2
I13
sg3
(dp859
g2
I26
sg3
I1
sg9
I1
sg10
I1
ssg9
I1
sg10
(dp860
g2
I22
sg3
I1
sg9
I1
sg10
I1
ssssssg9
I0
sg10
(dp861
g2
I8
sg3
(dp862
g2
I1
sg3
I-1
sg9
I-1
sg10
I-1
ssg9
I1
sg10
(dp863
g2
I28
sg3
(dp864
g2
I12
sg3
(dp865
g2
I4
sg3
(dp866
g2
I7
sg3
I1
sg9
I1
sg10
I-1
ssg9
I1
sg10
(dp867
g2
I24
sg3
I-1
sg9
I-1
sg10
I-1
sssg9
I1
sg10
(dp868
g2
I4
sg3
(dp869
g2
I3
sg3
I-1
sg9
I1
sg10
I-1
ssg9
I1
sg10
(dp870
g2
I14
sg3
I-1
sg9
I1
sg10
I-1
ssssg9
I1
sg10
(dp871
g2
I24
sg3
(dp872
g2
I3
sg3
(dp873
g2
I27
sg3
I-1
sg9
I1
sg10
I-1
ssg9
I1
sg10
(dp874
g2
I21
sg3
I-1
sg9
I1
sg10
I-1
sssg9
I1
sg10
(dp875
g2
I17
sg3
(dp876
g2
I3
sg3
I-1
sg9
I1
sg10
I-1
ssg9
I1
sg10
(dp877
g2
I19
sg3
I-1
sg9
I1
sg10
I-1
ssssssa(dp878
g2
I23
sg3
(dp879
g2
I6
sg3
(dp880
g2
I26
sg3
(dp881
g2
I13
sg3
(dp882
g2
I4
sg3
(dp883
g2
I7
sg3
I1
sg9
I1
sg10
I1
ssg9
I1
sg10
(dp884
g2
I25
sg3
I1
sg9
I1
sg10
I-1
sssg9
I0
sg10
(dp885
g2
I2
sg3
I-1
sg9
I1
sg10
I-1
sssg9
I1
sg10
(dp886
g2
I27
sg3
(dp887
g2
I5
sg3
(dp888
g2
I14
sg3
I1
sg9
I0
sg10
I1
ssg9
I1
sg10
(dp889
g2
I7
sg3
I1
sg9
I1
sg10
I-1
sssg9
I1
sg10
(dp890
g2
I7
sg3
(dp891
g2
I4
sg3
I1
sg9
I1
sg10
I1
ssg9
I1
sg10
(dp892
g2
I25
sg3
I-1
sg9
I1
sg10
I-1
sssssg9
I1
sg10
(dp893
g2
I6
sg3
(dp894
g2
I10
sg3
(dp895
g2
I27
sg3
(dp896
g2
I14
sg3
I-1
sg9
I0
sg10
I-1
ssg9
I1
sg10
(dp897
g2
I4
sg3
I-1
sg9
I1
sg10
I-1
sssg9
I1
sg10
(dp898
g2
I11
sg3
(dp899
g2
I25
sg3
I-1
sg9
I1
sg10
I-1
ssg9
I1
sg10
(dp900
g2
I24
sg3
I-1
sg9
I1
sg10
I-1
ssssg9
I0
sg10
(dp901
g2
I12
sg3
(dp902
g2
I24
sg3
(dp903
g2
I13
sg3
I1
sg9
I0
sg10
I-1
ssg9
I1
sg10
(dp904
g2
I7
sg3
I1
sg9
I1
sg10
I-1
sssg9
I1
sg10
(dp905
g2
I0
sg3
(dp906
g2
I7
sg3
I1
sg9
I1
sg10
I-1
ssg9
I1
sg10
(dp907
g2
I25
sg3
I-1
sg9
I0
sg10
I1
ssssssg9
I1
sg10
(dp908
g2
I12
sg3
(dp909
g2
I25
sg3
(dp910
g2
I7
sg3
(dp911
g2
I14
sg3
(dp912
g2
I5
sg3
I1
sg9
I-1
sg10
I1
ssg9
I0
sg10
(dp913
g2
I18
sg3
I1
sg9
I1
sg10
I1
sssg9
I0
sg10
(dp914
g2
I0
sg3
(dp915
g2
I26
sg3
I1
sg9
I1
sg10
I-1
ssg9
I1
sg10
(dp916
g2
I8
sg3
I-1
sg9
I1
sg10
I-1
ssssg9
I1
sg10
(dp917
g2
I25
sg3
(dp918
g2
I5
sg3
(dp919
g2
I8
sg3
I1
sg9
I-1
sg10
I1
ssg9
I1
sg10
(dp920
g2
I14
sg3
I-1
sg9
I0
sg10
I-1
sssg9
I0
sg10
(dp921
g2
I7
sg3
(dp922
g2
I24
sg3
I1
sg9
I-1
sg10
I1
ssg9
I1
sg10
(dp923
g2
I12
sg3
I-1
sg9
I1
sg10
I-1
sssssg9
I1
sg10
(dp924
g2
I6
sg3
(dp925
g2
I20
sg3
(dp926
g2
I19
sg3
(dp927
g2
I13
sg3
I1
sg9
I0
sg10
I-1
ssg9
I1
sg10
(dp928
g2
I22
sg3
I-1
sg9
I1
sg10
I1
sssg9
I1
sg10
(dp929
g2
I5
sg3
(dp930
g2
I11
sg3
I1
sg9
I1
sg10
I1
ssg9
I1
sg10
(dp931
g2
I7
sg3
I1
sg9
I1
sg10
I-1
ssssg9
I1
sg10
(dp932
g2
I29
sg3
(dp933
g2
I25
sg3
(dp934
g2
I15
sg3
I1
sg9
I0
sg10
I1
ssg9
I1
sg10
(dp935
g2
I26
sg3
I-1
sg9
I1
sg10
I-1
sssg9
I1
sg10
(dp936
g2
I6
sg3
(dp937
g2
I7
sg3
I1
sg9
I1
sg10
I-1
ssg9
I0
sg10
(dp938
g2
I16
sg3
I1
sg9
I1
sg10
I-1
ssssssa(dp939
g2
I5
sg3
(dp940
g2
I10
sg3
(dp941
g2
I12
sg3
I1
sg9
I-1
sg10
I1
ssg9
I1
sg10
(dp942
g2
I15
sg3
I1
sg9
I-1
sg10
I1
sssg9
I1
sg10
(dp943
g2
I14
sg3
(dp944
g2
I8
sg3
(dp945
g2
I3
sg3
(dp946
g2
I13
sg3
(dp947
g2
I15
sg3
I1
sg9
I0
sg10
I1
ssg9
I0
sg10
(dp948
g2
I20
sg3
I-1
sg9
I1
sg10
I-1
sssg9
I1
sg10
(dp949
g2
I25
sg3
(dp950
g2
I13
sg3
I1
sg9
I0
sg10
I-1
ssg9
I1
sg10
(dp951
g2
I6
sg3
I-1
sg9
I1
sg10
I-1
ssssg9
I1
sg10
(dp952
g2
I7
sg3
(dp953
g2
I6
sg3
(dp954
g2
I24
sg3
I1
sg9
I1
sg10
I1
ssg9
I1
sg10
(dp955
g2
I16
sg3
I1
sg9
I1
sg10
I1
sssg9
I1
sg10
(dp956
g2
I7
sg3
(dp957
g2
I12
sg3
I-1
sg9
I1
sg10
I-1
ssg9
I0
sg10
(dp958
g2
I12
sg3
I-1
sg9
I1
sg10
I-1
sssssg9
I0
sg10
(dp959
g2
I23
sg3
(dp960
g2
I15
sg3
(dp961
g2
I7
sg3
(dp962
g2
I17
sg3
I1
sg9
I1
sg10
I1
ssg9
I1
sg10
(dp963
g2
I25
sg3
I-1
sg9
I1
sg10
I-1
sssg9
I1
sg10
(dp964
g2
I0
sg3
(dp965
g2
I2
sg3
I1
sg9
I1
sg10
I-1
ssg9
I1
sg10
(dp966
g2
I18
sg3
I1
sg9
I1
sg10
I-1
ssssg9
I1
sg10
(dp967
g2
I9
sg3
(dp968
g2
I2
sg3
(dp969
g2
I6
sg3
I1
sg9
I1
sg10
I-1
ssg9
I1
sg10
(dp970
g2
I12
sg3
I1
sg9
I1
sg10
I-1
sssg9
I1
sg10
(dp971
g2
I1
sg3
(dp972
g2
I7
sg3
I1
sg9
I1
sg10
I1
ssg9
I1
sg10
(dp973
g2
I13
sg3
I1
sg9
I0
sg10
I-1
ssssssa(dp974
g2
I5
sg3
(dp975
g2
I0
sg3
(dp976
g2
I4
sg3
(dp977
g2
I12
sg3
I1
sg9
I-1
sg10
I1
ssg9
I1
sg10
(dp978
g2
I2
sg3
I1
sg9
I-1
sg10
I1
sssg9
I1
sg10
(dp979
g2
I16
sg3
(dp980
g2
I29
sg3
(dp981
g2
I19
sg3
(dp982
g2
I21
sg3
I1
sg9
I1
sg10
I1
ssg9
I1
sg10
I1
ssg9
I1
sg10
(dp983
g2
I11
sg3
I1
sg9
I1
sg10
(dp984
g2
I5
sg3
I1
sg9
I1
sg10
I1
ssssg9
I1
sg10
(dp985
g2
I20
sg3
(dp986
g2
I7
sg3
I1
sg9
I1
sg10
I1
ssg9
I1
sg10
I1
ssssg9
I1
sg10
(dp987
g2
I7
sg3
(dp988
g2
I13
sg3
(dp989
g2
I23
sg3
(dp990
g2
I15
sg3
(dp991
g2
I11
sg3
I1
sg9
I1
sg10
I1
ssg9
I0
sg10
(dp992
g2
I13
sg3
I1
sg9
I1
sg10
I1
sssg9
I1
sg10
(dp993
g2
I15
sg3
(dp994
g2
I1
sg3
I1
sg9
I1
sg10
I1
ssg9
I0
sg10
(dp995
g2
I6
sg3
I1
sg9
I0
sg10
I1
ssssg9
I0
sg10
(dp996
g2
I0
sg3
(dp997
g2
I13
sg3
I-1
sg9
I-1
sg10
I-1
ssg9
I1
sg10
(dp998
g2
I21
sg3
(dp999
g2
I4
sg3
I-1
sg9
I-1
sg10
I-1
ssg9
I1
sg10
(dp1000
g2
I7
sg3
I-1
sg9
I1
sg10
I-1
sssssg9
I1
sg10
(dp1001
g2
I25
sg3
(dp1002
g2
I21
sg3
(dp1003
g2
I7
sg3
(dp1004
g2
I28
sg3
I-1
sg9
I0
sg10
I-1
ssg9
I0
sg10
(dp1005
g2
I27
sg3
I-1
sg9
I1
sg10
I-1
sssg9
I1
sg10
(dp1006
g2
I13
sg3
(dp1007
g2
I10
sg3
I-1
sg9
I1
sg10
I1
ssg9
I1
sg10
(dp1008
g2
I19
sg3
I-1
sg9
I1
sg10
I-1
ssssg9
I1
sg10
(dp1009
g2
I2
sg3
(dp1010
g2
I13
sg3
(dp1011
g2
I14
sg3
I1
sg9
I1
sg10
I-1
ssg9
I0
sg10
(dp1012
g2
I0
sg3
I-1
sg9
I1
sg10
I-1
sssg9
I1
sg10
(dp1013
g2
I10
sg3
(dp1014
g2
I7
sg3
I-1
sg9
I0
sg10
I-1
ssg9
I1
sg10
(dp1015
g2
I9
sg3
I-1
sg9
I-1
sg10
I-1
ssssssa(dp1016
g2
I25
sg3
(dp1017
g2
I27
sg3
(dp1018
g2
I7
sg3
(dp1019
g2
I13
sg3
(dp1020
g2
I13
sg3
(dp1021
g2
I14
sg3
I1
sg9
I-1
sg10
I1
ssg9
I1
sg10
(dp1022
g2
I28
sg3
I1
sg9
I1
sg10
I1
sssg9
I0
sg10
(dp1023
g2
I28
sg3
(dp1024
g2
I11
sg3
I1
sg9
I1
sg10
I-1
ssg9
I1
sg10
(dp1025
g2
I25
sg3
I-1
sg9
I1
sg10
I-1
ssssg9
I1
sg10
(dp1026
g2
I14
sg3
(dp1027
g2
I7
sg3
(dp1028
g2
I6
sg3
I-1
sg9
I1
sg10
I-1
ssg9
I0
sg10
(dp1029
g2
I28
sg3
I-1
sg9
I0
sg10
I-1
sssg9
I0
sg10
(dp1030
g2
I0
sg3
(dp1031
g2
I24
sg3
I-1
sg9
I1
sg10
I-1
ssg9
I1
sg10
(dp1032
g2
I3
sg3
I-1
sg9
I1
sg10
I-1
sssssg9
I1
sg10
(dp1033
g2
I26
sg3
(dp1034
g2
I14
sg3
(dp1035
g2
I7
sg3
(dp1036
g2
I12
sg3
I1
sg9
I1
sg10
I1
ssg9
I1
sg10
(dp1037
g2
I2
sg3
I-1
sg9
I1
sg10
I1
sssg9
I0
sg10
(dp1038
g2
I17
sg3
(dp1039
g2
I13
sg3
I1
sg9
I0
sg10
I-1
ssg9
I1
sg10
(dp1040
g2
I13
sg3
I1
sg9
I0
sg10
I1
ssssg9
I1
sg10
(dp1041
g2
I5
sg3
(dp1042
g2
I9
sg3
I1
sg9
I1
sg10
I1
ssg9
I1
sg10
(dp1043
g2
I7
sg3
(dp1044
g2
I20
sg3
I1
sg9
I1
sg10
I-1
ssg9
I1
sg10
(dp1045
g2
I4
sg3
I-1
sg9
I1
sg10
I-1
ssssssg9
I1
sg10
(dp1046
g2
I15
sg3
(dp1047
g2
I6
sg3
(dp1048
g2
I13
sg3
(dp1049
g2
I8
sg3
I1
sg9
I-1
sg10
I1
ssg9
I1
sg10
(dp1050
g2
I11
sg3
(dp1051
g2
I29
sg3
I1
sg9
I1
sg10
I1
ssg9
I1
sg10
(dp1052
g2
I25
sg3
I-1
sg9
I0
sg10
I1
ssssg9
I1
sg10
(dp1053
g2
I13
sg3
(dp1054
g2
I9
sg3
(dp1055
g2
I24
sg3
I1
sg9
I1
sg10
I1
ssg9
I1
sg10
(dp1056
g2
I1
sg3
I-1
sg9
I-1
sg10
I-1
sssg9
I0
sg10
(dp1057
g2
I12
sg3
I-1
sg9
I-1
sg10
I-1
ssssg9
I1
sg10
(dp1058
g2
I12
sg3
(dp1059
g2
I7
sg3
(dp1060
g2
I28
sg3
(dp1061
g2
I26
sg3
I1
sg9
I1
sg10
I1
ssg9
I0
sg10
(dp1062
g2
I16
sg3
I1
sg9
I1
sg10
I1
sssg9
I1
sg10
(dp1063
g2
I21
sg3
(dp1064
g2
I13
sg3
I1
sg9
I1
sg10
I-1
ssg9
I1
sg10
(dp1065
g2
I8
sg3
I-1
sg9
I-1
sg10
I-1
ssssg9
I1
sg10
(dp1066
g2
I23
sg3
(dp1067
g2
I7
sg3
(dp1068
g2
I1
sg3
I-1
sg9
I1
sg10
I1
ssg9
I1
sg10
(dp1069
g2
I5
sg3
I1
sg9
I1
sg10
I-1
sssg9
I1
sg10
(dp1070
g2
I0
sg3
(dp1071
g2
I22
sg3
I-1
sg9
I1
sg10
I-1
ssg9
I1
sg10
(dp1072
g2
I7
sg3
I-1
sg9
I1
sg10
I-1
ssssssa(dp1073
g2
I5
sg3
(dp1074
g2
I15
sg3
(dp1075
g2
I29
sg3
(dp1076
g2
I14
sg3
I1
sg9
I-1
sg10
I1
ssg9
I1
sg10
(dp1077
g2
I16
sg3
I1
sg9
I-1
sg10
I1
sssg9
I1
sg10
(dp1078
g2
I7
sg3
(dp1079
g2
I4
sg3
(dp1080
g2
I15
sg3
I1
sg9
I-1
sg10
I1
ssg9
I1
sg10
(dp1081
g2
I20
sg3
I1
sg9
I1
sg10
I1
sssg9
I1
sg10
(dp1082
g2
I10
sg3
I1
sg9
I1
sg10
I1
ssssg9
I1
sg10
(dp1083
g2
I15
sg3
(dp1084
g2
I7
sg3
(dp1085
g2
I13
sg3
(dp1086
g2
I11
sg3
(dp1087
g2
I19
sg3
I1
sg9
I-1
sg10
I1
ssg9
I1
sg10
(dp1088
g2
I12
sg3
I1
sg9
I1
sg10
I1
sssg9
I0
sg10
(dp1089
g2
I13
sg3
I-1
sg9
I-1
sg10
I-1
sssg9
I1
sg10
(dp1090
g2
I25
sg3
(dp1091
g2
I6
sg3
(dp1092
g2
I3
sg3
I-1
sg9
I1
sg10
I1
ssg9
I1
sg10
(dp1093
g2
I3
sg3
I-1
sg9
I1
sg10
I1
sssg9
I0
sg10
(dp1094
g2
I8
sg3
I-1
sg9
I-1
sg10
I-1
ssssg9
I0
sg10
(dp1095
g2
I7
sg3
(dp1096
g2
I19
sg3
(dp1097
g2
I6
sg3
(dp1098
g2
I13
sg3
I1
sg9
I0
sg10
I-1
ssg9
I1
sg10
(dp1099
g2
I8
sg3
I1
sg9
I1
sg10
I1
sssg9
I1
sg10
(dp1100
g2
I13
sg3
(dp1101
g2
I12
sg3
I1
sg9
I1
sg10
I1
ssg9
I0
sg10
I-1
sssg9
I1
sg10
(dp1102
g2
I7
sg3
(dp1103
g2
I12
sg3
(dp1104
g2
I10
sg3
I-1
sg9
I1
sg10
I-1
ssg9
I1
sg10
(dp1105
g2
I26
sg3
I-1
sg9
I-1
sg10
I-1
sssg9
I0
sg10
(dp1106
g2
I27
sg3
(dp1107
g2
I22
sg3
I-1
sg9
I1
sg10
I-1
ssg9
I1
sg10
(dp1108
g2
I14
sg3
I-1
sg9
I0
sg10
I-1
ssssssa(dp1109
g2
I7
sg3
(dp1110
g2
I3
sg3
(dp1111
g2
I6
sg3
(dp1112
g2
I24
sg3
(dp1113
g2
I25
sg3
(dp1114
g2
I15
sg3
I1
sg9
I0
sg10
I1
ssg9
I1
sg10
(dp1115
g2
I27
sg3
I1
sg9
I1
sg10
I1
sssg9
I1
sg10
(dp1116
g2
I0
sg3
(dp1117
g2
I20
sg3
I1
sg9
I1
sg10
I1
ssg9
I1
sg10
(dp1118
g2
I15
sg3
I1
sg9
I1
sg10
I1
ssssg9
I1
sg10
(dp1119
g2
I14
sg3
(dp1120
g2
I9
sg3
(dp1121
g2
I11
sg3
I1
sg9
I1
sg10
I1
ssg9
I1
sg10
(dp1122
g2
I12
sg3
I1
sg9
I1
sg10
I1
sssg9
I0
sg10
(dp1123
g2
I13
sg3
(dp1124
g2
I24
sg3
I1
sg9
I1
sg10
I1
ssg9
I0
sg10
(dp1125
g2
I25
sg3
I-1
sg9
I1
sg10
I-1
sssssg9
I1
sg10
(dp1126
g2
I29
sg3
(dp1127
g2
I9
sg3
(dp1128
g2
I12
sg3
(dp1129
g2
I6
sg3
I1
sg9
I1
sg10
I1
ssg9
I1
sg10
(dp1130
g2
I23
sg3
I1
sg9
I1
sg10
I1
sssg9
I1
sg10
(dp1131
g2
I10
sg3
I1
sg9
I-1
sg10
I1
sssg9
I1
sg10
(dp1132
g2
I8
sg3
I-1
sg9
I1
sg10
I1
ssssg9
I1
sg10
(dp1133
g2
I19
sg3
(dp1134
g2
I28
sg3
(dp1135
g2
I12
sg3
(dp1136
g2
I7
sg3
(dp1137
g2
I14
sg3
I-1
sg9
I0
sg10
I-1
ssg9
I0
sg10
(dp1138
g2
I5
sg3
I1
sg9
I1
sg10
I-1
sssg9
I1
sg10
(dp1139
g2
I3
sg3
(dp1140
g2
I14
sg3
I-1
sg9
I0
sg10
I-1
ssg9
I1
sg10
(dp1141
g2
I24
sg3
I-1
sg9
I-1
sg10
I-1
ssssg9
I0
sg10
(dp1142
g2
I1
sg3
(dp1143
g2
I29
sg3
(dp1144
g2
I10
sg3
I1
sg9
I1
sg10
I1
ssg9
I1
sg10
I-1
ssg9
I1
sg10
(dp1145
g2
I2
sg3
I-1
sg9
I1
sg10
I-1
ssssg9
I1
sg10
(dp1146
g2
I20
sg3
(dp1147
g2
I1
sg3
(dp1148
g2
I12
sg3
(dp1149
g2
I16
sg3
I-1
sg9
I1
sg10
I1
ssg9
I1
sg10
(dp1150
g2
I3
sg3
I-1
sg9
I1
sg10
I-1
sssg9
I1
sg10
(dp1151
g2
I21
sg3
I-1
sg9
I-1
sg10
I-1
sssg9
I1
sg10
(dp1152
g2
I5
sg3
I-1
sg9
I-1
sg10
I-1
ssssa(dp1153
g2
I7
sg3
(dp1154
g2
I6
sg3
(dp1155
g2
I14
sg3
(dp1156
g2
I28
sg3
(dp1157
g2
I0
sg3
(dp1158
g2
I8
sg3
I1
sg9
I1
sg10
I1
ssg9
I1
sg10
(dp1159
g2
I13
sg3
I1
sg9
I1
sg10
I1
sssg9
I1
sg10
(dp1160
g2
I26
sg3
(dp1161
g2
I21
sg3
I1
sg9
I1
sg10
I1
ssg9
I1
sg10
(dp1162
g2
I14
sg3
I1
sg9
I1
sg10
I1
ssssg9
I0
sg10
(dp1163
g2
I21
sg3
(dp1164
g2
I13
sg3
(dp1165
g2
I2
sg3
I1
sg9
I1
sg10
I1
ssg9
I0
sg10
(dp1166
g2
I8
sg3
I-1
sg9
I1
sg10
I1
sssg9
I1
sg10
(dp1167
g2
I22
sg3
(dp1168
g2
I15
sg3
I1
sg9
I0
sg10
I1
ssg9
I1
sg10
(dp1169
g2
I3
sg3
I1
sg9
I-1
sg10
I1
sssssg9
I1
sg10
(dp1170
g2
I14
sg3
(dp1171
g2
I9
sg3
(dp1172
g2
I14
sg3
(dp1173
g2
I25
sg3
I1
sg9
I1
sg10
I-1
ssg9
I1
sg10
(dp1174
g2
I15
sg3
I1
sg9
I0
sg10
I1
sssg9
I1
sg10
(dp1175
g2
I13
sg3
(dp1176
g2
I24
sg3
I1
sg9
I1
sg10
I1
ssg9
I0
sg10
(dp1177
g2
I17
sg3
I1
sg9
I1
sg10
I-1
ssssg9
I0
sg10
(dp1178
g2
I24
sg3
(dp1179
g2
I27
sg3
(dp1180
g2
I19
sg3
I1
sg9
I1
sg10
I1
ssg9
I1
sg10
(dp1181
g2
I1
sg3
I-1
sg9
I-1
sg10
I-1
sssg9
I1
sg10
(dp1182
g2
I15
sg3
(dp1183
g2
I28
sg3
I1
sg9
I1
sg10
I1
ssg9
I1
sg10
(dp1184
g2
I23
sg3
I1
sg9
I1
sg10
I1
ssssssg9
I1
sg10
(dp1185
g2
I5
sg3
(dp1186
g2
I0
sg3
(dp1187
g2
I10
sg3
I1
sg9
I1
sg10
I1
ssg9
I1
sg10
(dp1188
g2
I8
sg3
I1
sg9
I-1
sg10
I1
sssg9
I1
sg10
(dp1189
g2
I7
sg3
(dp1190
g2
I28
sg3
(dp1191
g2
I10
sg3
I-1
sg9
I-1
sg10
I-1
ssg9
I0
sg10
(dp1192
g2
I23
sg3
(dp1193
g2
I1
sg3
I-1
sg9
I1
sg10
I-1
ssg9
I1
sg10
(dp1194
g2
I10
sg3
I1
sg9
I1
sg10
I1
ssssg9
I0
sg10
(dp1195
g2
I13
sg3
(dp1196
g2
I14
sg3
(dp1197
g2
I27
sg3
I1
sg9
I1
sg10
I-1
ssg9
I0
sg10
(dp1198
g2
I25
sg3
I-1
sg9
I1
sg10
I-1
sssg9
I0
sg10
(dp1199
g2
I7
sg3
I-1
sg9
I-1
sg10
I-1
sssssa(dp1200
g2
I6
sg3
(dp1201
g2
I5
sg3
(dp1202
g2
I20
sg3
I1
sg9
I-1
sg10
I1
ssg9
I1
sg10
(dp1203
g2
I13
sg3
(dp1204
g2
I26
sg3
(dp1205
g2
I25
sg3
(dp1206
g2
I15
sg3
I1
sg9
I0
sg10
I1
ssg9
I1
sg10
(dp1207
g2
I16
sg3
I1
sg9
I1
sg10
I1
sssg9
I1
sg10
(dp1208
g2
I27
sg3
(dp1209
g2
I14
sg3
I1
sg9
I0
sg10
I1
ssg9
I1
sg10
(dp1210
g2
I1
sg3
I1
sg9
I0
sg10
I1
ssssg9
I0
sg10
(dp1211
g2
I9
sg3
(dp1212
g2
I20
sg3
I-1
sg9
I1
sg10
I-1
ssg9
I1
sg10
(dp1213
g2
I19
sg3
(dp1214
g2
I21
sg3
I-1
sg9
I1
sg10
I-1
ssg9
I1
sg10
(dp1215
g2
I7
sg3
I1
sg9
I1
sg10
I-1
ssssssg9
I1
sg10
(dp1216
g2
I25
sg3
(dp1217
g2
I13
sg3
(dp1218
g2
I13
sg3
(dp1219
g2
I24
sg3
(dp1220
g2
I7
sg3
I1
sg9
I1
sg10
I1
ssg9
I1
sg10
(dp1221
g2
I7
sg3
I1
sg9
I1
sg10
I1
sssg9
I1
sg10
(dp1222
g2
I14
sg3
(dp1223
g2
I15
sg3
I1
sg9
I0
sg10
I1
ssg9
I0
sg10
(dp1224
g2
I21
sg3
I-1
sg9
I1
sg10
I1
ssssg9
I0
sg10
(dp1225
g2
I28
sg3
(dp1226
g2
I5
sg3
(dp1227
g2
I21
sg3
I1
sg9
I1
sg10
I1
ssg9
I1
sg10
(dp1228
g2
I7
sg3
I-1
sg9
I1
sg10
I-1
sssg9
I1
sg10
(dp1229
g2
I16
sg3
I-1
sg9
I-1
sg10
I-1
ssssg9
I1
sg10
(dp1230
g2
I2
sg3
(dp1231
g2
I16
sg3
(dp1232
g2
I10
sg3
(dp1233
g2
I12
sg3
I-1
sg9
I1
sg10
I-1
ssg9
I1
sg10
I1
ssg9
I1
sg10
(dp1234
g2
I5
sg3
(dp1235
g2
I11
sg3
I1
sg9
I1
sg10
I1
ssg9
I1
sg10
(dp1236
g2
I22
sg3
I-1
sg9
I1
sg10
I-1
ssssg9
I1
sg10
(dp1237
g2
I17
sg3
(dp1238
g2
I27
sg3
(dp1239
g2
I24
sg3
I1
sg9
I1
sg10
I-1
ssg9
I1
sg10
(dp1240
g2
I29
sg3
I-1
sg9
I1
sg10
I-1
sssg9
I1
sg10
(dp1241
g2
I12
sg3
(dp1242
g2
I14
sg3
I1
sg9
I1
sg10
I-1
ssg9
I1
sg10
(dp1243
g2
I4
sg3
I-1
sg9
I1
sg10
I-1
ssssssa(dp1244
g2
I7
sg3
(dp1245
g2
I25
sg3
(dp1246
g2
I6
sg3
(dp1247
g2
I12
sg3
(dp1248
g2
I26
sg3
(dp1249
g2
I23
sg3
I1
sg9
I1
sg10
I1
ssg9
I1
sg10
(dp1250
g2
I13
sg3
I1
sg9
I1
sg10
I1
sssg9
I1
sg10
(dp1251
g2
I5
sg3
(dp1252
g2
I15
sg3
I1
sg9
I-1
sg10
I1
ssg9
I1
sg10
(dp1253
g2
I14
sg3
I1
sg9
I1
sg10
I1
ssssg9
I1
sg10
(dp1254
g2
I1
sg3
(dp1255
g2
I18
sg3
(dp1256
g2
I13
sg3
I1
sg9
I1
sg10
I-1
ssg9
I1
sg10
(dp1257
g2
I24
sg3
I1
sg9
I-1
sg10
I1
sssg9
I1
sg10
(dp1258
g2
I13
sg3
(dp1259
g2
I2
sg3
I1
sg9
I1
sg10
I1
ssg9
I0
sg10
(dp1260
g2
I29
sg3
I-1
sg9
I1
sg10
I1
sssssg9
I1
sg10
(dp1261
g2
I13
sg3
(dp1262
g2
I23
sg3
(dp1263
g2
I13
sg3
(dp1264
g2
I5
sg3
I1
sg9
I-1
sg10
I1
ssg9
I1
sg10
(dp1265
g2
I25
sg3
I1
sg9
I0
sg10
I1
sssg9
I1
sg10
(dp1266
g2
I15
sg3
(dp1267
g2
I18
sg3
I1
sg9
I1
sg10
I1
ssg9
I0
sg10
(dp1268
g2
I27
sg3
I1
sg9
I1
sg10
I-1
ssssg9
I0
sg10
(dp1269
g2
I14
sg3
I-1
sg9
I-1
sg10
I-1
ssssg9
I1
sg10
(dp1270
g2
I21
sg3
(dp1271
g2
I13
sg3
(dp1272
g2
I15
sg3
(dp1273
g2
I25
sg3
(dp1274
g2
I28
sg3
I1
sg9
I1
sg10
I1
ssg9
I1
sg10
I-1
ssg9
I1
sg10
(dp1275
g2
I14
sg3
(dp1276
g2
I2
sg3
I-1
sg9
I1
sg10
I1
ssg9
I0
sg10
(dp1277
g2
I27
sg3
I-1
sg9
I1
sg10
I-1
ssssg9
I0
sg10
(dp1278
g2
I27
sg3
(dp1279
g2
I28
sg3
(dp1280
g2
I21
sg3
I-1
sg9
I1
sg10
I-1
ssg9
I0
sg10
(dp1281
g2
I10
sg3
I-1
sg9
I1
sg10
I-1
sssg9
I1
sg10
(dp1282
g2
I1
sg3
I-1
sg9
I-1
sg10
I-1
ssssg9
I1
sg10
(dp1283
g2
I8
sg3
(dp1284
g2
I19
sg3
(dp1285
g2
I25
sg3
I-1
sg9
I-1
sg10
I-1
ssg9
I1
sg10
(dp1286
g2
I3
sg3
(dp1287
g2
I12
sg3
I-1
sg9
I-1
sg10
I-1
ssg9
I1
sg10
(dp1288
g2
I27
sg3
I-1
sg9
I-1
sg10
I-1
ssssg9
I1
sg10
(dp1289
g2
I12
sg3
(dp1290
g2
I24
sg3
(dp1291
g2
I6
sg3
I-1
sg9
I1
sg10
I-1
ssg9
I1
sg10
(dp1292
g2
I15
sg3
I-1
sg9
I-1
sg10
I-1
sssg9
I1
sg10
(dp1293
g2
I14
sg3
(dp1294
g2
I17
sg3
I-1
sg9
I-1
sg10
I-1
ssg9
I1
sg10
(dp1295
g2
I7
sg3
I-1
sg9
I0
sg10
I-1
ssssssa(dp1296
g2
I25
sg3
(dp1297
g2
I1
sg3
(dp1298
g2
I7
sg3
(dp1299
g2
I27
sg3
(dp1300
g2
I29
sg3
(dp1301
g2
I19
sg3
I1
sg9
I1
sg10
I1
ssg9
I1
sg10
(dp1302
g2
I1
sg3
I1
sg9
I1
sg10
I1
sssg9
I1
sg10
(dp1303
g2
I24
sg3
(dp1304
g2
I12
sg3
I1
sg9
I1
sg10
I-1
ssg9
I1
sg10
(dp1305
g2
I1
sg3
I1
sg9
I1
sg10
I1
ssssg9
I1
sg10
(dp1306
g2
I4
sg3
(dp1307
g2
I23
sg3
(dp1308
g2
I18
sg3
I-1
sg9
I1
sg10
I1
ssg9
I1
sg10
(dp1309
g2
I24
sg3
I1
sg9
I1
sg10
I1
sssg9
I1
sg10
(dp1310
g2
I5
sg3
I1
sg9
I1
sg10
(dp1311
g2
I7
sg3
I-1
sg9
I-1
sg10
I-1
sssssg9
I1
sg10
(dp1312
g2
I1
sg3
(dp1313
g2
I15
sg3
I-1
sg9
I-1
sg10
I-1
ssg9
I0
sg10
(dp1314
g2
I14
sg3
(dp1315
g2
I15
sg3
(dp1316
g2
I13
sg3
I1
sg9
I0
sg10
I-1
ssg9
I0
sg10
(dp1317
g2
I13
sg3
I1
sg9
I0
sg10
I-1
sssg9
I0
sg10
(dp1318
g2
I13
sg3
(dp1319
g2
I6
sg3
I1
sg9
I1
sg10
I1
ssg9
I0
sg10
(dp1320
g2
I28
sg3
I-1
sg9
I1
sg10
I-1
ssssssg9
I1
sg10
(dp1321
g2
I6
sg3
(dp1322
g2
I24
sg3
(dp1323
g2
I14
sg3
(dp1324
g2
I7
sg3
(dp1325
g2
I25
sg3
I1
sg9
I0
sg10
I1
ssg9
I1
sg10
(dp1326
g2
I7
sg3
I-1
sg9
I0
sg10
I1
sssg9
I0
sg10
(dp1327
g2
I7
sg3
(dp1328
g2
I12
sg3
I1
sg9
I1
sg10
I1
ssg9
I1
sg10
(dp1329
g2
I29
sg3
I-1
sg9
I1
sg10
I-1
ssssg9
I1
sg10
(dp1330
g2
I13
sg3
(dp1331
g2
I19
sg3
(dp1332
g2
I0
sg3
I1
sg9
I1
sg10
I1
ssg9
I1
sg10
I-1
ssg9
I0
sg10
(dp1333
g2
I0
sg3
I-1
sg9
I-1
sg10
I-1
ssssg9
I1
sg10
(dp1334
g2
I13
sg3
(dp1335
g2
I26
sg3
(dp1336
g2
I2
sg3
(dp1337
g2
I14
sg3
I-1
sg9
I0
sg10
I-1
ssg9
I1
sg10
(dp1338
g2
I14
sg3
I1
sg9
I1
sg10
I1
sssg9
I1
sg10
(dp1339
g2
I7
sg3
(dp1340
g2
I29
sg3
I1
sg9
I1
sg10
I-1
ssg9
I1
sg10
(dp1341
g2
I13
sg3
I-1
sg9
I1
sg10
I-1
ssssg9
I0
sg10
(dp1342
g2
I14
sg3
(dp1343
g2
I21
sg3
I-1
sg9
I-1
sg10
I-1
ssg9
I0
sg10
(dp1344
g2
I25
sg3
I-1
sg9
I-1
sg10
I-1
sssssa(dp1345
g2
I13
sg3
(dp1346
g2
I15
sg3
(dp1347
g2
I14
sg3
(dp1348
g2
I11
sg3
(dp1349
g2
I19
sg3
I1
sg9
I-1
sg10
I1
ssg9
I1
sg10
(dp1350
g2
I17
sg3
I1
sg9
I-1
sg10
I1
sssg9
I1
sg10
(dp1351
g2
I15
sg3
(dp1352
g2
I7
sg3
(dp1353
g2
I1
sg3
I1
sg9
I1
sg10
I1
ssg9
I1
sg10
(dp1354
g2
I0
sg3
I-1
sg9
I1
sg10
I-1
sssg9
I1
sg10
(dp1355
g2
I23
sg3
(dp1356
g2
I7
sg3
I1
sg9
I1
sg10
I-1
ssg9
I1
sg10
(dp1357
g2
I12
sg3
I1
sg9
I1
sg10
I1
sssssg9
I0
sg10
(dp1358
g2
I23
sg3
(dp1359
g2
I17
sg3
(dp1360
g2
I14
sg3
(dp1361
g2
I8
sg3
I1
sg9
I1
sg10
I1
ssg9
I0
sg10
(dp1362
g2
I12
sg3
I1
sg9
I1
sg10
I1
sssg9
I1
sg10
(dp1363
g2
I6
sg3
(dp1364
g2
I26
sg3
I1
sg9
I-1
sg10
I1
ssg9
I1
sg10
(dp1365
g2
I11
sg3
I1
sg9
I1
sg10
I1
ssssg9
I1
sg10
(dp1366
g2
I25
sg3
(dp1367
g2
I11
sg3
(dp1368
g2
I8
sg3
I1
sg9
I1
sg10
I1
ssg9
I1
sg10
(dp1369
g2
I4
sg3
I1
sg9
I1
sg10
I1
sssg9
I1
sg10
(dp1370
g2
I7
sg3
(dp1371
g2
I27
sg3
I1
sg9
I1
sg10
I-1
ssg9
I1
sg10
(dp1372
g2
I6
sg3
I1
sg9
I1
sg10
I-1
ssssssg9
I0
sg10
(dp1373
g2
I12
sg3
(dp1374
g2
I28
sg3
(dp1375
g2
I14
sg3
(dp1376
g2
I25
sg3
(dp1377
g2
I6
sg3
I-1
sg9
I0
sg10
I1
ssg9
I1
sg10
(dp1378
g2
I23
sg3
I-1
sg9
I1
sg10
I-1
sssg9
I0
sg10
(dp1379
g2
I20
sg3
(dp1380
g2
I10
sg3
I-1
sg9
I1
sg10
I-1
ssg9
I1
sg10
(dp1381
g2
I7
sg3
I-1
sg9
I0
sg10
I-1
ssssg9
I1
sg10
(dp1382
g2
I17
sg3
(dp1383
g2
I7
sg3
I-1
sg9
I-1
sg10
I-1
ssg9
I1
sg10
(dp1384
g2
I10
sg3
(dp1385
g2
I24
sg3
I-1
sg9
I-1
sg10
I-1
ssg9
I1
sg10
I-1
ssssg9
I1
sg10
(dp1386
g2
I17
sg3
(dp1387
g2
I7
sg3
I-1
sg9
I-1
sg10
I-1
ssg9
I1
sg10
(dp1388
g2
I22
sg3
(dp1389
g2
I12
sg3
I-1
sg9
I-1
sg10
I-1
ssg9
I1
sg10
(dp1390
g2
I18
sg3
I-1
sg9
I0
sg10
I-1
sssssa(dp1391
g2
I15
sg3
(dp1392
g2
I14
sg3
(dp1393
g2
I13
sg3
(dp1394
g2
I24
sg3
(dp1395
g2
I4
sg3
(dp1396
g2
I12
sg3
I1
sg9
I-1
sg10
I1
ssg9
I1
sg10
(dp1397
g2
I23
sg3
I1
sg9
I1
sg10
I1
sssg9
I1
sg10
(dp1398
g2
I21
sg3
(dp1399
g2
I8
sg3
I1
sg9
I-1
sg10
I1
ssg9
I1
sg10
(dp1400
g2
I23
sg3
I1
sg9
I1
sg10
I-1
ssssg9
I0
sg10
(dp1401
g2
I14
sg3
I-1
sg9
I1
sg10
I-1
sssg9
I1
sg10
(dp1402
g2
I21
sg3
(dp1403
g2
I13
sg3
(dp1404
g2
I5
sg3
(dp1405
g2
I10
sg3
I1
sg9
I1
sg10
I1
ssg9
I1
sg10
(dp1406
g2
I24
sg3
I1
sg9
I1
sg10
I1
sssg9
I0
sg10
(dp1407
g2
I23
sg3
(dp1408
g2
I28
sg3
I-1
sg9
I1
sg10
I-1
ssg9
I1
sg10
(dp1409
g2
I19
sg3
I-1
sg9
I1
sg10
I-1
ssssg9
I1
sg10
(dp1410
g2
I10
sg3
(dp1411
g2
I25
sg3
(dp1412
g2
I22
sg3
I1
sg9
I-1
sg10
I1
ssg9
I1
sg10
(dp1413
g2
I19
sg3
I1
sg9
I1
sg10
I1
sssg9
I1
sg10
(dp1414
g2
I12
sg3
(dp1415
g2
I3
sg3
I1
sg9
I-1
sg10
I1
ssg9
I1
sg10
(dp1416
g2
I25
sg3
I1
sg9
I1
sg10
I-1
ssssssg9
I0
sg10
(dp1417
g2
I13
sg3
(dp1418
g2
I27
sg3
(dp1419
g2
I14
sg3
(dp1420
g2
I6
sg3
(dp1421
g2
I5
sg3
I1
sg9
I1
sg10
I1
ssg9
I1
sg10
(dp1422
g2
I13
sg3
I1
sg9
I1
sg10
I1
sssg9
I0
sg10
(dp1423
g2
I5
sg3
(dp1424
g2
I11
sg3
I1
sg9
I1
sg10
I1
ssg9
I1
sg10
(dp1425
g2
I13
sg3
I1
sg9
I1
sg10
I-1
ssssg9
I1
sg10
(dp1426
g2
I7
sg3
(dp1427
g2
I26
sg3
(dp1428
g2
I7
sg3
I1
sg9
I1
sg10
I1
ssg9
I1
sg10
(dp1429
g2
I23
sg3
I1
sg9
I1
sg10
I1
sssg9
I1
sg10
(dp1430
g2
I5
sg3
(dp1431
g2
I28
sg3
I1
sg9
I1
sg10
I1
ssg9
I1
sg10
(dp1432
g2
I25
sg3
I-1
sg9
I1
sg10
I-1
sssssg9
I0
sg10
(dp1433
g2
I5
sg3
(dp1434
g2
I26
sg3
I1
sg9
I-1
sg10
I1
ssg9
I1
sg10
(dp1435
g2
I25
sg3
I-1
sg9
I-1
sg10
I-1
ssssa(dp1436
g2
I13
sg3
(dp1437
g2
I14
sg3
(dp1438
g2
I8
sg3
(dp1439
g2
I15
sg3
(dp1440
g2
I21
sg3
(dp1441
g2
I18
sg3
I1
sg9
I0
sg10
I1
ssg9
I1
sg10
(dp1442
g2
I10
sg3
I1
sg9
I1
sg10
I-1
sssg9
I0
sg10
(dp1443
g2
I5
sg3
(dp1444
g2
I3
sg3
I1
sg9
I1
sg10
I1
ssg9
I1
sg10
(dp1445
g2
I17
sg3
I1
sg9
I1
sg10
I1
ssssg9
I1
sg10
(dp1446
g2
I11
sg3
(dp1447
g2
I6
sg3
(dp1448
g2
I19
sg3
I1
sg9
I1
sg10
I1
ssg9
I1
sg10
(dp1449
g2
I29
sg3
I1
sg9
I1
sg10
I1
sssg9
I1
sg10
(dp1450
g2
I9
sg3
(dp1451
g2
I17
sg3
I1
sg9
I1
sg10
I1
ssg9
I1
sg10
(dp1452
g2
I21
sg3
I-1
sg9
I1
sg10
I1
sssssg9
I0
sg10
(dp1453
g2
I1
sg3
(dp1454
g2
I24
sg3
(dp1455
g2
I7
sg3
(dp1456
g2
I5
sg3
I1
sg9
I1
sg10
I1
ssg9
I1
sg10
I-1
ssg9
I1
sg10
(dp1457
g2
I24
sg3
I1
sg9
I-1
sg10
I1
sssg9
I1
sg10
(dp1458
g2
I17
sg3
(dp1459
g2
I27
sg3
(dp1460
g2
I9
sg3
I1
sg9
I1
sg10
I1
ssg9
I1
sg10
(dp1461
g2
I7
sg3
I1
sg9
I1
sg10
I-1
sssg9
I1
sg10
(dp1462
g2
I15
sg3
(dp1463
g2
I26
sg3
I1
sg9
I-1
sg10
I1
ssg9
I0
sg10
(dp1464
g2
I29
sg3
I1
sg9
I1
sg10
I1
ssssssg9
I0
sg10
(dp1465
g2
I26
sg3
(dp1466
g2
I15
sg3
I-1
sg9
I-1
sg10
I-1
ssg9
I1
sg10
(dp1467
g2
I28
sg3
(dp1468
g2
I25
sg3
(dp1469
g2
I5
sg3
(dp1470
g2
I18
sg3
I1
sg9
I0
sg10
I1
ssg9
I1
sg10
(dp1471
g2
I22
sg3
I-1
sg9
I1
sg10
I-1
sssg9
I1
sg10
(dp1472
g2
I21
sg3
(dp1473
g2
I28
sg3
I-1
sg9
I1
sg10
I-1
ssg9
I1
sg10
(dp1474
g2
I2
sg3
I-1
sg9
I-1
sg10
I-1
ssssg9
I1
sg10
(dp1475
g2
I5
sg3
I-1
sg9
I-1
sg10
I-1
ssssa(dp1476
g2
I13
sg3
(dp1477
g2
I21
sg3
(dp1478
g2
I12
sg3
(dp1479
g2
I5
sg3
(dp1480
g2
I21
sg3
I1
sg9
I1
sg10
I1
ssg9
I1
sg10
(dp1481
g2
I7
sg3
(dp1482
g2
I17
sg3
I1
sg9
I1
sg10
I1
ssg9
I1
sg10
(dp1483
g2
I1
sg3
I1
sg9
I1
sg10
I-1
ssssg9
I1
sg10
(dp1484
g2
I25
sg3
(dp1485
g2
I2
sg3
(dp1486
g2
I13
sg3
I1
sg9
I1
sg10
I1
ssg9
I1
sg10
(dp1487
g2
I11
sg3
I1
sg9
I-1
sg10
I1
sssg9
I1
sg10
(dp1488
g2
I5
sg3
(dp1489
g2
I20
sg3
I1
sg9
I1
sg10
I1
ssg9
I1
sg10
(dp1490
g2
I11
sg3
I1
sg9
I1
sg10
I1
sssssg9
I1
sg10
(dp1491
g2
I25
sg3
(dp1492
g2
I28
sg3
(dp1493
g2
I26
sg3
(dp1494
g2
I21
sg3
I1
sg9
I-1
sg10
I1
ssg9
I1
sg10
(dp1495
g2
I8
sg3
I1
sg9
I1
sg10
I1
sssg9
I0
sg10
(dp1496
g2
I15
sg3
(dp1497
g2
I15
sg3
I1
sg9
I1
sg10
I1
ssg9
I0
sg10
(dp1498
g2
I4
sg3
I1
sg9
I1
sg10
I-1
ssssg9
I1
sg10
(dp1499
g2
I13
sg3
(dp1500
g2
I16
sg3
I1
sg9
I-1
sg10
I1
ssg9
I1
sg10
(dp1501
g2
I7
sg3
(dp1502
g2
I24
sg3
I1
sg9
I1
sg10
I1
ssg9
I1
sg10
(dp1503
g2
I29
sg3
I-1
sg9
I1
sg10
I-1
ssssssg9
I0
sg10
(dp1504
g2
I7
sg3
(dp1505
g2
I29
sg3
(dp1506
g2
I24
sg3
(dp1507
g2
I24
sg3
I-1
sg9
I1
sg10
I-1
ssg9
I1
sg10
(dp1508
g2
I12
sg3
I-1
sg9
I-1
sg10
I-1
sssg9
I1
sg10
(dp1509
g2
I23
sg3
(dp1510
g2
I16
sg3
I-1
sg9
I1
sg10
I1
ssg9
I1
sg10
I-1
sssg9
I1
sg10
(dp1511
g2
I2
sg3
(dp1512
g2
I12
sg3
(dp1513
g2
I14
sg3
I-1
sg9
I-1
sg10
I-1
ssg9
I1
sg10
(dp1514
g2
I20
sg3
(dp1515
g2
I8
sg3
I-1
sg9
I1
sg10
I-1
ssg9
I1
sg10
(dp1516
g2
I5
sg3
I-1
sg9
I-1
sg10
I-1
ssssg9
I1
sg10
(dp1517
g2
I25
sg3
I-1
sg9
I-1
sg10
I-1
ssssa(dp1518
g2
I14
sg3
(dp1519
g2
I5
sg3
(dp1520
g2
I22
sg3
I1
sg9
I-1
sg10
I1
ssg9
I1
sg10
(dp1521
g2
I13
sg3
(dp1522
g2
I27
sg3
(dp1523
g2
I15
sg3
(dp1524
g2
I7
sg3
I1
sg9
I1
sg10
I1
ssg9
I0
sg10
(dp1525
g2
I17
sg3
I1
sg9
I1
sg10
I1
sssg9
I1
sg10
(dp1526
g2
I0
sg3
(dp1527
g2
I22
sg3
I1
sg9
I1
sg10
I-1
ssg9
I1
sg10
(dp1528
g2
I9
sg3
I1
sg9
I1
sg10
I-1
ssssg9
I0
sg10
(dp1529
g2
I7
sg3
(dp1530
g2
I14
sg3
(dp1531
g2
I22
sg3
I-1
sg9
I1
sg10
I1
ssg9
I1
sg10
(dp1532
g2
I8
sg3
I-1
sg9
I1
sg10
I-1
sssg9
I1
sg10
(dp1533
g2
I18
sg3
I-1
sg9
I0
sg10
I-1
sssssg9
I0
sg10
(dp1534
g2
I13
sg3
(dp1535
g2
I7
sg3
(dp1536
g2
I13
sg3
(dp1537
g2
I28
sg3
(dp1538
g2
I8
sg3
I1
sg9
I-1
sg10
I1
ssg9
I0
sg10
(dp1539
g2
I5
sg3
I1
sg9
I1
sg10
I1
sssg9
I1
sg10
(dp1540
g2
I1
sg3
(dp1541
g2
I3
sg3
I1
sg9
I1
sg10
I1
ssg9
I1
sg10
(dp1542
g2
I5
sg3
I1
sg9
I1
sg10
I1
ssssg9
I1
sg10
(dp1543
g2
I4
sg3
(dp1544
g2
I20
sg3
(dp1545
g2
I24
sg3
I-1
sg9
I1
sg10
I-1
ssg9
I1
sg10
(dp1546
g2
I11
sg3
I-1
sg9
I1
sg10
I-1
sssg9
I1
sg10
(dp1547
g2
I28
sg3
(dp1548
g2
I20
sg3
I-1
sg9
I1
sg10
I-1
ssg9
I1
sg10
I-1
ssssg9
I0
sg10
(dp1549
g2
I27
sg3
(dp1550
g2
I0
sg3
(dp1551
g2
I28
sg3
(dp1552
g2
I29
sg3
I-1
sg9
I1
sg10
I-1
ssg9
I1
sg10
(dp1553
g2
I10
sg3
I-1
sg9
I1
sg10
I-1
sssg9
I1
sg10
(dp1554
g2
I29
sg3
(dp1555
g2
I2
sg3
I-1
sg9
I1
sg10
I-1
ssg9
I1
sg10
(dp1556
g2
I24
sg3
I-1
sg9
I1
sg10
I-1
ssssg9
I1
sg10
(dp1557
g2
I27
sg3
I-1
sg9
I-1
sg10
I-1
ssssa(dp1558
g2
I14
sg3
(dp1559
g2
I26
sg3
(dp1560
g2
I13
sg3
(dp1561
g2
I15
sg3
(dp1562
g2
I9
sg3
(dp1563
g2
I25
sg3
I1
sg9
I-1
sg10
I1
ssg9
I1
sg10
(dp1564
g2
I25
sg3
I1
sg9
I1
sg10
I1
sssg9
I0
sg10
(dp1565
g2
I20
sg3
(dp1566
g2
I23
sg3
I1
sg9
I1
sg10
I1
ssg9
I1
sg10
(dp1567
g2
I29
sg3
I-1
sg9
I1
sg10
I1
ssssg9
I0
sg10
(dp1568
g2
I26
sg3
I-1
sg9
I1
sg10
I-1
sssg9
I1
sg10
(dp1569
g2
I13
sg3
(dp1570
g2
I7
sg3
(dp1571
g2
I11
sg3
(dp1572
g2
I25
sg3
I1
sg9
I1
sg10
I1
ssg9
I1
sg10
(dp1573
g2
I2
sg3
I1
sg9
I-1
sg10
I1
sssg9
I1
sg10
(dp1574
g2
I2
sg3
(dp1575
g2
I18
sg3
I-1
sg9
I1
sg10
I-1
ssg9
I1
sg10
(dp1576
g2
I0
sg3
I1
sg9
I-1
sg10
I1
ssssg9
I0
sg10
(dp1577
g2
I19
sg3
(dp1578
g2
I13
sg3
I-1
sg9
I-1
sg10
I-1
ssg9
I1
sg10
(dp1579
g2
I7
sg3
(dp1580
g2
I10
sg3
I-1
sg9
I1
sg10
I1
ssg9
I1
sg10
(dp1581
g2
I18
sg3
I-1
sg9
I0
sg10
I-1
ssssssg9
I0
sg10
(dp1582
g2
I7
sg3
(dp1583
g2
I27
sg3
(dp1584
g2
I25
sg3
(dp1585
g2
I1
sg3
(dp1586
g2
I17
sg3
I1
sg9
I1
sg10
I1
ssg9
I1
sg10
(dp1587
g2
I15
sg3
I1
sg9
I0
sg10
I1
sssg9
I1
sg10
(dp1588
g2
I23
sg3
(dp1589
g2
I25
sg3
I1
sg9
I0
sg10
I1
ssg9
I1
sg10
(dp1590
g2
I8
sg3
I-1
sg9
I1
sg10
I1
ssssg9
I1
sg10
(dp1591
g2
I11
sg3
(dp1592
g2
I6
sg3
(dp1593
g2
I28
sg3
I1
sg9
I1
sg10
I1
ssg9
I1
sg10
(dp1594
g2
I29
sg3
I-1
sg9
I1
sg10
I-1
sssg9
I1
sg10
(dp1595
g2
I16
sg3
(dp1596
g2
I8
sg3
I1
sg9
I-1
sg10
I1
ssg9
I1
sg10
I-1
ssssg9
I1
sg10
(dp1597
g2
I26
sg3
(dp1598
g2
I2
sg3
(dp1599
g2
I0
sg3
(dp1600
g2
I21
sg3
I-1
sg9
I1
sg10
I-1
ssg9
I1
sg10
(dp1601
g2
I12
sg3
I-1
sg9
I-1
sg10
I-1
sssg9
I1
sg10
(dp1602
g2
I27
sg3
I-1
sg9
I-1
sg10
I-1
sssg9
I1
sg10
(dp1603
g2
I28
sg3
(dp1604
g2
I13
sg3
(dp1605
g2
I12
sg3
I-1
sg9
I1
sg10
I-1
ssg9
I0
sg10
(dp1606
g2
I13
sg3
I-1
sg9
I-1
sg10
I-1
sssg9
I1
sg10
(dp1607
g2
I10
sg3
(dp1608
g2
I24
sg3
I-1
sg9
I1
sg10
I-1
ssg9
I1
sg10
(dp1609
g2
I19
sg3
I-1
sg9
I1
sg10
I-1
ssssssa(dp1610
g2
I14
sg3
(dp1611
g2
I7
sg3
(dp1612
g2
I13
sg3
(dp1613
g2
I27
sg3
(dp1614
g2
I29
sg3
(dp1615
g2
I1
sg3
I1
sg9
I1
sg10
I1
ssg9
I1
sg10
(dp1616
g2
I16
sg3
I1
sg9
I-1
sg10
I1
sssg9
I1
sg10
(dp1617
g2
I28
sg3
(dp1618
g2
I2
sg3
I1
sg9
I1
sg10
I1
ssg9
I1
sg10
(dp1619
g2
I13
sg3
I1
sg9
I1
sg10
I1
ssssg9
I0
sg10
(dp1620
g2
I12
sg3
(dp1621
g2
I19
sg3
I-1
sg9
I1
sg10
(dp1622
g2
I24
sg3
I-1
sg9
I1
sg10
I1
sssg9
I1
sg10
(dp1623
g2
I12
sg3
I-1
sg9
I-1
sg10
I-1
ssssg9
I1
sg10
(dp1624
g2
I24
sg3
(dp1625
g2
I13
sg3
(dp1626
g2
I27
sg3
(dp1627
g2
I25
sg3
I1
sg9
I1
sg10
I-1
ssg9
I1
sg10
(dp1628
g2
I15
sg3
I-1
sg9
I0
sg10
I-1
sssg9
I0
sg10
(dp1629
g2
I19
sg3
(dp1630
g2
I15
sg3
I-1
sg9
I-1
sg10
I-1
ssg9
I1
sg10
(dp1631
g2
I26
sg3
I-1
sg9
I1
sg10
I-1
ssssg9
I1
sg10
(dp1632
g2
I5
sg3
(dp1633
g2
I29
sg3
I1
sg9
I1
sg10
I1
ssg9
I1
sg10
(dp1634
g2
I8
sg3
(dp1635
g2
I5
sg3
I-1
sg9
I-1
sg10
I-1
ssg9
I1
sg10
(dp1636
g2
I13
sg3
I1
sg9
I1
sg10
I-1
ssssssg9
I0
sg10
(dp1637
g2
I6
sg3
(dp1638
g2
I13
sg3
(dp1639
g2
I13
sg3
(dp1640
g2
I3
sg3
(dp1641
g2
I12
sg3
I1
sg9
I1
sg10
I1
ssg9
I1
sg10
(dp1642
g2
I10
sg3
I1
sg9
I1
sg10
I1
sssg9
I1
sg10
(dp1643
g2
I7
sg3
(dp1644
g2
I15
sg3
I1
sg9
I0
sg10
I1
ssg9
I1
sg10
(dp1645
g2
I26
sg3
I-1
sg9
I1
sg10
I-1
ssssg9
I0
sg10
(dp1646
g2
I7
sg3
(dp1647
g2
I0
sg3
I-1
sg9
I1
sg10
I1
ssg9
I1
sg10
(dp1648
g2
I8
sg3
I-1
sg9
I-1
sg10
I-1
ssssg9
I1
sg10
(dp1649
g2
I9
sg3
(dp1650
g2
I11
sg3
(dp1651
g2
I13
sg3
(dp1652
g2
I7
sg3
I1
sg9
I1
sg10
I-1
ssg9
I0
sg10
(dp1653
g2
I29
sg3
I-1
sg9
I1
sg10
I-1
sssg9
I1
sg10
(dp1654
g2
I7
sg3
(dp1655
g2
I0
sg3
I1
sg9
I1
sg10
I1
ssg9
I1
sg10
(dp1656
g2
I28
sg3
I-1
sg9
I1
sg10
I-1
ssssg9
I1
sg10
(dp1657
g2
I7
sg3
(dp1658
g2
I13
sg3
(dp1659
g2
I25
sg3
I1
sg9
I1
sg10
I1
ssg9
I0
sg10
(dp1660
g2
I29
sg3
I-1
sg9
I-1
sg10
I-1
sssg9
I1
sg10
(dp1661
g2
I7
sg3
I-1
sg9
I-1
sg10
I-1
sssssa(dp1662
g2
I14
sg3
(dp1663
g2
I29
sg3
(dp1664
g2
I6
sg3
(dp1665
g2
I25
sg3
(dp1666
g2
I7
sg3
(dp1667
g2
I12
sg3
I1
sg9
I-1
sg10
I1
ssg9
I1
sg10
(dp1668
g2
I24
sg3
I-1
sg9
I1
sg10
I1
sssg9
I1
sg10
(dp1669
g2
I7
sg3
(dp1670
g2
I23
sg3
I1
sg9
I1
sg10
I1
ssg9
I1
sg10
(dp1671
g2
I15
sg3
I1
sg9
I0
sg10
I-1
ssssg9
I1
sg10
(dp1672
g2
I25
sg3
(dp1673
g2
I13
sg3
(dp1674
g2
I21
sg3
I1
sg9
I1
sg10
I1
ssg9
I0
sg10
(dp1675
g2
I27
sg3
I-1
sg9
I1
sg10
I-1
sssg9
I1
sg10
(dp1676
g2
I13
sg3
(dp1677
g2
I14
sg3
I-1
sg9
I1
sg10
I1
ssg9
I0
sg10
(dp1678
g2
I14
sg3
I-1
sg9
I0
sg10
I-1
sssssg9
I1
sg10
(dp1679
g2
I25
sg3
(dp1680
g2
I22
sg3
(dp1681
g2
I3
sg3
(dp1682
g2
I10
sg3
I1
sg9
I1
sg10
I1
ssg9
I1
sg10
(dp1683
g2
I5
sg3
I-1
sg9
I-1
sg10
I-1
sssg9
I1
sg10
(dp1684
g2
I11
sg3
(dp1685
g2
I24
sg3
I1
sg9
I-1
sg10
I1
ssg9
I1
sg10
(dp1686
g2
I16
sg3
I-1
sg9
I-1
sg10
I-1
ssssg9
I1
sg10
(dp1687
g2
I7
sg3
(dp1688
g2
I22
sg3
(dp1689
g2
I27
sg3
I1
sg9
I-1
sg10
I1
ssg9
I1
sg10
I-1
ssg9
I1
sg10
(dp1690
g2
I29
sg3
I-1
sg9
I-1
sg10
I-1
sssssg9
I0
sg10
(dp1691
g2
I12
sg3
(dp1692
g2
I25
sg3
(dp1693
g2
I7
sg3
(dp1694
g2
I13
sg3
(dp1695
g2
I24
sg3
I1
sg9
I1
sg10
I1
ssg9
I0
sg10
(dp1696
g2
I19
sg3
I-1
sg9
I1
sg10
I-1
sssg9
I1
sg10
(dp1697
g2
I21
sg3
(dp1698
g2
I6
sg3
I-1
sg9
I0
sg10
I-1
ssg9
I1
sg10
(dp1699
g2
I0
sg3
I1
sg9
I1
sg10
I-1
ssssg9
I1
sg10
(dp1700
g2
I13
sg3
(dp1701
g2
I7
sg3
(dp1702
g2
I9
sg3
I1
sg9
I1
sg10
I1
ssg9
I1
sg10
(dp1703
g2
I24
sg3
I-1
sg9
I1
sg10
I-1
sssg9
I0
sg10
(dp1704
g2
I26
sg3
I-1
sg9
I-1
sg10
I-1
ssssg9
I1
sg10
(dp1705
g2
I17
sg3
(dp1706
g2
I25
sg3
(dp1707
g2
I27
sg3
(dp1708
g2
I7
sg3
I1
sg9
I1
sg10
I-1
ssg9
I1
sg10
(dp1709
g2
I0
sg3
I-1
sg9
I1
sg10
I-1
sssg9
I1
sg10
(dp1710
g2
I15
sg3
(dp1711
g2
I1
sg3
I-1
sg9
I1
sg10
I1
ssg9
I1
sg10
(dp1712
g2
I23
sg3
I-1
sg9
I1
sg10
I-1
ssssg9
I1
sg10
(dp1713
g2
I2
sg3
(dp1714
g2
I3
sg3
(dp1715
g2
I7
sg3
I-1
sg9
I1
sg10
I-1
ssg9
I1
sg10
(dp1716
g2
I4
sg3
I-1
sg9
I1
sg10
I-1
sssg9
I1
sg10
(dp1717
g2
I23
sg3
(dp1718
g2
I18
sg3
I1
sg9
I1
sg10
I1
ssg9
I1
sg10
(dp1719
g2
I22
sg3
I-1
sg9
I1
sg10
I-1
ssssssa(dp1720
g2
I6
sg3
(dp1721
g2
I12
sg3
(dp1722
g2
I28
sg3
(dp1723
g2
I7
sg3
(dp1724
g2
I27
sg3
(dp1725
g2
I15
sg3
I1
sg9
I1
sg10
I1
ssg9
I1
sg10
(dp1726
g2
I2
sg3
I1
sg9
I1
sg10
I1
sssg9
I1
sg10
(dp1727
g2
I15
sg3
(dp1728
g2
I26
sg3
I1
sg9
I-1
sg10
I1
ssg9
I1
sg10
(dp1729
g2
I0
sg3
I1
sg9
I1
sg10
I-1
ssssg9
I1
sg10
(dp1730
g2
I25
sg3
(dp1731
g2
I11
sg3
(dp1732
g2
I7
sg3
I1
sg9
I1
sg10
I-1
ssg9
I1
sg10
(dp1733
g2
I3
sg3
I1
sg9
I1
sg10
I1
sssg9
I1
sg10
(dp1734
g2
I15
sg3
(dp1735
g2
I8
sg3
I1
sg9
I-1
sg10
I1
ssg9
I0
sg10
(dp1736
g2
I14
sg3
I1
sg9
I0
sg10
I-1
sssssg9
I1
sg10
(dp1737
g2
I5
sg3
(dp1738
g2
I24
sg3
(dp1739
g2
I2
sg3
I1
sg9
I-1
sg10
I1
ssg9
I1
sg10
(dp1740
g2
I19
sg3
I1
sg9
I-1
sg10
I1
sssg9
I1
sg10
(dp1741
g2
I28
sg3
(dp1742
g2
I4
sg3
(dp1743
g2
I22
sg3
I-1
sg9
I1
sg10
I1
ssg9
I1
sg10
(dp1744
g2
I23
sg3
I1
sg9
I1
sg10
I-1
sssg9
I1
sg10
(dp1745
g2
I13
sg3
(dp1746
g2
I29
sg3
I1
sg9
I1
sg10
I1
ssg9
I0
sg10
(dp1747
g2
I14
sg3
I-1
sg9
I-1
sg10
I-1
ssssssg9
I1
sg10
(dp1748
g2
I13
sg3
(dp1749
g2
I25
sg3
(dp1750
g2
I17
sg3
(dp1751
g2
I27
sg3
(dp1752
g2
I7
sg3
I1
sg9
I1
sg10
I-1
ssg9
I1
sg10
(dp1753
g2
I13
sg3
I1
sg9
I1
sg10
I-1
sssg9
I1
sg10
(dp1754
g2
I18
sg3
(dp1755
g2
I5
sg3
I1
sg9
I1
sg10
I1
ssg9
I1
sg10
(dp1756
g2
I21
sg3
I1
sg9
I1
sg10
I1
ssssg9
I1
sg10
(dp1757
g2
I5
sg3
(dp1758
g2
I15
sg3
I1
sg9
I-1
sg10
I1
ssg9
I1
sg10
(dp1759
g2
I7
sg3
(dp1760
g2
I26
sg3
I1
sg9
I1
sg10
I1
ssg9
I1
sg10
(dp1761
g2
I14
sg3
I1
sg9
I1
sg10
I-1
sssssg9
I0
sg10
(dp1762
g2
I5
sg3
(dp1763
g2
I1
sg3
I1
sg9
I1
sg10
I1
ssg9
I1
sg10
(dp1764
g2
I12
sg3
(dp1765
g2
I20
sg3
(dp1766
g2
I0
sg3
I-1
sg9
I-1
sg10
I-1
ssg9
I1
sg10
(dp1767
g2
I16
sg3
I-1
sg9
I-1
sg10
I-1
sssg9
I1
sg10
(dp1768
g2
I14
sg3
(dp1769
g2
I17
sg3
I-1
sg9
I1
sg10
I-1
ssg9
I0
sg10
(dp1770
g2
I28
sg3
I-1
sg9
I0
sg10
I-1
ssssssa(dp1771
g2
I29
sg3
(dp1772
g2
I25
sg3
(dp1773
g2
I8
sg3
(dp1774
g2
I7
sg3
(dp1775
g2
I28
sg3
(dp1776
g2
I0
sg3
I1
sg9
I1
sg10
I1
ssg9
I1
sg10
(dp1777
g2
I24
sg3
I1
sg9
I1
sg10
I-1
sssg9
I1
sg10
(dp1778
g2
I7
sg3
(dp1779
g2
I16
sg3
I-1
sg9
I1
sg10
I-1
ssg9
I0
sg10
(dp1780
g2
I27
sg3
I-1
sg9
I1
sg10
I-1
ssssg9
I1
sg10
(dp1781
g2
I28
sg3
(dp1782
g2
I5
sg3
(dp1783
g2
I0
sg3
I1
sg9
I-1
sg10
I1
ssg9
I1
sg10
(dp1784
g2
I13
sg3
I1
sg9
I0
sg10
I-1
sssg9
I1
sg10
(dp1785
g2
I7
sg3
(dp1786
g2
I23
sg3
I1
sg9
I1
sg10
I1
ssg9
I1
sg10
(dp1787
g2
I1
sg3
I-1
sg9
I1
sg10
I-1
sssssg9
I1
sg10
(dp1788
g2
I6
sg3
(dp1789
g2
I5
sg3
(dp1790
g2
I7
sg3
(dp1791
g2
I2
sg3
I1
sg9
I1
sg10
I1
ssg9
I1
sg10
(dp1792
g2
I28
sg3
I1
sg9
I1
sg10
I1
sssg9
I1
sg10
(dp1793
g2
I26
sg3
(dp1794
g2
I3
sg3
I1
sg9
I1
sg10
I1
ssg9
I1
sg10
(dp1795
g2
I7
sg3
I1
sg9
I1
sg10
I-1
ssssg9
I1
sg10
(dp1796
g2
I27
sg3
(dp1797
g2
I13
sg3
(dp1798
g2
I7
sg3
I1
sg9
I1
sg10
I-1
ssg9
I0
sg10
(dp1799
g2
I16
sg3
I-1
sg9
I1
sg10
I-1
sssg9
I1
sg10
(dp1800
g2
I14
sg3
(dp1801
g2
I3
sg3
I-1
sg9
I1
sg10
I-1
ssg9
I1
sg10
(dp1802
g2
I15
sg3
I-1
sg9
I0
sg10
I-1
ssssssg9
I1
sg10
(dp1803
g2
I5
sg3
(dp1804
g2
I20
sg3
(dp1805
g2
I26
sg3
I1
sg9
I-1
sg10
I1
ssg9
I1
sg10
(dp1806
g2
I28
sg3
I1
sg9
I1
sg10
I1
sssg9
I1
sg10
(dp1807
g2
I12
sg3
(dp1808
g2
I6
sg3
(dp1809
g2
I7
sg3
(dp1810
g2
I17
sg3
I1
sg9
I1
sg10
I1
ssg9
I1
sg10
(dp1811
g2
I4
sg3
I-1
sg9
I1
sg10
I-1
sssg9
I1
sg10
(dp1812
g2
I8
sg3
(dp1813
g2
I15
sg3
I-1
sg9
I-1
sg10
I-1
ssg9
I1
sg10
(dp1814
g2
I24
sg3
I-1
sg9
I1
sg10
I1
ssssg9
I1
sg10
(dp1815
g2
I25
sg3
(dp1816
g2
I13
sg3
(dp1817
g2
I0
sg3
I1
sg9
I1
sg10
I-1
ssg9
I0
sg10
(dp1818
g2
I21
sg3
I-1
sg9
I-1
sg10
I-1
sssg9
I1
sg10
(dp1819
g2
I28
sg3
(dp1820
g2
I7
sg3
I1
sg9
I1
sg10
I-1
ssg9
I0
sg10
(dp1821
g2
I0
sg3
I1
sg9
I1
sg10
I1
ssssssa(dp1822
g2
I8
sg3
(dp1823
g2
I25
sg3
(dp1824
g2
I23
sg3
(dp1825
g2
I28
sg3
(dp1826
g2
I11
sg3
(dp1827
g2
I26
sg3
I1
sg9
I1
sg10
I-1
ssg9
I1
sg10
(dp1828
g2
I19
sg3
I1
sg9
I1
sg10
I-1
sssg9
I1
sg10
(dp1829
g2
I7
sg3
(dp1830
g2
I14
sg3
I1
sg9
I0
sg10
I1
ssg9
I1
sg10
(dp1831
g2
I6
sg3
I-1
sg9
I0
sg10
I-1
ssssg9
I1
sg10
(dp1832
g2
I13
sg3
(dp1833
g2
I6
sg3
(dp1834
g2
I27
sg3
I1
sg9
I1
sg10
I1
ssg9
I0
sg10
(dp1835
g2
I14
sg3
I1
sg9
I0
sg10
I-1
sssg9
I0
sg10
(dp1836
g2
I10
sg3
(dp1837
g2
I29
sg3
I-1
sg9
I1
sg10
I-1
ssg9
I1
sg10
(dp1838
g2
I17
sg3
I-1
sg9
I1
sg10
I-1
sssssg9
I1
sg10
(dp1839
g2
I23
sg3
(dp1840
g2
I10
sg3
(dp1841
g2
I5
sg3
(dp1842
g2
I1
sg3
I1
sg9
I-1
sg10
I1
ssg9
I1
sg10
(dp1843
g2
I13
sg3
I1
sg9
I0
sg10
I-1
sssg9
I1
sg10
(dp1844
g2
I14
sg3
(dp1845
g2
I13
sg3
I1
sg9
I0
sg10
I-1
ssg9
I1
sg10
(dp1846
g2
I27
sg3
I-1
sg9
I1
sg10
I-1
ssssg9
I1
sg10
(dp1847
g2
I7
sg3
(dp1848
g2
I25
sg3
(dp1849
g2
I6
sg3
I1
sg9
I1
sg10
I-1
ssg9
I0
sg10
(dp1850
g2
I21
sg3
I1
sg9
I1
sg10
I1
sssg9
I1
sg10
(dp1851
g2
I27
sg3
(dp1852
g2
I9
sg3
I-1
sg9
I1
sg10
I-1
ssg9
I1
sg10
(dp1853
g2
I28
sg3
I-1
sg9
I1
sg10
I-1
ssssssg9
I1
sg10
(dp1854
g2
I7
sg3
(dp1855
g2
I27
sg3
(dp1856
g2
I13
sg3
(dp1857
g2
I28
sg3
(dp1858
g2
I1
sg3
I1
sg9
I1
sg10
I1
ssg9
I1
sg10
(dp1859
g2
I14
sg3
I1
sg9
I0
sg10
I1
sssg9
I0
sg10
(dp1860
g2
I11
sg3
(dp1861
g2
I4
sg3
I1
sg9
I1
sg10
I-1
ssg9
I1
sg10
(dp1862
g2
I7
sg3
I-1
sg9
I1
sg10
I-1
ssssg9
I1
sg10
(dp1863
g2
I13
sg3
(dp1864
g2
I12
sg3
(dp1865
g2
I6
sg3
I1
sg9
I0
sg10
I1
ssg9
I1
sg10
(dp1866
g2
I28
sg3
I1
sg9
I1
sg10
I-1
sssg9
I0
sg10
(dp1867
g2
I1
sg3
I-1
sg9
I1
sg10
I-1
ssssg9
I1
sg10
(dp1868
g2
I9
sg3
(dp1869
g2
I5
sg3
(dp1870
g2
I16
sg3
I1
sg9
I1
sg10
I1
ssg9
I1
sg10
(dp1871
g2
I13
sg3
(dp1872
g2
I7
sg3
I-1
sg9
I0
sg10
I-1
ssg9
I0
sg10
(dp1873
g2
I5
sg3
I-1
sg9
I-1
sg10
I-1
ssssg9
I1
sg10
(dp1874
g2
I5
sg3
I1
sg9
I1
sg10
(dp1875
g2
I13
sg3
I1
sg9
I1
sg10
(dp1876
g2
I13
sg3
I-1
sg9
I0
sg10
I-1
ssssssa(dp1877
g2
I7
sg3
(dp1878
g2
I28
sg3
(dp1879
g2
I13
sg3
(dp1880
g2
I2
sg3
(dp1881
g2
I16
sg3
(dp1882
g2
I23
sg3
I1
sg9
I1
sg10
I1
ssg9
I1
sg10
(dp1883
g2
I21
sg3
I1
sg9
I-1
sg10
I1
sssg9
I1
sg10
(dp1884
g2
I2
sg3
I1
sg9
I-1
sg10
I1
sssg9
I1
sg10
(dp1885
g2
I11
sg3
(dp1886
g2
I25
sg3
(dp1887
g2
I12
sg3
I1
sg9
I1
sg10
I1
ssg9
I1
sg10
(dp1888
g2
I22
sg3
I1
sg9
I1
sg10
I1
sssg9
I1
sg10
(dp1889
g2
I9
sg3
(dp1890
g2
I27
sg3
I1
sg9
I1
sg10
I1
ssg9
I1
sg10
(dp1891
g2
I19
sg3
I-1
sg9
I1
sg10
I1
sssssg9
I1
sg10
(dp1892
g2
I14
sg3
(dp1893
g2
I18
sg3
(dp1894
g2
I25
sg3
(dp1895
g2
I3
sg3
I1
sg9
I1
sg10
I1
ssg9
I1
sg10
(dp1896
g2
I4
sg3
I-1
sg9
I1
sg10
I1
sssg9
I1
sg10
(dp1897
g2
I13
sg3
(dp1898
g2
I25
sg3
I1
sg9
I1
sg10
I1
ssg9
I0
sg10
(dp1899
g2
I4
sg3
I-1
sg9
I-1
sg10
I-1
ssssg9
I0
sg10
(dp1900
g2
I13
sg3
(dp1901
g2
I27
sg3
(dp1902
g2
I5
sg3
I1
sg9
I1
sg10
I1
ssg9
I1
sg10
(dp1903
g2
I11
sg3
I-1
sg9
I1
sg10
I1
sssg9
I0
sg10
(dp1904
g2
I2
sg3
(dp1905
g2
I29
sg3
I-1
sg9
I1
sg10
I-1
ssg9
I1
sg10
I-1
sssssg9
I1
sg10
(dp1906
g2
I5
sg3
(dp1907
g2
I23
sg3
(dp1908
g2
I4
sg3
I1
sg9
I-1
sg10
I1
ssg9
I1
sg10
(dp1909
g2
I17
sg3
(dp1910
g2
I26
sg3
I1
sg9
I-1
sg10
I1
ssg9
I1
sg10
(dp1911
g2
I2
sg3
I1
sg9
I-1
sg10
I1
ssssg9
I1
sg10
(dp1912
g2
I12
sg3
(dp1913
g2
I3
sg3
(dp1914
g2
I26
sg3
(dp1915
g2
I13
sg3
I1
sg9
I1
sg10
I-1
ssg9
I1
sg10
(dp1916
g2
I14
sg3
I-1
sg9
I1
sg10
I-1
sssg9
I1
sg10
(dp1917
g2
I29
sg3
(dp1918
g2
I22
sg3
I-1
sg9
I1
sg10
I-1
ssg9
I1
sg10
(dp1919
g2
I12
sg3
I-1
sg9
I1
sg10
I-1
ssssg9
I1
sg10
(dp1920
g2
I10
sg3
(dp1921
g2
I27
sg3
(dp1922
g2
I13
sg3
I-1
sg9
I0
sg10
I-1
ssg9
I1
sg10
(dp1923
g2
I14
sg3
I-1
sg9
I0
sg10
I-1
sssg9
I1
sg10
(dp1924
g2
I8
sg3
I-1
sg9
I-1
sg10
I-1
sssssa(dp1925
g2
I24
sg3
(dp1926
g2
I5
sg3
(dp1927
g2
I24
sg3
I1
sg9
I1
sg10
I1
ssg9
I1
sg10
(dp1928
g2
I12
sg3
(dp1929
g2
I15
sg3
(dp1930
g2
I9
sg3
(dp1931
g2
I13
sg3
I1
sg9
I0
sg10
I-1
ssg9
I1
sg10
(dp1932
g2
I7
sg3
I1
sg9
I1
sg10
I-1
sssg9
I0
sg10
(dp1933
g2
I6
sg3
(dp1934
g2
I25
sg3
I1
sg9
I1
sg10
I1
ssg9
I1
sg10
(dp1935
g2
I0
sg3
I-1
sg9
I1
sg10
I-1
ssssg9
I1
sg10
(dp1936
g2
I6
sg3
(dp1937
g2
I7
sg3
(dp1938
g2
I15
sg3
I1
sg9
I0
sg10
I1
ssg9
I1
sg10
(dp1939
g2
I11
sg3
I-1
sg9
I1
sg10
I-1
sssg9
I1
sg10
(dp1940
g2
I2
sg3
(dp1941
g2
I22
sg3
I-1
sg9
I1
sg10
I-1
ssg9
I1
sg10
(dp1942
g2
I4
sg3
I1
sg9
I1
sg10
I-1
ssssssg9
I1
sg10
(dp1943
g2
I26
sg3
(dp1944
g2
I18
sg3
(dp1945
g2
I20
sg3
(dp1946
g2
I23
sg3
(dp1947
g2
I28
sg3
I1
sg9
I1
sg10
I-1
ssg9
I1
sg10
(dp1948
g2
I5
sg3
I1
sg9
I-1
sg10
I1
sssg9
I1
sg10
(dp1949
g2
I29
sg3
I-1
sg9
I1
sg10
(dp1950
g2
I19
sg3
I-1
sg9
I-1
sg10
I-1
ssssg9
I1
sg10
(dp1951
g2
I7
sg3
(dp1952
g2
I13
sg3
I1
sg9
I0
sg10
I1
ssg9
I1
sg10
(dp1953
g2
I23
sg3
(dp1954
g2
I14
sg3
I1
sg9
I0
sg10
I1
ssg9
I1
sg10
(dp1955
g2
I7
sg3
I-1
sg9
I-1
sg10
I-1
sssssg9
I1
sg10
(dp1956
g2
I4
sg3
(dp1957
g2
I21
sg3
(dp1958
g2
I3
sg3
(dp1959
g2
I5
sg3
I1
sg9
I1
sg10
I-1
ssg9
I1
sg10
(dp1960
g2
I9
sg3
I-1
sg9
I1
sg10
I-1
sssg9
I1
sg10
(dp1961
g2
I5
sg3
(dp1962
g2
I17
sg3
I1
sg9
I1
sg10
I1
ssg9
I1
sg10
(dp1963
g2
I25
sg3
I1
sg9
I1
sg10
I-1
ssssg9
I1
sg10
(dp1964
g2
I21
sg3
(dp1965
g2
I17
sg3
(dp1966
g2
I6
sg3
I-1
sg9
I0
sg10
I1
ssg9
I1
sg10
(dp1967
g2
I14
sg3
I1
sg9
I1
sg10
I1
sssg9
I1
sg10
(dp1968
g2
I2
sg3
I1
sg9
I1
sg10
(dp1969
g2
I20
sg3
I-1
sg9
I-1
sg10
I-1
ssssssa(dp1970
g2
I25
sg3
(dp1971
g2
I14
sg3
(dp1972
g2
I0
sg3
(dp1973
g2
I14
sg3
(dp1974
g2
I15
sg3
(dp1975
g2
I3
sg3
I1
sg9
I1
sg10
I1
ssg9
I0
sg10
(dp1976
g2
I23
sg3
I1
sg9
I1
sg10
I1
sssg9
I1
sg10
(dp1977
g2
I5
sg3
(dp1978
g2
I8
sg3
I1
sg9
I-1
sg10
I1
ssg9
I1
sg10
(dp1979
g2
I28
sg3
I1
sg9
I1
sg10
I1
ssssg9
I1
sg10
(dp1980
g2
I7
sg3
(dp1981
g2
I14
sg3
(dp1982
g2
I13
sg3
I1
sg9
I0
sg10
I-1
ssg9
I1
sg10
(dp1983
g2
I8
sg3
I1
sg9
I1
sg10
I1
sssg9
I1
sg10
(dp1984
g2
I17
sg3
(dp1985
g2
I24
sg3
I-1
sg9
I1
sg10
I-1
ssg9
I1
sg10
(dp1986
g2
I15
sg3
I-1
sg9
I0
sg10
I1
sssssg9
I0
sg10
(dp1987
g2
I12
sg3
(dp1988
g2
I15
sg3
(dp1989
g2
I24
sg3
(dp1990
g2
I13
sg3
I1
sg9
I0
sg10
I-1
ssg9
I1
sg10
(dp1991
g2
I14
sg3
I1
sg9
I-1
sg10
I1
sssg9
I0
sg10
(dp1992
g2
I7
sg3
(dp1993
g2
I5
sg3
I1
sg9
I1
sg10
I1
ssg9
I1
sg10
(dp1994
g2
I23
sg3
I-1
sg9
I1
sg10
I-1
ssssg9
I1
sg10
(dp1995
g2
I2
sg3
(dp1996
g2
I11
sg3
(dp1997
g2
I13
sg3
I1
sg9
I0
sg10
I-1
ssg9
I1
sg10
(dp1998
g2
I17
sg3
I-1
sg9
I1
sg10
I-1
sssg9
I1
sg10
(dp1999
g2
I7
sg3
I1
sg9
I1
sg10
I1
sssssg9
I1
sg10
(dp2000
g2
I5
sg3
(dp2001
g2
I14
sg3
I1
sg9
I-1
sg10
I1
ssg9
I1
sg10
(dp2002
g2
I15
sg3
(dp2003
g2
I24
sg3
(dp2004
g2
I20
sg3
(dp2005
g2
I15
sg3
I1
sg9
I1
sg10
I-1
ssg9
I1
sg10
(dp2006
g2
I7
sg3
I1
sg9
I1
sg10
I-1
sssg9
I1
sg10
(dp2007
g2
I0
sg3
(dp2008
g2
I7
sg3
I1
sg9
I1
sg10
I-1
ssg9
I1
sg10
(dp2009
g2
I25
sg3
I1
sg9
I0
sg10
I-1
ssssg9
I0
sg10
(dp2010
g2
I6
sg3
(dp2011
g2
I19
sg3
(dp2012
g2
I28
sg3
I1
sg9
I1
sg10
I-1
ssg9
I1
sg10
(dp2013
g2
I7
sg3
I1
sg9
I1
sg10
I-1
sssg9
I1
sg10
(dp2014
g2
I9
sg3
(dp2015
g2
I7
sg3
I-1
sg9
I1
sg10
I-1
ssg9
I1
sg10
(dp2016
g2
I23
sg3
I-1
sg9
I1
sg10
I-1
ssssssa(dp2017
g2
I13
sg3
(dp2018
g2
I21
sg3
(dp2019
g2
I12
sg3
(dp2020
g2
I25
sg3
(dp2021
g2
I7
sg3
(dp2022
g2
I15
sg3
I1
sg9
I0
sg10
I1
ssg9
I1
sg10
(dp2023
g2
I5
sg3
I1
sg9
I1
sg10
I-1
sssg9
I1
sg10
(dp2024
g2
I6
sg3
(dp2025
g2
I8
sg3
I1
sg9
I1
sg10
I1
ssg9
I1
sg10
(dp2026
g2
I13
sg3
I1
sg9
I1
sg10
I-1
ssssg9
I1
sg10
(dp2027
g2
I7
sg3
(dp2028
g2
I14
sg3
(dp2029
g2
I11
sg3
I1
sg9
I1
sg10
I1
ssg9
I0
sg10
(dp2030
g2
I16
sg3
I1
sg9
I1
sg10
I1
sssg9
I1
sg10
(dp2031
g2
I14
sg3
(dp2032
g2
I9
sg3
I1
sg9
I1
sg10
I-1
ssg9
I1
sg10
(dp2033
g2
I18
sg3
I-1
sg9
I1
sg10
I-1
sssssg9
I1
sg10
(dp2034
g2
I5
sg3
(dp2035
g2
I2
sg3
(dp2036
g2
I16
sg3
I1
sg9
I-1
sg10
I1
ssg9
I1
sg10
I1
ssg9
I1
sg10
(dp2037
g2
I18
sg3
(dp2038
g2
I29
sg3
(dp2039
g2
I0
sg3
I-1
sg9
I1
sg10
I1
ssg9
I1
sg10
I1
ssg9
I1
sg10
(dp2040
g2
I7
sg3
(dp2041
g2
I13
sg3
I1
sg9
I1
sg10
I1
ssg9
I1
sg10
(dp2042
g2
I0
sg3
I1
sg9
I1
sg10
I-1
ssssssg9
I0
sg10
(dp2043
g2
I14
sg3
(dp2044
g2
I6
sg3
(dp2045
g2
I7
sg3
(dp2046
g2
I9
sg3
I-1
sg9
I1
sg10
I1
ssg9
I1
sg10
(dp2047
g2
I26
sg3
(dp2048
g2
I17
sg3
I-1
sg9
I-1
sg10
I-1
ssg9
I1
sg10
(dp2049
g2
I8
sg3
I-1
sg9
I1
sg10
I-1
ssssg9
I1
sg10
(dp2050
g2
I13
sg3
I-1
sg9
I-1
sg10
I-1
sssg9
I0
sg10
(dp2051
g2
I23
sg3
(dp2052
g2
I7
sg3
(dp2053
g2
I15
sg3
I-1
sg9
I0
sg10
(dp2054
g2
I29
sg3
I-1
sg9
I1
sg10
I1
sssg9
I1
sg10
(dp2055
g2
I28
sg3
(dp2056
g2
I12
sg3
I-1
sg9
I1
sg10
I-1
ssg9
I0
sg10
(dp2057
g2
I27
sg3
I-1
sg9
I1
sg10
I-1
ssssg9
I1
sg10
(dp2058
g2
I7
sg3
(dp2059
g2
I25
sg3
(dp2060
g2
I24
sg3
I-1
sg9
I1
sg10
I1
ssg9
I1
sg10
(dp2061
g2
I23
sg3
I-1
sg9
I-1
sg10
I-1
sssg9
I1
sg10
(dp2062
g2
I22
sg3
(dp2063
g2
I17
sg3
I-1
sg9
I1
sg10
I-1
ssg9
I1
sg10
(dp2064
g2
I19
sg3
I-1
sg9
I-1
sg10
I-1
ssssssa(dp2065
g2
I25
sg3
(dp2066
g2
I7
sg3
(dp2067
g2
I14
sg3
(dp2068
g2
I0
sg3
(dp2069
g2
I27
sg3
(dp2070
g2
I28
sg3
I1
sg9
I0
sg10
I1
ssg9
I1
sg10
(dp2071
g2
I26
sg3
I1
sg9
I1
sg10
I1
sssg9
I1
sg10
(dp2072
g2
I23
sg3
(dp2073
g2
I27
sg3
I1
sg9
I1
sg10
I1
ssg9
I1
sg10
(dp2074
g2
I20
sg3
I1
sg9
I1
sg10
I1
ssssg9
I0
sg10
(dp2075
g2
I22
sg3
(dp2076
g2
I11
sg3
(dp2077
g2
I5
sg3
I1
sg9
I1
sg10
I1
ssg9
I1
sg10
(dp2078
g2
I16
sg3
I1
sg9
I1
sg10
I1
sssg9
I1
sg10
(dp2079
g2
I11
sg3
(dp2080
g2
I2
sg3
I1
sg9
I1
sg10
I1
ssg9
I1
sg10
(dp2081
g2
I19
sg3
I1
sg9
I-1
sg10
I1
sssssg9
I1
sg10
(dp2082
g2
I13
sg3
(dp2083
g2
I24
sg3
(dp2084
g2
I17
sg3
I1
sg9
I1
sg10
I1
ssg9
I1
sg10
(dp2085
g2
I27
sg3
(dp2086
g2
I5
sg3
I1
sg9
I1
sg10
I1
ssg9
I1
sg10
(dp2087
g2
I6
sg3
I1
sg9
I1
sg10
I-1
ssssg9
I1
sg10
(dp2088
g2
I7
sg3
(dp2089
g2
I23
sg3
(dp2090
g2
I21
sg3
I-1
sg9
I1
sg10
I-1
ssg9
I1
sg10
(dp2091
g2
I1
sg3
I1
sg9
I1
sg10
I-1
sssg9
I0
sg10
(dp2092
g2
I14
sg3
(dp2093
g2
I13
sg3
I1
sg9
I0
sg10
I-1
ssg9
I0
sg10
(dp2094
g2
I28
sg3
I-1
sg9
I1
sg10
I-1
ssssssg9
I1
sg10
(dp2095
g2
I5
sg3
(dp2096
g2
I12
sg3
(dp2097
g2
I0
sg3
I1
sg9
I-1
sg10
I1
ssg9
I1
sg10
(dp2098
g2
I27
sg3
I1
sg9
I1
sg10
I1
sssg9
I1
sg10
(dp2099
g2
I13
sg3
(dp2100
g2
I14
sg3
(dp2101
g2
I12
sg3
(dp2102
g2
I26
sg3
I1
sg9
I1
sg10
I1
ssg9
I1
sg10
(dp2103
g2
I13
sg3
I1
sg9
I1
sg10
I1
sssg9
I0
sg10
(dp2104
g2
I24
sg3
(dp2105
g2
I7
sg3
I1
sg9
I1
sg10
I-1
ssg9
I1
sg10
(dp2106
g2
I2
sg3
I-1
sg9
I1
sg10
I1
ssssg9
I0
sg10
(dp2107
g2
I10
sg3
(dp2108
g2
I5
sg3
I-1
sg9
I-1
sg10
I-1
ssg9
I1
sg10
(dp2109
g2
I26
sg3
I-1
sg9
I-1
sg10
I-1
sssssa(dp2110
g2
I25
sg3
(dp2111
g2
I6
sg3
(dp2112
g2
I26
sg3
(dp2113
g2
I1
sg3
(dp2114
g2
I4
sg3
(dp2115
g2
I14
sg3
I1
sg9
I1
sg10
I1
ssg9
I1
sg10
(dp2116
g2
I16
sg3
I1
sg9
I1
sg10
I-1
sssg9
I1
sg10
(dp2117
g2
I25
sg3
I1
sg9
I1
sg10
I1
sssg9
I1
sg10
(dp2118
g2
I13
sg3
(dp2119
g2
I7
sg3
(dp2120
g2
I0
sg3
I1
sg9
I1
sg10
I1
ssg9
I0
sg10
(dp2121
g2
I5
sg3
I1
sg9
I1
sg10
I-1
sssg9
I0
sg10
(dp2122
g2
I13
sg3
I-1
sg9
I-1
sg10
I-1
ssssg9
I1
sg10
(dp2123
g2
I23
sg3
(dp2124
g2
I5
sg3
(dp2125
g2
I12
sg3
I1
sg9
I-1
sg10
I1
ssg9
I1
sg10
(dp2126
g2
I27
sg3
(dp2127
g2
I7
sg3
I1
sg9
I1
sg10
I-1
ssg9
I1
sg10
(dp2128
g2
I0
sg3
I-1
sg9
I1
sg10
I-1
ssssg9
I1
sg10
(dp2129
g2
I15
sg3
(dp2130
g2
I15
sg3
(dp2131
g2
I13
sg3
I1
sg9
I0
sg10
I-1
ssg9
I1
sg10
(dp2132
g2
I16
sg3
I1
sg9
I1
sg10
I-1
sssg9
I0
sg10
(dp2133
g2
I5
sg3
(dp2134
g2
I16
sg3
I1
sg9
I1
sg10
I1
ssg9
I1
sg10
(dp2135
g2
I19
sg3
I1
sg9
I1
sg10
I1
ssssssg9
I1
sg10
(dp2136
g2
I5
sg3
(dp2137
g2
I27
sg3
(dp2138
g2
I3
sg3
(dp2139
g2
I9
sg3
I1
sg9
I1
sg10
I1
ssg9
I1
sg10
(dp2140
g2
I5
sg3
I1
sg9
I1
sg10
I1
sssg9
I1
sg10
(dp2141
g2
I21
sg3
I1
sg9
I1
sg10
I1
sssg9
I1
sg10
(dp2142
g2
I6
sg3
(dp2143
g2
I13
sg3
(dp2144
g2
I29
sg3
(dp2145
g2
I19
sg3
I1
sg9
I1
sg10
I1
ssg9
I1
sg10
(dp2146
g2
I7
sg3
I1
sg9
I1
sg10
I-1
sssg9
I0
sg10
(dp2147
g2
I25
sg3
I-1
sg9
I-1
sg10
I-1
sssg9
I1
sg10
(dp2148
g2
I7
sg3
(dp2149
g2
I11
sg3
(dp2150
g2
I28
sg3
I1
sg9
I1
sg10
I-1
ssg9
I1
sg10
(dp2151
g2
I1
sg3
I-1
sg9
I0
sg10
I-1
sssg9
I1
sg10
(dp2152
g2
I14
sg3
(dp2153
g2
I1
sg3
I-1
sg9
I1
sg10
I-1
ssg9
I0
sg10
(dp2154
g2
I1
sg3
I-1
sg9
I1
sg10
I-1
ssssssa(dp2155
g2
I13
sg3
(dp2156
g2
I14
sg3
(dp2157
g2
I27
sg3
(dp2158
g2
I24
sg3
(dp2159
g2
I7
sg3
(dp2160
g2
I25
sg3
I1
sg9
I1
sg10
I1
ssg9
I1
sg10
(dp2161
g2
I29
sg3
I1
sg9
I1
sg10
I-1
sssg9
I1
sg10
(dp2162
g2
I13
sg3
(dp2163
g2
I29
sg3
I1
sg9
I1
sg10
I1
ssg9
I1
sg10
(dp2164
g2
I26
sg3
I1
sg9
I1
sg10
I1
ssssg9
I1
sg10
(dp2165
g2
I15
sg3
(dp2166
g2
I6
sg3
(dp2167
g2
I3
sg3
I1
sg9
I-1
sg10
I1
ssg9
I1
sg10
(dp2168
g2
I29
sg3
I1
sg9
I1
sg10
I1
sssg9
I1
sg10
(dp2169
g2
I5
sg3
(dp2170
g2
I25
sg3
I1
sg9
I1
sg10
I1
ssg9
I1
sg10
(dp2171
g2
I7
sg3
I1
sg9
I1
sg10
I-1
sssssg9
I0
sg10
(dp2172
g2
I2
sg3
(dp2173
g2
I25
sg3
(dp2174
g2
I21
sg3
(dp2175
g2
I4
sg3
I1
sg9
I1
sg10
I-1
ssg9
I1
sg10
(dp2176
g2
I12
sg3
I1
sg9
I1
sg10
I1
sssg9
I1
sg10
(dp2177
g2
I24
sg3
(dp2178
g2
I6
sg3
I1
sg9
I1
sg10
I-1
ssg9
I1
sg10
(dp2179
g2
I16
sg3
I-1
sg9
I1
sg10
I1
ssssg9
I1
sg10
(dp2180
g2
I4
sg3
I-1
sg9
I1
sg10
(dp2181
g2
I0
sg3
I1
sg9
I1
sg10
(dp2182
g2
I25
sg3
I1
sg9
I1
sg10
I1
ssssssg9
I0
sg10
(dp2183
g2
I25
sg3
(dp2184
g2
I7
sg3
(dp2185
g2
I0
sg3
(dp2186
g2
I22
sg3
(dp2187
g2
I13
sg3
I-1
sg9
I-1
sg10
I-1
ssg9
I1
sg10
(dp2188
g2
I9
sg3
I1
sg9
I-1
sg10
I1
sssg9
I1
sg10
(dp2189
g2
I23
sg3
I-1
sg9
I1
sg10
(dp2190
g2
I24
sg3
I1
sg9
I-1
sg10
I1
ssssg9
I1
sg10
(dp2191
g2
I2
sg3
(dp2192
g2
I25
sg3
I-1
sg9
I1
sg10
I-1
ssg9
I1
sg10
(dp2193
g2
I17
sg3
I-1
sg9
I-1
sg10
I-1
ssssg9
I1
sg10
(dp2194
g2
I13
sg3
I-1
sg9
I-1
sg10
I-1
sssa(dp2195
g2
I26
sg3
(dp2196
g2
I6
sg3
(dp2197
g2
I0
sg3
(dp2198
g2
I24
sg3
(dp2199
g2
I25
sg3
(dp2200
g2
I29
sg3
I1
sg9
I1
sg10
I1
ssg9
I0
sg10
(dp2201
g2
I13
sg3
I1
sg9
I0
sg10
I-1
sssg9
I1
sg10
(dp2202
g2
I2
sg3
(dp2203
g2
I3
sg3
I1
sg9
I1
sg10
I1
ssg9
I1
sg10
(dp2204
g2
I4
sg3
I1
sg9
I1
sg10
I1
ssssg9
I1
sg10
(dp2205
g2
I5
sg3
(dp2206
g2
I5
sg3
I1
sg9
I1
sg10
I1
ssg9
I1
sg10
(dp2207
g2
I24
sg3
(dp2208
g2
I7
sg3
I1
sg9
I1
sg10
I-1
ssg9
I1
sg10
(dp2209
g2
I14
sg3
I-1
sg9
I0
sg10
I1
sssssg9
I1
sg10
(dp2210
g2
I0
sg3
(dp2211
g2
I25
sg3
(dp2212
g2
I23
sg3
(dp2213
g2
I0
sg3
I1
sg9
I1
sg10
I1
ssg9
I1
sg10
(dp2214
g2
I10
sg3
I1
sg9
I1
sg10
I-1
sssg9
I1
sg10
(dp2215
g2
I10
sg3
(dp2216
g2
I13
sg3
I1
sg9
I0
sg10
I-1
ssg9
I1
sg10
(dp2217
g2
I16
sg3
I-1
sg9
I-1
sg10
I-1
ssssg9
I1
sg10
(dp2218
g2
I2
sg3
(dp2219
g2
I14
sg3
(dp2220
g2
I7
sg3
I1
sg9
I1
sg10
I-1
ssg9
I0
sg10
(dp2221
g2
I3
sg3
I-1
sg9
I1
sg10
I-1
sssg9
I1
sg10
(dp2222
g2
I13
sg3
(dp2223
g2
I11
sg3
I-1
sg9
I1
sg10
I1
ssg9
I0
sg10
(dp2224
g2
I9
sg3
I-1
sg9
I-1
sg10
I-1
ssssssg9
I1
sg10
(dp2225
g2
I0
sg3
(dp2226
g2
I27
sg3
(dp2227
g2
I25
sg3
(dp2228
g2
I1
sg3
(dp2229
g2
I6
sg3
I1
sg9
I0
sg10
I1
ssg9
I1
sg10
(dp2230
g2
I17
sg3
I1
sg9
I1
sg10
I1
sssg9
I1
sg10
(dp2231
g2
I6
sg3
(dp2232
g2
I14
sg3
I1
sg9
I0
sg10
I-1
ssg9
I1
sg10
(dp2233
g2
I23
sg3
I-1
sg9
I1
sg10
I-1
ssssg9
I1
sg10
(dp2234
g2
I24
sg3
(dp2235
g2
I11
sg3
(dp2236
g2
I15
sg3
I1
sg9
I1
sg10
I-1
ssg9
I1
sg10
(dp2237
g2
I19
sg3
I1
sg9
I1
sg10
I1
sssg9
I1
sg10
(dp2238
g2
I21
sg3
(dp2239
g2
I7
sg3
I-1
sg9
I1
sg10
I-1
ssg9
I1
sg10
(dp2240
g2
I13
sg3
I-1
sg9
I0
sg10
I-1
sssssg9
I1
sg10
(dp2241
g2
I8
sg3
(dp2242
g2
I7
sg3
(dp2243
g2
I2
sg3
(dp2244
g2
I29
sg3
I1
sg9
I1
sg10
I-1
ssg9
I1
sg10
(dp2245
g2
I28
sg3
I1
sg9
I1
sg10
I1
sssg9
I1
sg10
(dp2246
g2
I13
sg3
(dp2247
g2
I28
sg3
I-1
sg9
I1
sg10
I-1
ssg9
I0
sg10
(dp2248
g2
I8
sg3
I-1
sg9
I1
sg10
I-1
ssssg9
I1
sg10
(dp2249
g2
I4
sg3
(dp2250
g2
I15
sg3
(dp2251
g2
I16
sg3
I1
sg9
I1
sg10
I1
ssg9
I0
sg10
(dp2252
g2
I7
sg3
I1
sg9
I1
sg10
I-1
sssg9
I1
sg10
(dp2253
g2
I10
sg3
(dp2254
g2
I15
sg3
I1
sg9
I1
sg10
I1
ssg9
I1
sg10
(dp2255
g2
I24
sg3
I1
sg9
I1
sg10
I-1
ssssssa(dp2256
g2
I13
sg3
(dp2257
g2
I7
sg3
(dp2258
g2
I25
sg3
(dp2259
g2
I9
sg3
(dp2260
g2
I4
sg3
(dp2261
g2
I14
sg3
I1
sg9
I0
sg10
I1
ssg9
I1
sg10
(dp2262
g2
I8
sg3
I1
sg9
I1
sg10
I1
sssg9
I1
sg10
(dp2263
g2
I12
sg3
(dp2264
g2
I5
sg3
I1
sg9
I-1
sg10
I1
ssg9
I1
sg10
(dp2265
g2
I13
sg3
I1
sg9
I1
sg10
I1
ssssg9
I1
sg10
(dp2266
g2
I6
sg3
(dp2267
g2
I5
sg3
(dp2268
g2
I29
sg3
I1
sg9
I1
sg10
I1
ssg9
I1
sg10
(dp2269
g2
I25
sg3
I1
sg9
I0
sg10
I1
sssg9
I1
sg10
(dp2270
g2
I14
sg3
(dp2271
g2
I5
sg3
I1
sg9
I1
sg10
I1
ssg9
I0
sg10
(dp2272
g2
I29
sg3
I1
sg9
I1
sg10
I1
sssssg9
I1
sg10
(dp2273
g2
I15
sg3
(dp2274
g2
I8
sg3
(dp2275
g2
I18
sg3
I-1
sg9
I0
sg10
I-1
ssg9
I1
sg10
(dp2276
g2
I25
sg3
(dp2277
g2
I25
sg3
I1
sg9
I1
sg10
I1
ssg9
I1
sg10
(dp2278
g2
I17
sg3
I-1
sg9
I1
sg10
I1
ssssg9
I0
sg10
(dp2279
g2
I5
sg3
(dp2280
g2
I28
sg3
(dp2281
g2
I14
sg3
I1
sg9
I1
sg10
I1
ssg9
I0
sg10
I1
ssg9
I1
sg10
(dp2282
g2
I12
sg3
(dp2283
g2
I29
sg3
I-1
sg9
I1
sg10
I-1
ssg9
I1
sg10
(dp2284
g2
I18
sg3
I-1
sg9
I1
sg10
I-1
ssssssg9
I0
sg10
(dp2285
g2
I12
sg3
(dp2286
g2
I23
sg3
(dp2287
g2
I7
sg3
(dp2288
g2
I11
sg3
(dp2289
g2
I0
sg3
I-1
sg9
I1
sg10
I-1
ssg9
I1
sg10
I-1
ssg9
I1
sg10
(dp2290
g2
I4
sg3
(dp2291
g2
I5
sg3
I-1
sg9
I-1
sg10
I-1
ssg9
I1
sg10
(dp2292
g2
I28
sg3
I-1
sg9
I-1
sg10
I-1
ssssg9
I1
sg10
(dp2293
g2
I8
sg3
I-1
sg9
I-1
sg10
I-1
sssg9
I1
sg10
(dp2294
g2
I19
sg3
(dp2295
g2
I28
sg3
(dp2296
g2
I25
sg3
I-1
sg9
I-1
sg10
I-1
ssg9
I1
sg10
(dp2297
g2
I28
sg3
(dp2298
g2
I3
sg3
I-1
sg9
I-1
sg10
I-1
ssg9
I0
sg10
(dp2299
g2
I24
sg3
I-1
sg9
I1
sg10
I-1
ssssg9
I1
sg10
(dp2300
g2
I6
sg3
(dp2301
g2
I24
sg3
I-1
sg9
I-1
sg10
I-1
ssg9
I1
sg10
(dp2302
g2
I3
sg3
(dp2303
g2
I24
sg3
I-1
sg9
I-1
sg10
I-1
ssg9
I1
sg10
(dp2304
g2
I18
sg3
I-1
sg9
I0
sg10
I-1
ssssssa(dp2305
g2
I5
sg3
(dp2306
g2
I0
sg3
I1
sg9
I-1
sg10
I1
ssg9
I1
sg10
(dp2307
g2
I7
sg3
(dp2308
g2
I25
sg3
(dp2309
g2
I15
sg3
(dp2310
g2
I27
sg3
(dp2311
g2
I24
sg3
I1
sg9
I1
sg10
I1
ssg9
I1
sg10
(dp2312
g2
I9
sg3
I1
sg9
I1
sg10
I1
sssg9
I0
sg10
(dp2313
g2
I8
sg3
(dp2314
g2
I14
sg3
I1
sg9
I0
sg10
I1
ssg9
I1
sg10
(dp2315
g2
I24
sg3
I1
sg9
I1
sg10
I1
ssssg9
I1
sg10
(dp2316
g2
I23
sg3
(dp2317
g2
I0
sg3
(dp2318
g2
I13
sg3
I1
sg9
I0
sg10
I-1
ssg9
I1
sg10
(dp2319
g2
I29
sg3
I1
sg9
I1
sg10
I-1
sssg9
I1
sg10
(dp2320
g2
I13
sg3
(dp2321
g2
I0
sg3
I1
sg9
I1
sg10
I1
ssg9
I0
sg10
(dp2322
g2
I28
sg3
I-1
sg9
I0
sg10
I-1
sssssg9
I1
sg10
(dp2323
g2
I1
sg3
(dp2324
g2
I25
sg3
(dp2325
g2
I6
sg3
(dp2326
g2
I29
sg3
I-1
sg9
I1
sg10
I-1
ssg9
I1
sg10
(dp2327
g2
I15
sg3
I-1
sg9
I0
sg10
I-1
sssg9
I1
sg10
(dp2328
g2
I13
sg3
(dp2329
g2
I21
sg3
I-1
sg9
I1
sg10
I-1
ssg9
I0
sg10
(dp2330
g2
I0
sg3
I-1
sg9
I-1
sg10
I-1
ssssg9
I0
sg10
(dp2331
g2
I13
sg3
(dp2332
g2
I2
sg3
(dp2333
g2
I14
sg3
I1
sg9
I1
sg10
I-1
ssg9
I1
sg10
(dp2334
g2
I10
sg3
I1
sg9
I1
sg10
I-1
sssg9
I0
sg10
(dp2335
g2
I9
sg3
(dp2336
g2
I23
sg3
I-1
sg9
I-1
sg10
I-1
ssg9
I1
sg10
(dp2337
g2
I8
sg3
I-1
sg9
I-1
sg10
I-1
ssssssa(dp2338
g2
I6
sg3
(dp2339
g2
I26
sg3
(dp2340
g2
I21
sg3
(dp2341
g2
I13
sg3
(dp2342
g2
I28
sg3
(dp2343
g2
I25
sg3
I1
sg9
I1
sg10
I1
ssg9
I1
sg10
(dp2344
g2
I26
sg3
I1
sg9
I1
sg10
I1
sssg9
I0
sg10
(dp2345
g2
I19
sg3
I-1
sg9
I1
sg10
I-1
sssg9
I1
sg10
(dp2346
g2
I3
sg3
(dp2347
g2
I4
sg3
(dp2348
g2
I5
sg3
I1
sg9
I1
sg10
I1
ssg9
I1
sg10
(dp2349
g2
I7
sg3
I1
sg9
I1
sg10
I-1
sssg9
I1
sg10
(dp2350
g2
I15
sg3
(dp2351
g2
I13
sg3
I1
sg9
I0
sg10
I-1
ssg9
I0
sg10
(dp2352
g2
I7
sg3
I1
sg9
I1
sg10
I-1
sssssg9
I1
sg10
(dp2353
g2
I21
sg3
(dp2354
g2
I15
sg3
(dp2355
g2
I13
sg3
(dp2356
g2
I28
sg3
I1
sg9
I1
sg10
I1
ssg9
I0
sg10
I-1
ssg9
I0
sg10
(dp2357
g2
I8
sg3
(dp2358
g2
I13
sg3
I1
sg9
I0
sg10
I-1
ssg9
I1
sg10
(dp2359
g2
I25
sg3
I1
sg9
I1
sg10
I1
ssssg9
I1
sg10
(dp2360
g2
I25
sg3
(dp2361
g2
I17
sg3
(dp2362
g2
I11
sg3
I1
sg9
I1
sg10
I1
ssg9
I1
sg10
I1
ssg9
I1
sg10
(dp2363
g2
I3
sg3
(dp2364
g2
I8
sg3
I-1
sg9
I1
sg10
I1
ssg9
I1
sg10
(dp2365
g2
I16
sg3
I1
sg9
I1
sg10
I1
ssssssg9
I1
sg10
(dp2366
g2
I28
sg3
(dp2367
g2
I26
sg3
(dp2368
g2
I13
sg3
(dp2369
g2
I7
sg3
(dp2370
g2
I17
sg3
I1
sg9
I1
sg10
I1
ssg9
I1
sg10
(dp2371
g2
I23
sg3
I1
sg9
I1
sg10
I-1
sssg9
I0
sg10
(dp2372
g2
I5
sg3
I-1
sg9
I-1
sg10
I-1
sssg9
I1
sg10
(dp2373
g2
I7
sg3
(dp2374
g2
I15
sg3
(dp2375
g2
I15
sg3
I1
sg9
I1
sg10
I1
ssg9
I0
sg10
(dp2376
g2
I25
sg3
I1
sg9
I1
sg10
I1
sssg9
I1
sg10
(dp2377
g2
I0
sg3
(dp2378
g2
I8
sg3
I-1
sg9
I1
sg10
I-1
ssg9
I1
sg10
(dp2379
g2
I5
sg3
I1
sg9
I1
sg10
I-1
sssssg9
I1
sg10
(dp2380
g2
I29
sg3
(dp2381
g2
I1
sg3
(dp2382
g2
I13
sg3
(dp2383
g2
I25
sg3
I1
sg9
I1
sg10
I1
ssg9
I0
sg10
(dp2384
g2
I13
sg3
I-1
sg9
I-1
sg10
I-1
sssg9
I0
sg10
(dp2385
g2
I7
sg3
(dp2386
g2
I26
sg3
I1
sg9
I1
sg10
I1
ssg9
I1
sg10
(dp2387
g2
I25
sg3
I-1
sg9
I1
sg10
I-1
ssssg9
I1
sg10
(dp2388
g2
I15
sg3
(dp2389
g2
I14
sg3
(dp2390
g2
I14
sg3
I-1
sg9
I1
sg10
I1
ssg9
I0
sg10
(dp2391
g2
I6
sg3
I1
sg9
I-1
sg10
I1
sssg9
I1
sg10
(dp2392
g2
I20
sg3
(dp2393
g2
I0
sg3
I-1
sg9
I1
sg10
I-1
ssg9
I1
sg10
(dp2394
g2
I3
sg3
I-1
sg9
I1
sg10
I-1
ssssssa(dp2395
g2
I5
sg3
(dp2396
g2
I26
sg3
I1
sg9
I-1
sg10
I1
ssg9
I1
sg10
(dp2397
g2
I7
sg3
(dp2398
g2
I15
sg3
(dp2399
g2
I6
sg3
(dp2400
g2
I4
sg3
(dp2401
g2
I10
sg3
I1
sg9
I1
sg10
I1
ssg9
I1
sg10
(dp2402
g2
I27
sg3
I1
sg9
I1
sg10
I1
sssg9
I1
sg10
(dp2403
g2
I28
sg3
(dp2404
g2
I2
sg3
I1
sg9
I1
sg10
I1
ssg9
I0
sg10
(dp2405
g2
I29
sg3
I1
sg9
I1
sg10
I-1
ssssg9
I0
sg10
(dp2406
g2
I13
sg3
(dp2407
g2
I27
sg3
(dp2408
g2
I21
sg3
I1
sg9
I1
sg10
I1
ssg9
I1
sg10
(dp2409
g2
I12
sg3
I1
sg9
I1
sg10
I1
sssg9
I0
sg10
(dp2410
g2
I6
sg3
(dp2411
g2
I18
sg3
I1
sg9
I0
sg10
I1
ssg9
I1
sg10
(dp2412
g2
I6
sg3
I-1
sg9
I0
sg10
I-1
sssssg9
I1
sg10
(dp2413
g2
I16
sg3
(dp2414
g2
I13
sg3
(dp2415
g2
I13
sg3
(dp2416
g2
I18
sg3
I-1
sg9
I1
sg10
I-1
ssg9
I1
sg10
(dp2417
g2
I6
sg3
I-1
sg9
I1
sg10
I-1
sssg9
I0
sg10
(dp2418
g2
I6
sg3
(dp2419
g2
I13
sg3
I-1
sg9
I-1
sg10
I-1
ssg9
I1
sg10
(dp2420
g2
I1
sg3
I-1
sg9
I-1
sg10
I-1
ssssg9
I1
sg10
(dp2421
g2
I13
sg3
(dp2422
g2
I28
sg3
(dp2423
g2
I1
sg3
I-1
sg9
I-1
sg10
I-1
ssg9
I1
sg10
(dp2424
g2
I12
sg3
I-1
sg9
I1
sg10
I-1
sssg9
I0
sg10
(dp2425
g2
I23
sg3
I-1
sg9
I-1
sg10
I-1
sssssa(dp2426
g2
I14
sg3
(dp2427
g2
I13
sg3
(dp2428
g2
I8
sg3
(dp2429
g2
I4
sg3
(dp2430
g2
I18
sg3
(dp2431
g2
I1
sg3
I-1
sg9
I1
sg10
I1
ssg9
I1
sg10
(dp2432
g2
I21
sg3
I1
sg9
I1
sg10
I1
sssg9
I1
sg10
(dp2433
g2
I14
sg3
I1
sg9
I1
sg10
I1
sssg9
I1
sg10
(dp2434
g2
I7
sg3
(dp2435
g2
I5
sg3
(dp2436
g2
I2
sg3
I1
sg9
I1
sg10
I1
ssg9
I1
sg10
(dp2437
g2
I25
sg3
I1
sg9
I1
sg10
I1
sssg9
I1
sg10
(dp2438
g2
I13
sg3
(dp2439
g2
I17
sg3
I1
sg9
I1
sg10
I1
ssg9
I1
sg10
(dp2440
g2
I6
sg3
I1
sg9
I1
sg10
I-1
sssssg9
I0
sg10
(dp2441
g2
I10
sg3
(dp2442
g2
I18
sg3
I-1
sg9
I0
sg10
I-1
ssg9
I1
sg10
(dp2443
g2
I12
sg3
(dp2444
g2
I4
sg3
(dp2445
g2
I18
sg3
I-1
sg9
I1
sg10
I1
ssg9
I1
sg10
(dp2446
g2
I1
sg3
I-1
sg9
I-1
sg10
I-1
sssg9
I1
sg10
(dp2447
g2
I8
sg3
(dp2448
g2
I17
sg3
I-1
sg9
I-1
sg10
I-1
ssg9
I1
sg10
(dp2449
g2
I8
sg3
I-1
sg9
I-1
sg10
I-1
ssssssg9
I1
sg10
(dp2450
g2
I4
sg3
(dp2451
g2
I13
sg3
(dp2452
g2
I7
sg3
(dp2453
g2
I14
sg3
(dp2454
g2
I23
sg3
I1
sg9
I1
sg10
I1
ssg9
I0
sg10
(dp2455
g2
I21
sg3
I1
sg9
I1
sg10
I1
sssg9
I1
sg10
(dp2456
g2
I12
sg3
(dp2457
g2
I15
sg3
I1
sg9
I1
sg10
I-1
ssg9
I1
sg10
(dp2458
g2
I13
sg3
I-1
sg9
I1
sg10
I-1
ssssg9
I0
sg10
(dp2459
g2
I5
sg3
(dp2460
g2
I7
sg3
I1
sg9
I1
sg10
I1
ssg9
I1
sg10
(dp2461
g2
I18
sg3
I-1
sg9
I0
sg10
I-1
ssssg9
I1
sg10
(dp2462
g2
I1
sg3
(dp2463
g2
I8
sg3
(dp2464
g2
I21
sg3
I-1
sg9
I1
sg10
I-1
ssg9
I1
sg10
(dp2465
g2
I16
sg3
(dp2466
g2
I13
sg3
I1
sg9
I0
sg10
I-1
ssg9
I1
sg10
(dp2467
g2
I28
sg3
I1
sg9
I1
sg10
I1
ssssg9
I1
sg10
(dp2468
g2
I17
sg3
(dp2469
g2
I5
sg3
(dp2470
g2
I1
sg3
I1
sg9
I-1
sg10
I1
ssg9
I1
sg10
(dp2471
g2
I13
sg3
I1
sg9
I1
sg10
I-1
sssg9
I1
sg10
(dp2472
g2
I0
sg3
(dp2473
g2
I23
sg3
I-1
sg9
I1
sg10
I1
ssg9
I1
sg10
(dp2474
g2
I2
sg3
I1
sg9
I1
sg10
I1
ssssssa(dp2475
g2
I25
sg3
(dp2476
g2
I6
sg3
(dp2477
g2
I13
sg3
(dp2478
g2
I9
sg3
(dp2479
g2
I17
sg3
(dp2480
g2
I11
sg3
I1
sg9
I1
sg10
I1
ssg9
I1
sg10
(dp2481
g2
I15
sg3
I1
sg9
I-1
sg10
I1
sssg9
I1
sg10
(dp2482
g2
I29
sg3
(dp2483
g2
I11
sg3
I1
sg9
I1
sg10
I1
ssg9
I1
sg10
(dp2484
g2
I14
sg3
I-1
sg9
I1
sg10
I1
ssssg9
I0
sg10
(dp2485
g2
I7
sg3
(dp2486
g2
I15
sg3
I-1
sg9
I-1
sg10
I-1
ssg9
I0
sg10
(dp2487
g2
I10
sg3
(dp2488
g2
I9
sg3
I-1
sg9
I1
sg10
I-1
ssg9
I1
sg10
I-1
ssssg9
I1
sg10
(dp2489
g2
I7
sg3
(dp2490
g2
I5
sg3
(dp2491
g2
I26
sg3
I1
sg9
I-1
sg10
I1
ssg9
I1
sg10
(dp2492
g2
I1
sg3
(dp2493
g2
I11
sg3
I1
sg9
I1
sg10
I1
ssg9
I0
sg10
(dp2494
g2
I14
sg3
I1
sg9
I0
sg10
I1
ssssg9
I1
sg10
(dp2495
g2
I24
sg3
(dp2496
g2
I15
sg3
(dp2497
g2
I14
sg3
I1
sg9
I0
sg10
I-1
ssg9
I1
sg10
(dp2498
g2
I8
sg3
I-1
sg9
I1
sg10
I-1
sssg9
I1
sg10
(dp2499
g2
I23
sg3
(dp2500
g2
I20
sg3
I-1
sg9
I-1
sg10
I-1
ssg9
I1
sg10
(dp2501
g2
I3
sg3
I-1
sg9
I1
sg10
I-1
ssssssg9
I1
sg10
(dp2502
g2
I5
sg3
(dp2503
g2
I9
sg3
(dp2504
g2
I27
sg3
(dp2505
g2
I8
sg3
I1
sg9
I-1
sg10
I1
ssg9
I1
sg10
(dp2506
g2
I14
sg3
(dp2507
g2
I27
sg3
I1
sg9
I-1
sg10
I1
ssg9
I0
sg10
(dp2508
g2
I11
sg3
I1
sg9
I1
sg10
I1
ssssg9
I1
sg10
(dp2509
g2
I27
sg3
(dp2510
g2
I24
sg3
(dp2511
g2
I9
sg3
I1
sg9
I-1
sg10
I1
ssg9
I1
sg10
I1
ssg9
I1
sg10
I1
sssg9
I1
sg10
(dp2512
g2
I24
sg3
(dp2513
g2
I23
sg3
(dp2514
g2
I25
sg3
(dp2515
g2
I16
sg3
I-1
sg9
I1
sg10
I-1
ssg9
I0
sg10
(dp2516
g2
I16
sg3
I1
sg9
I1
sg10
I1
sssg9
I1
sg10
(dp2517
g2
I12
sg3
(dp2518
g2
I10
sg3
I-1
sg9
I1
sg10
I-1
ssg9
I1
sg10
(dp2519
g2
I8
sg3
I-1
sg9
I1
sg10
I-1
ssssg9
I1
sg10
(dp2520
g2
I6
sg3
(dp2521
g2
I25
sg3
(dp2522
g2
I1
sg3
I-1
sg9
I1
sg10
I-1
ssg9
I0
sg10
(dp2523
g2
I18
sg3
I1
sg9
I1
sg10
I-1
sssg9
I1
sg10
(dp2524
g2
I20
sg3
(dp2525
g2
I13
sg3
I-1
sg9
I0
sg10
I-1
ssg9
I1
sg10
(dp2526
g2
I13
sg3
I1
sg9
I0
sg10
I-1
ssssssa(dp2527
g2
I12
sg3
(dp2528
g2
I6
sg3
(dp2529
g2
I13
sg3
(dp2530
g2
I9
sg3
(dp2531
g2
I13
sg3
(dp2532
g2
I27
sg3
I1
sg9
I1
sg10
I1
ssg9
I1
sg10
(dp2533
g2
I5
sg3
I1
sg9
I1
sg10
I1
sssg9
I1
sg10
(dp2534
g2
I25
sg3
(dp2535
g2
I6
sg3
I1
sg9
I1
sg10
I1
ssg9
I1
sg10
(dp2536
g2
I28
sg3
I1
sg9
I0
sg10
I1
ssssg9
I0
sg10
(dp2537
g2
I25
sg3
(dp2538
g2
I7
sg3
I-1
sg9
I-1
sg10
I-1
ssg9
I1
sg10
(dp2539
g2
I26
sg3
I-1
sg9
I-1
sg10
I-1
ssssg9
I1
sg10
(dp2540
g2
I0
sg3
(dp2541
g2
I7
sg3
(dp2542
g2
I10
sg3
(dp2543
g2
I5
sg3
I1
sg9
I1
sg10
I1
ssg9
I1
sg10
(dp2544
g2
I5
sg3
I1
sg9
I-1
sg10
I1
sssg9
I1
sg10
(dp2545
g2
I28
sg3
(dp2546
g2
I7
sg3
I-1
sg9
I0
sg10
I-1
ssg9
I1
sg10
(dp2547
g2
I24
sg3
I-1
sg9
I1
sg10
I-1
ssssg9
I1
sg10
(dp2548
g2
I14
sg3
(dp2549
g2
I7
sg3
(dp2550
g2
I3
sg3
I1
sg9
I1
sg10
I1
ssg9
I1
sg10
(dp2551
g2
I26
sg3
I-1
sg9
I1
sg10
I-1
sssg9
I0
sg10
(dp2552
g2
I13
sg3
(dp2553
g2
I2
sg3
I-1
sg9
I1
sg10
I1
ssg9
I0
sg10
(dp2554
g2
I24
sg3
I-1
sg9
I-1
sg10
I-1
ssssssg9
I1
sg10
(dp2555
g2
I7
sg3
(dp2556
g2
I6
sg3
(dp2557
g2
I8
sg3
(dp2558
g2
I11
sg3
(dp2559
g2
I15
sg3
I1
sg9
I0
sg10
I1
ssg9
I1
sg10
(dp2560
g2
I26
sg3
I1
sg9
I1
sg10
I1
sssg9
I1
sg10
(dp2561
g2
I6
sg3
I1
sg9
I1
sg10
I1
sssg9
I1
sg10
(dp2562
g2
I2
sg3
(dp2563
g2
I13
sg3
(dp2564
g2
I23
sg3
I1
sg9
I1
sg10
I1
ssg9
I0
sg10
(dp2565
g2
I25
sg3
I-1
sg9
I0
sg10
I-1
sssg9
I1
sg10
(dp2566
g2
I26
sg3
(dp2567
g2
I16
sg3
I1
sg9
I1
sg10
I1
ssg9
I1
sg10
(dp2568
g2
I18
sg3
I1
sg9
I0
sg10
I1
sssssg9
I1
sg10
(dp2569
g2
I5
sg3
(dp2570
g2
I22
sg3
I1
sg9
I1
sg10
I1
ssg9
I1
sg10
(dp2571
g2
I6
sg3
(dp2572
g2
I16
sg3
(dp2573
g2
I13
sg3
I-1
sg9
I0
sg10
I-1
ssg9
I1
sg10
(dp2574
g2
I6
sg3
I-1
sg9
I1
sg10
I-1
sssg9
I1
sg10
(dp2575
g2
I13
sg3
(dp2576
g2
I24
sg3
I-1
sg9
I1
sg10
I-1
ssg9
I0
sg10
(dp2577
g2
I29
sg3
I-1
sg9
I-1
sg10
I-1
ssssssa(dp2578
g2
I13
sg3
(dp2579
g2
I5
sg3
(dp2580
g2
I28
sg3
(dp2581
g2
I2
sg3
(dp2582
g2
I26
sg3
(dp2583
g2
I29
sg3
I1
sg9
I1
sg10
I1
ssg9
I1
sg10
(dp2584
g2
I4
sg3
I1
sg9
I1
sg10
I1
sssg9
I1
sg10
(dp2585
g2
I6
sg3
(dp2586
g2
I22
sg3
I1
sg9
I1
sg10
I1
ssg9
I1
sg10
(dp2587
g2
I4
sg3
I1
sg9
I-1
sg10
I1
ssssg9
I0
sg10
(dp2588
g2
I17
sg3
(dp2589
g2
I6
sg3
(dp2590
g2
I13
sg3
I1
sg9
I0
sg10
I1
ssg9
I1
sg10
(dp2591
g2
I20
sg3
I1
sg9
I1
sg10
I1
sssg9
I1
sg10
(dp2592
g2
I29
sg3
(dp2593
g2
I25
sg3
I1
sg9
I1
sg10
I1
ssg9
I1
sg10
(dp2594
g2
I25
sg3
I1
sg9
I1
sg10
I1
sssssg9
I1
sg10
(dp2595
g2
I7
sg3
(dp2596
g2
I6
sg3
(dp2597
g2
I28
sg3
(dp2598
g2
I29
sg3
I1
sg9
I1
sg10
I1
ssg9
I1
sg10
(dp2599
g2
I3
sg3
I1
sg9
I1
sg10
I1
sssg9
I1
sg10
(dp2600
g2
I21
sg3
(dp2601
g2
I15
sg3
I1
sg9
I0
sg10
I1
ssg9
I1
sg10
(dp2602
g2
I25
sg3
I1
sg9
I1
sg10
I1
ssssg9
I1
sg10
(dp2603
g2
I27
sg3
(dp2604
g2
I1
sg3
(dp2605
g2
I12
sg3
I1
sg9
I1
sg10
I-1
ssg9
I1
sg10
(dp2606
g2
I4
sg3
I-1
sg9
I1
sg10
I1
sssg9
I1
sg10
(dp2607
g2
I14
sg3
(dp2608
g2
I19
sg3
I-1
sg9
I1
sg10
I-1
ssg9
I0
sg10
(dp2609
g2
I11
sg3
I-1
sg9
I1
sg10
I1
ssssssg9
I0
sg10
(dp2610
g2
I5
sg3
(dp2611
g2
I23
sg3
I1
sg9
I1
sg10
I1
ssg9
I1
sg10
(dp2612
g2
I16
sg3
(dp2613
g2
I13
sg3
I-1
sg9
I-1
sg10
I-1
ssg9
I1
sg10
(dp2614
g2
I6
sg3
(dp2615
g2
I8
sg3
(dp2616
g2
I18
sg3
I-1
sg9
I0
sg10
I-1
ssg9
I1
sg10
(dp2617
g2
I29
sg3
I-1
sg9
I1
sg10
I-1
sssg9
I0
sg10
(dp2618
g2
I25
sg3
(dp2619
g2
I24
sg3
I-1
sg9
I1
sg10
I-1
ssg9
I1
sg10
(dp2620
g2
I26
sg3
I-1
sg9
I-1
sg10
I-1
ssssssa(dp2621
g2
I2
sg3
(dp2622
g2
I24
sg3
(dp2623
g2
I13
sg3
(dp2624
g2
I27
sg3
(dp2625
g2
I8
sg3
(dp2626
g2
I7
sg3
I1
sg9
I1
sg10
I-1
ssg9
I1
sg10
(dp2627
g2
I25
sg3
I1
sg9
I1
sg10
I1
sssg9
I1
sg10
(dp2628
g2
I14
sg3
(dp2629
g2
I6
sg3
I1
sg9
I1
sg10
I1
ssg9
I1
sg10
(dp2630
g2
I15
sg3
I1
sg9
I0
sg10
I-1
ssssg9
I0
sg10
(dp2631
g2
I17
sg3
(dp2632
g2
I17
sg3
I-1
sg9
I1
sg10
I-1
ssg9
I1
sg10
(dp2633
g2
I19
sg3
I-1
sg9
I1
sg10
I-1
ssssg9
I1
sg10
(dp2634
g2
I19
sg3
(dp2635
g2
I17
sg3
(dp2636
g2
I25
sg3
(dp2637
g2
I12
sg3
I1
sg9
I1
sg10
I1
ssg9
I1
sg10
(dp2638
g2
I23
sg3
I-1
sg9
I1
sg10
I-1
sssg9
I1
sg10
(dp2639
g2
I11
sg3
(dp2640
g2
I9
sg3
I-1
sg9
I1
sg10
I-1
ssg9
I1
sg10
(dp2641
g2
I13
sg3
I1
sg9
I0
sg10
I-1
ssssg9
I1
sg10
(dp2642
g2
I7
sg3
(dp2643
g2
I12
sg3
(dp2644
g2
I21
sg3
I1
sg9
I-1
sg10
I1
ssg9
I1
sg10
(dp2645
g2
I13
sg3
I1
sg9
I1
sg10
I1
sssg9
I1
sg10
(dp2646
g2
I14
sg3
(dp2647
g2
I29
sg3
I-1
sg9
I-1
sg10
I-1
ssg9
I0
sg10
(dp2648
g2
I23
sg3
I-1
sg9
I1
sg10
I1
ssssssg9
I1
sg10
(dp2649
g2
I19
sg3
(dp2650
g2
I16
sg3
(dp2651
g2
I7
sg3
(dp2652
g2
I25
sg3
(dp2653
g2
I13
sg3
I1
sg9
I1
sg10
I1
ssg9
I1
sg10
(dp2654
g2
I27
sg3
I1
sg9
I1
sg10
I1
sssg9
I1
sg10
(dp2655
g2
I13
sg3
(dp2656
g2
I2
sg3
I1
sg9
I-1
sg10
I1
ssg9
I0
sg10
(dp2657
g2
I6
sg3
I-1
sg9
I0
sg10
I-1
ssssg9
I1
sg10
(dp2658
g2
I12
sg3
(dp2659
g2
I5
sg3
(dp2660
g2
I7
sg3
I1
sg9
I1
sg10
I1
ssg9
I1
sg10
(dp2661
g2
I4
sg3
I-1
sg9
I1
sg10
I1
sssg9
I1
sg10
(dp2662
g2
I3
sg3
(dp2663
g2
I22
sg3
I-1
sg9
I1
sg10
I-1
ssg9
I1
sg10
(dp2664
g2
I23
sg3
I1
sg9
I1
sg10
I-1
sssssg9
I1
sg10
(dp2665
g2
I11
sg3
(dp2666
g2
I4
sg3
I1
sg9
I1
sg10
I1
ssg9
I1
sg10
(dp2667
g2
I13
sg3
(dp2668
g2
I15
sg3
(dp2669
g2
I0
sg3
I1
sg9
I-1
sg10
I1
ssg9
I1
sg10
(dp2670
g2
I13
sg3
I-1
sg9
I0
sg10
I-1
sssg9
I0
sg10
(dp2671
g2
I20
sg3
(dp2672
g2
I25
sg3
I-1
sg9
I-1
sg10
I-1
ssg9
I1
sg10
(dp2673
g2
I24
sg3
I-1
sg9
I-1
sg10
I-1
ssssssa(dp2674
g2
I25
sg3
(dp2675
g2
I2
sg3
(dp2676
g2
I15
sg3
(dp2677
g2
I16
sg3
(dp2678
g2
I6
sg3
(dp2679
g2
I24
sg3
I1
sg9
I1
sg10
I1
ssg9
I1
sg10
(dp2680
g2
I5
sg3
I1
sg9
I1
sg10
I1
sssg9
I1
sg10
(dp2681
g2
I15
sg3
(dp2682
g2
I6
sg3
I1
sg9
I-1
sg10
I1
ssg9
I1
sg10
(dp2683
g2
I13
sg3
I1
sg9
I0
sg10
I-1
ssssg9
I0
sg10
(dp2684
g2
I0
sg3
(dp2685
g2
I19
sg3
(dp2686
g2
I3
sg3
I1
sg9
I1
sg10
I1
ssg9
I1
sg10
(dp2687
g2
I22
sg3
I1
sg9
I1
sg10
I1
sssg9
I1
sg10
(dp2688
g2
I13
sg3
(dp2689
g2
I21
sg3
I-1
sg9
I1
sg10
I1
ssg9
I0
sg10
(dp2690
g2
I8
sg3
I-1
sg9
I1
sg10
I-1
sssssg9
I1
sg10
(dp2691
g2
I16
sg3
(dp2692
g2
I7
sg3
(dp2693
g2
I23
sg3
(dp2694
g2
I13
sg3
I1
sg9
I0
sg10
I-1
ssg9
I1
sg10
(dp2695
g2
I18
sg3
I1
sg9
I0
sg10
I1
sssg9
I1
sg10
(dp2696
g2
I6
sg3
(dp2697
g2
I27
sg3
I-1
sg9
I1
sg10
I-1
ssg9
I1
sg10
(dp2698
g2
I26
sg3
I1
sg9
I1
sg10
I-1
ssssg9
I1
sg10
(dp2699
g2
I15
sg3
(dp2700
g2
I0
sg3
I1
sg9
I-1
sg10
I1
ssg9
I1
sg10
(dp2701
g2
I13
sg3
I1
sg9
I1
sg10
(dp2702
g2
I19
sg3
I-1
sg9
I-1
sg10
I-1
ssssssg9
I1
sg10
(dp2703
g2
I7
sg3
(dp2704
g2
I26
sg3
(dp2705
g2
I6
sg3
(dp2706
g2
I15
sg3
(dp2707
g2
I24
sg3
I1
sg9
I1
sg10
I1
ssg9
I1
sg10
(dp2708
g2
I3
sg3
I1
sg9
I1
sg10
I1
sssg9
I1
sg10
(dp2709
g2
I14
sg3
(dp2710
g2
I8
sg3
I1
sg9
I1
sg10
I1
ssg9
I0
sg10
(dp2711
g2
I3
sg3
I1
sg9
I1
sg10
I-1
ssssg9
I1
sg10
(dp2712
g2
I13
sg3
(dp2713
g2
I25
sg3
(dp2714
g2
I6
sg3
I1
sg9
I1
sg10
I1
ssg9
I0
sg10
(dp2715
g2
I12
sg3
I1
sg9
I1
sg10
I1
sssg9
I0
sg10
(dp2716
g2
I6
sg3
I-1
sg9
I-1
sg10
I-1
ssssg9
I1
sg10
(dp2717
g2
I7
sg3
(dp2718
g2
I26
sg3
I-1
sg9
I-1
sg10
I-1
ssg9
I0
sg10
(dp2719
g2
I14
sg3
(dp2720
g2
I25
sg3
(dp2721
g2
I16
sg3
I1
sg9
I1
sg10
I-1
ssg9
I0
sg10
(dp2722
g2
I19
sg3
I-1
sg9
I1
sg10
I-1
sssg9
I1
sg10
(dp2723
g2
I28
sg3
(dp2724
g2
I23
sg3
I-1
sg9
I1
sg10
I-1
ssg9
I0
sg10
(dp2725
g2
I25
sg3
I1
sg9
I0
sg10
I-1
ssssssa(dp2726
g2
I27
sg3
(dp2727
g2
I7
sg3
(dp2728
g2
I23
sg3
(dp2729
g2
I8
sg3
(dp2730
g2
I13
sg3
(dp2731
g2
I6
sg3
I1
sg9
I0
sg10
I1
ssg9
I0
sg10
(dp2732
g2
I29
sg3
I-1
sg9
I-1
sg10
I-1
sssg9
I1
sg10
(dp2733
g2
I11
sg3
(dp2734
g2
I5
sg3
I1
sg9
I1
sg10
I1
ssg9
I1
sg10
(dp2735
g2
I29
sg3
I1
sg9
I1
sg10
I1
ssssg9
I1
sg10
(dp2736
g2
I6
sg3
(dp2737
g2
I15
sg3
(dp2738
g2
I20
sg3
I1
sg9
I1
sg10
I1
ssg9
I1
sg10
(dp2739
g2
I12
sg3
I1
sg9
I1
sg10
I1
sssg9
I0
sg10
(dp2740
g2
I18
sg3
(dp2741
g2
I29
sg3
I1
sg9
I1
sg10
I1
ssg9
I1
sg10
(dp2742
g2
I13
sg3
I1
sg9
I0
sg10
I-1
sssssg9
I1
sg10
(dp2743
g2
I0
sg3
(dp2744
g2
I12
sg3
(dp2745
g2
I14
sg3
(dp2746
g2
I7
sg3
I-1
sg9
I0
sg10
I1
ssg9
I1
sg10
(dp2747
g2
I26
sg3
I-1
sg9
I1
sg10
I-1
sssg9
I1
sg10
(dp2748
g2
I8
sg3
(dp2749
g2
I13
sg3
I-1
sg9
I0
sg10
I-1
ssg9
I1
sg10
(dp2750
g2
I6
sg3
I-1
sg9
I1
sg10
I-1
ssssg9
I1
sg10
(dp2751
g2
I29
sg3
(dp2752
g2
I13
sg3
(dp2753
g2
I26
sg3
I-1
sg9
I1
sg10
I1
ssg9
I1
sg10
(dp2754
g2
I25
sg3
I-1
sg9
I1
sg10
I-1
sssg9
I1
sg10
(dp2755
g2
I17
sg3
(dp2756
g2
I27
sg3
I-1
sg9
I1
sg10
I-1
ssg9
I1
sg10
(dp2757
g2
I12
sg3
I-1
sg9
I-1
sg10
I-1
ssssssg9
I1
sg10
(dp2758
g2
I7
sg3
(dp2759
g2
I26
sg3
(dp2760
g2
I27
sg3
I1
sg9
I-1
sg10
I1
ssg9
I1
sg10
(dp2761
g2
I17
sg3
(dp2762
g2
I6
sg3
(dp2763
g2
I13
sg3
I1
sg9
I1
sg10
I1
ssg9
I1
sg10
(dp2764
g2
I12
sg3
I1
sg9
I1
sg10
I-1
sssg9
I1
sg10
(dp2765
g2
I25
sg3
(dp2766
g2
I25
sg3
I1
sg9
I1
sg10
I1
ssg9
I1
sg10
(dp2767
g2
I17
sg3
I1
sg9
I-1
sg10
I1
sssssg9
I1
sg10
(dp2768
g2
I15
sg3
(dp2769
g2
I14
sg3
(dp2770
g2
I27
sg3
I1
sg9
I-1
sg10
I1
ssg9
I1
sg10
(dp2771
g2
I4
sg3
I-1
sg9
I1
sg10
I-1
sssg9
I1
sg10
(dp2772
g2
I13
sg3
(dp2773
g2
I12
sg3
(dp2774
g2
I4
sg3
I-1
sg9
I1
sg10
I1
ssg9
I1
sg10
(dp2775
g2
I11
sg3
I-1
sg9
I1
sg10
I-1
sssg9
I1
sg10
(dp2776
g2
I26
sg3
(dp2777
g2
I3
sg3
I-1
sg9
I1
sg10
I-1
ssg9
I1
sg10
(dp2778
g2
I10
sg3
I-1
sg9
I1
sg10
I-1
ssssssa(dp2779
g2
I25
sg3
(dp2780
g2
I13
sg3
(dp2781
g2
I8
sg3
(dp2782
g2
I11
sg3
(dp2783
g2
I15
sg3
(dp2784
g2
I20
sg3
I1
sg9
I1
sg10
I1
ssg9
I0
sg10
(dp2785
g2
I13
sg3
I1
sg9
I1
sg10
I1
sssg9
I1
sg10
(dp2786
g2
I7
sg3
(dp2787
g2
I1
sg3
I1
sg9
I-1
sg10
I1
ssg9
I1
sg10
I-1
sssg9
I1
sg10
(dp2788
g2
I2
sg3
(dp2789
g2
I7
sg3
(dp2790
g2
I14
sg3
I1
sg9
I0
sg10
I1
ssg9
I1
sg10
(dp2791
g2
I6
sg3
I-1
sg9
I1
sg10
I1
sssg9
I1
sg10
(dp2792
g2
I15
sg3
(dp2793
g2
I18
sg3
I1
sg9
I0
sg10
I1
ssg9
I0
sg10
(dp2794
g2
I18
sg3
I1
sg9
I1
sg10
I1
sssssg9
I0
sg10
(dp2795
g2
I15
sg3
(dp2796
g2
I10
sg3
(dp2797
g2
I14
sg3
(dp2798
g2
I4
sg3
I1
sg9
I1
sg10
I-1
ssg9
I0
sg10
(dp2799
g2
I27
sg3
I-1
sg9
I1
sg10
I-1
sssg9
I1
sg10
(dp2800
g2
I12
sg3
I-1
sg9
I1
sg10
I-1
sssg9
I1
sg10
(dp2801
g2
I28
sg3
(dp2802
g2
I12
sg3
(dp2803
g2
I14
sg3
I-1
sg9
I0
sg10
I-1
ssg9
I1
sg10
(dp2804
g2
I28
sg3
I-1
sg9
I1
sg10
I-1
sssg9
I1
sg10
(dp2805
g2
I26
sg3
I-1
sg9
I-1
sg10
I-1
sssssg9
I1
sg10
(dp2806
g2
I4
sg3
(dp2807
g2
I7
sg3
(dp2808
g2
I6
sg3
(dp2809
g2
I25
sg3
(dp2810
g2
I13
sg3
I1
sg9
I1
sg10
I1
ssg9
I0
sg10
(dp2811
g2
I25
sg3
I1
sg9
I-1
sg10
I1
sssg9
I1
sg10
(dp2812
g2
I13
sg3
(dp2813
g2
I15
sg3
I1
sg9
I0
sg10
I1
ssg9
I0
sg10
(dp2814
g2
I1
sg3
I-1
sg9
I-1
sg10
I-1
ssssg9
I1
sg10
(dp2815
g2
I9
sg3
(dp2816
g2
I15
sg3
(dp2817
g2
I21
sg3
I-1
sg9
I1
sg10
I-1
ssg9
I0
sg10
(dp2818
g2
I28
sg3
I-1
sg9
I0
sg10
I-1
sssg9
I1
sg10
(dp2819
g2
I18
sg3
I-1
sg9
I0
sg10
I-1
ssssg9
I1
sg10
(dp2820
g2
I21
sg3
(dp2821
g2
I28
sg3
(dp2822
g2
I24
sg3
I-1
sg9
I1
sg10
(dp2823
g2
I15
sg3
I1
sg9
I0
sg10
I1
sssg9
I1
sg10
(dp2824
g2
I24
sg3
(dp2825
g2
I6
sg3
I-1
sg9
I0
sg10
I-1
ssg9
I1
sg10
(dp2826
g2
I20
sg3
I-1
sg9
I1
sg10
I-1
ssssg9
I1
sg10
(dp2827
g2
I5
sg3
I1
sg9
I1
sg10
(dp2828
g2
I6
sg3
(dp2829
g2
I15
sg3
I1
sg9
I-1
sg10
I1
ssg9
I1
sg10
(dp2830
g2
I0
sg3
I-1
sg9
I-1
sg10
I-1
ssssssa(dp2831
g2
I27
sg3
(dp2832
g2
I12
sg3
(dp2833
g2
I6
sg3
(dp2834
g2
I3
sg3
(dp2835
g2
I7
sg3
(dp2836
g2
I13
sg3
I1
sg9
I0
sg10
I-1
ssg9
I1
sg10
(dp2837
g2
I15
sg3
I1
sg9
I1
sg10
I-1
sssg9
I1
sg10
(dp2838
g2
I26
sg3
(dp2839
g2
I21
sg3
I1
sg9
I1
sg10
I-1
ssg9
I1
sg10
(dp2840
g2
I15
sg3
I1
sg9
I0
sg10
I1
ssssg9
I1
sg10
(dp2841
g2
I7
sg3
(dp2842
g2
I5
sg3
(dp2843
g2
I5
sg3
I1
sg9
I1
sg10
I1
ssg9
I1
sg10
(dp2844
g2
I25
sg3
I1
sg9
I1
sg10
I1
sssg9
I1
sg10
(dp2845
g2
I7
sg3
(dp2846
g2
I4
sg3
I-1
sg9
I1
sg10
I-1
ssg9
I0
sg10
(dp2847
g2
I15
sg3
I-1
sg9
I1
sg10
I-1
sssssg9
I1
sg10
(dp2848
g2
I5
sg3
(dp2849
g2
I9
sg3
(dp2850
g2
I10
sg3
I1
sg9
I1
sg10
I1
ssg9
I1
sg10
(dp2851
g2
I9
sg3
I1
sg9
I-1
sg10
I1
sssg9
I1
sg10
(dp2852
g2
I23
sg3
(dp2853
g2
I13
sg3
(dp2854
g2
I7
sg3
I1
sg9
I1
sg10
I-1
ssg9
I0
sg10
(dp2855
g2
I23
sg3
I-1
sg9
I1
sg10
I-1
sssg9
I1
sg10
(dp2856
g2
I15
sg3
(dp2857
g2
I1
sg3
I-1
sg9
I0
sg10
I1
ssg9
I1
sg10
(dp2858
g2
I25
sg3
I-1
sg9
I1
sg10
I-1
ssssssg9
I1
sg10
(dp2859
g2
I6
sg3
(dp2860
g2
I7
sg3
(dp2861
g2
I12
sg3
(dp2862
g2
I11
sg3
(dp2863
g2
I1
sg3
I1
sg9
I-1
sg10
I1
ssg9
I1
sg10
(dp2864
g2
I23
sg3
I1
sg9
I-1
sg10
I1
sssg9
I1
sg10
(dp2865
g2
I24
sg3
(dp2866
g2
I25
sg3
I1
sg9
I1
sg10
I1
ssg9
I1
sg10
(dp2867
g2
I8
sg3
I1
sg9
I1
sg10
I1
ssssg9
I1
sg10
(dp2868
g2
I24
sg3
(dp2869
g2
I19
sg3
(dp2870
g2
I5
sg3
I-1
sg9
I-1
sg10
I-1
ssg9
I1
sg10
I-1
ssg9
I1
sg10
(dp2871
g2
I5
sg3
(dp2872
g2
I6
sg3
I1
sg9
I1
sg10
I1
ssg9
I1
sg10
(dp2873
g2
I4
sg3
I-1
sg9
I1
sg10
I1
sssssg9
I1
sg10
(dp2874
g2
I5
sg3
(dp2875
g2
I24
sg3
I1
sg9
I-1
sg10
I1
ssg9
I1
sg10
(dp2876
g2
I2
sg3
(dp2877
g2
I15
sg3
(dp2878
g2
I8
sg3
I-1
sg9
I1
sg10
I-1
ssg9
I0
sg10
(dp2879
g2
I21
sg3
I-1
sg9
I1
sg10
I-1
sssg9
I1
sg10
(dp2880
g2
I3
sg3
(dp2881
g2
I26
sg3
I1
sg9
I1
sg10
I-1
ssg9
I1
sg10
(dp2882
g2
I2
sg3
I-1
sg9
I-1
sg10
I-1
ssssssa(dp2883
g2
I6
sg3
(dp2884
g2
I12
sg3
(dp2885
g2
I8
sg3
(dp2886
g2
I16
sg3
(dp2887
g2
I24
sg3
(dp2888
g2
I7
sg3
I1
sg9
I1
sg10
I-1
ssg9
I1
sg10
(dp2889
g2
I5
sg3
I1
sg9
I1
sg10
I1
sssg9
I1
sg10
I-1
ssg9
I1
sg10
(dp2890
g2
I2
sg3
(dp2891
g2
I14
sg3
(dp2892
g2
I14
sg3
I1
sg9
I1
sg10
I1
ssg9
I0
sg10
(dp2893
g2
I28
sg3
I1
sg9
I1
sg10
I1
sssg9
I1
sg10
(dp2894
g2
I9
sg3
(dp2895
g2
I1
sg3
I-1
sg9
I1
sg10
I1
ssg9
I1
sg10
(dp2896
g2
I4
sg3
I-1
sg9
I-1
sg10
I-1
sssssg9
I1
sg10
(dp2897
g2
I15
sg3
(dp2898
g2
I23
sg3
(dp2899
g2
I15
sg3
I1
sg9
I0
sg10
I1
ssg9
I1
sg10
(dp2900
g2
I25
sg3
(dp2901
g2
I14
sg3
I1
sg9
I0
sg10
I1
ssg9
I0
sg10
(dp2902
g2
I13
sg3
I1
sg9
I1
sg10
I-1
ssssg9
I0
sg10
(dp2903
g2
I20
sg3
(dp2904
g2
I13
sg3
(dp2905
g2
I25
sg3
I1
sg9
I0
sg10
I1
ssg9
I0
sg10
(dp2906
g2
I28
sg3
I-1
sg9
I0
sg10
I-1
sssg9
I1
sg10
I-1
ssssg9
I1
sg10
(dp2907
g2
I12
sg3
(dp2908
g2
I5
sg3
(dp2909
g2
I14
sg3
(dp2910
g2
I26
sg3
I1
sg9
I-1
sg10
I1
ssg9
I0
sg10
(dp2911
g2
I19
sg3
(dp2912
g2
I27
sg3
I1
sg9
I1
sg10
I1
ssg9
I1
sg10
(dp2913
g2
I22
sg3
I1
sg9
I-1
sg10
I1
ssssg9
I1
sg10
(dp2914
g2
I27
sg3
(dp2915
g2
I14
sg3
(dp2916
g2
I25
sg3
I1
sg9
I1
sg10
I-1
ssg9
I0
sg10
(dp2917
g2
I7
sg3
I1
sg9
I1
sg10
I-1
sssg9
I1
sg10
(dp2918
g2
I29
sg3
(dp2919
g2
I14
sg3
I-1
sg9
I0
sg10
I-1
ssg9
I1
sg10
(dp2920
g2
I23
sg3
I-1
sg9
I1
sg10
I1
sssssg9
I1
sg10
(dp2921
g2
I19
sg3
(dp2922
g2
I14
sg3
(dp2923
g2
I7
sg3
(dp2924
g2
I25
sg3
I1
sg9
I1
sg10
I1
ssg9
I1
sg10
(dp2925
g2
I28
sg3
I-1
sg9
I1
sg10
I-1
sssg9
I0
sg10
(dp2926
g2
I7
sg3
(dp2927
g2
I17
sg3
I-1
sg9
I1
sg10
I1
ssg9
I1
sg10
(dp2928
g2
I26
sg3
I-1
sg9
I1
sg10
I-1
ssssg9
I1
sg10
(dp2929
g2
I3
sg3
(dp2930
g2
I7
sg3
(dp2931
g2
I6
sg3
I1
sg9
I0
sg10
I1
ssg9
I1
sg10
(dp2932
g2
I4
sg3
I-1
sg9
I1
sg10
I-1
sssg9
I1
sg10
(dp2933
g2
I25
sg3
(dp2934
g2
I6
sg3
I-1
sg9
I0
sg10
I1
ssg9
I1
sg10
(dp2935
g2
I0
sg3
I-1
sg9
I-1
sg10
I-1
ssssssa.