(lp0
(dp1
S'index'
p2
I6
sS'right'
p3
(dp4
g2
I8
sg3
(dp5
g2
I7
sg3
(dp6
g2
I13
sg3
(dp7
g2
I27
sg3
(dp8
g2
I0
sg3
I1
sS'value'
p9
I1
sS'left'
p10
I1
ssg9
I1
sg10
(dp11
g2
I12
sg3
I1
sg9
I1
sg10
I1
sssg9
I0
sg10
I-1
ssg9
I1
sg10
(dp12
g2
I13
sg3
(dp13
g2
I11
sg3
(dp14
g2
I25
sg3
I-1
sg9
I0
sg10
I1
ssg9
I1
sg10
(dp15
g2
I23
sg3
I-1
sg9
I1
sg10
I-1
sssg9
I0
sg10
(dp16
g2
I0
sg3
(dp17
g2
I20
sg3
I-1
sg9
I1
sg10
I-1
ssg9
I1
sg10
(dp18
g2
I9
sg3
I-1
sg9
I1
sg10
I-1
sssssg9
I1
sg10
(dp19
g2
I25
sg3
(dp20
g2
I20
sg3
(dp21
g2
I18
sg3
(dp22
g2
I5
sg3
I1
sg9
I1
sg10
I1
ssg9
I1
sg10
(dp23
g2
I21
sg3
I1
sg9
I1
sg10
I1
sssg9
I1
sg10
(dp24
g2
I6
sg3
I1
sg9
I1
sg10
I1
sssg9
I1
sg10
(dp25
g2
I24
sg3
(dp26
g2
I25
sg3
(dp27
g2
I13
sg3
I1
sg9
I0
sg10
I-1
ssg9
I0
sg10
(dp28
g2
I13
sg3
I1
sg9
I0
sg10
I-1
sssg9
I1
sg10
(dp29
g2
I7
sg3
(dp30
g2
I0
sg3
I1
sg9
I1
sg10
I1
ssg9
I1
sg10
(dp31
g2
I14
sg3
I-1
sg9
I1
sg10
I-1
ssssssg9
I1
sg10
(dp32
g2
I8
sg3
(dp33
g2
I13
sg3
(dp34
g2
I5
sg3
(dp35
g2
I15
sg3
I1
sg9
I-1
sg10
I1
ssg9
I1
sg10
(dp36
g2
I2
sg3
(dp37
g2
I0
sg3
I1
sg9
I1
sg10
I-1
ssg9
I1
sg10
(dp38
g2
I18
sg3
I1
sg9
I1
sg10
I1
ssssg9
I0
sg10
(dp39
g2
I4
sg3
(dp40
g2
I14
sg3
(dp41
g2
I19
sg3
I-1
sg9
I-1
sg10
I-1
ssg9
I0
sg10
(dp42
g2
I11
sg3
I-1
sg9
I1
sg10
I-1
sssg9
I1
sg10
(dp43
g2
I24
sg3
I-1
sg9
I-1
sg10
I-1
ssssg9
I1
sg10
(dp44
g2
I7
sg3
(dp45
g2
I0
sg3
(dp46
g2
I5
sg3
(dp47
g2
I12
sg3
I1
sg9
I1
sg10
I1
ssg9
I1
sg10
(dp48
g2
I26
sg3
I1
sg9
I1
sg10
I1
sssg9
I1
sg10
(dp49
g2
I24
sg3
(dp50
g2
I25
sg3
I1
sg9
I1
sg10
I1
ssg9
I1
sg10
(dp51
g2
I11
sg3
I1
sg9
I1
sg10
I1
ssssg9
I1
sg10
(dp52
g2
I7
sg3
(dp53
g2
I24
sg3
I-1
sg9
I-1
sg10
I-1
ssg9
I0
sg10
(dp54
g2
I12
sg3
(dp55
g2
I13
sg3
I-1
sg9
I0
sg10
I-1
ssg9
I1
sg10
(dp56
g2
I3
sg3
I-1
sg9
I-1
sg10
I-1
ssssssa(dp57
g2
I25
sg3
(dp58
g2
I15
sg3
(dp59
g2
I7
sg3
(dp60
g2
I16
sg3
(dp61
g2
I6
sg3
I1
sg9
I-1
sg10
I1
ssg9
I1
sg10
(dp62
g2
I0
sg3
(dp63
g2
I28
sg3
I1
sg9
I0
sg10
I1
ssg9
I1
sg10
(dp64
g2
I29
sg3
I1
sg9
I1
sg10
I1
ssssg9
I1
sg10
(dp65
g2
I20
sg3
(dp66
g2
I12
sg3
(dp67
g2
I23
sg3
I1
sg9
I1
sg10
I1
ssg9
I1
sg10
(dp68
g2
I27
sg3
I-1
sg9
I1
sg10
I-1
sssg9
I1
sg10
(dp69
g2
I28
sg3
I-1
sg9
I1
sg10
I-1
ssssg9
I0
sg10
(dp70
g2
I10
sg3
(dp71
g2
I13
sg3
(dp72
g2
I2
sg3
(dp73
g2
I22
sg3
I1
sg9
I1
sg10
I1
ssg9
I1
sg10
(dp74
g2
I21
sg3
I1
sg9
I1
sg10
I-1
sssg9
I0
sg10
(dp75
g2
I6
sg3
(dp76
g2
I12
sg3
I-1
sg9
I-1
sg10
I-1
ssg9
I0
sg10
(dp77
g2
I0
sg3
I-1
sg9
I1
sg10
I-1
ssssg9
I1
sg10
(dp78
g2
I0
sg3
(dp79
g2
I6
sg3
(dp80
g2
I14
sg3
I1
sg9
I1
sg10
I1
ssg9
I1
sg10
(dp81
g2
I5
sg3
I1
sg9
I1
sg10
I1
sssg9
I1
sg10
(dp82
g2
I13
sg3
(dp83
g2
I11
sg3
I1
sg9
I1
sg10
I-1
ssg9
I0
sg10
(dp84
g2
I3
sg3
I-1
sg9
I-1
sg10
I-1
ssssssg9
I1
sg10
(dp85
g2
I12
sg3
(dp86
g2
I29
sg3
(dp87
g2
I13
sg3
(dp88
g2
I15
sg3
(dp89
g2
I25
sg3
I1
sg9
I0
sg10
I1
ssg9
I0
sg10
(dp90
g2
I14
sg3
I1
sg9
I0
sg10
I1
sssg9
I0
sg10
(dp91
g2
I5
sg3
I-1
sg9
I-1
sg10
I-1
sssg9
I1
sg10
(dp92
g2
I15
sg3
(dp93
g2
I13
sg3
(dp94
g2
I21
sg3
I1
sg9
I-1
sg10
I1
ssg9
I0
sg10
(dp95
g2
I26
sg3
I-1
sg9
I-1
sg10
I-1
sssg9
I1
sg10
(dp96
g2
I24
sg3
(dp97
g2
I7
sg3
I1
sg9
I1
sg10
I-1
ssg9
I1
sg10
(dp98
g2
I7
sg3
I-1
sg9
I1
sg10
I-1
sssssg9
I1
sg10
(dp99
g2
I7
sg3
(dp100
g2
I25
sg3
(dp101
g2
I5
sg3
(dp102
g2
I19
sg3
I1
sg9
I1
sg10
I1
ssg9
I1
sg10
(dp103
g2
I1
sg3
I-1
sg9
I1
sg10
I1
sssg9
I0
sg10
(dp104
g2
I1
sg3
(dp105
g2
I0
sg3
I1
sg9
I1
sg10
I-1
ssg9
I1
sg10
(dp106
g2
I14
sg3
I1
sg9
I1
sg10
I1
ssssg9
I1
sg10
(dp107
g2
I19
sg3
(dp108
g2
I24
sg3
(dp109
g2
I13
sg3
I-1
sg9
I0
sg10
I-1
ssg9
I1
sg10
(dp110
g2
I21
sg3
I-1
sg9
I1
sg10
I-1
sssg9
I1
sg10
(dp111
g2
I3
sg3
I-1
sg9
I-1
sg10
I-1
sssssa(dp112
g2
I0
sg3
(dp113
g2
I13
sg3
(dp114
g2
I25
sg3
(dp115
g2
I12
sg3
(dp116
g2
I10
sg3
(dp117
g2
I27
sg3
I1
sg9
I1
sg10
I1
ssg9
I1
sg10
(dp118
g2
I9
sg3
I1
sg9
I-1
sg10
I1
sssg9
I1
sg10
(dp119
g2
I13
sg3
(dp120
g2
I13
sg3
I1
sg9
I1
sg10
I1
ssg9
I1
sg10
(dp121
g2
I6
sg3
I1
sg9
I0
sg10
I1
ssssg9
I1
sg10
(dp122
g2
I15
sg3
(dp123
g2
I7
sg3
(dp124
g2
I24
sg3
I1
sg9
I1
sg10
I1
ssg9
I1
sg10
(dp125
g2
I28
sg3
I-1
sg9
I0
sg10
I-1
sssg9
I1
sg10
(dp126
g2
I5
sg3
(dp127
g2
I25
sg3
I1
sg9
I-1
sg10
I1
ssg9
I1
sg10
(dp128
g2
I25
sg3
I-1
sg9
I0
sg10
I1
sssssg9
I0
sg10
(dp129
g2
I25
sg3
(dp130
g2
I6
sg3
(dp131
g2
I2
sg3
(dp132
g2
I7
sg3
I-1
sg9
I-1
sg10
I-1
ssg9
I1
sg10
I-1
ssg9
I0
sg10
(dp133
g2
I16
sg3
(dp134
g2
I29
sg3
I-1
sg9
I1
sg10
I1
ssg9
I1
sg10
(dp135
g2
I19
sg3
I-1
sg9
I-1
sg10
I-1
ssssg9
I1
sg10
(dp136
g2
I20
sg3
(dp137
g2
I23
sg3
I-1
sg9
I-1
sg10
I-1
ssg9
I1
sg10
(dp138
g2
I8
sg3
(dp139
g2
I26
sg3
I-1
sg9
I-1
sg10
I-1
ssg9
I1
sg10
(dp140
g2
I7
sg3
I-1
sg9
I-1
sg10
I-1
ssssssg9
I1
sg10
(dp141
g2
I2
sg3
(dp142
g2
I9
sg3
(dp143
g2
I27
sg3
(dp144
g2
I3
sg3
(dp145
g2
I5
sg3
I1
sg9
I1
sg10
I-1
ssg9
I1
sg10
(dp146
g2
I15
sg3
I1
sg9
I0
sg10
I-1
sssg9
I1
sg10
(dp147
g2
I7
sg3
(dp148
g2
I23
sg3
I-1
sg9
I1
sg10
I1
ssg9
I1
sg10
(dp149
g2
I20
sg3
I-1
sg9
I1
sg10
I-1
ssssg9
I1
sg10
(dp150
g2
I8
sg3
(dp151
g2
I6
sg3
(dp152
g2
I19
sg3
I1
sg9
I1
sg10
I1
ssg9
I1
sg10
(dp153
g2
I3
sg3
I1
sg9
I1
sg10
I-1
sssg9
I1
sg10
(dp154
g2
I13
sg3
(dp155
g2
I29
sg3
I1
sg9
I1
sg10
I-1
ssg9
I0
sg10
(dp156
g2
I28
sg3
I-1
sg9
I0
sg10
I-1
sssssg9
I1
sg10
(dp157
g2
I16
sg3
(dp158
g2
I19
sg3
(dp159
g2
I7
sg3
(dp160
g2
I17
sg3
I1
sg9
I1
sg10
I1
ssg9
I1
sg10
(dp161
g2
I13
sg3
I1
sg9
I0
sg10
I-1
sssg9
I1
sg10
(dp162
g2
I24
sg3
(dp163
g2
I27
sg3
I1
sg9
I1
sg10
I1
ssg9
I1
sg10
(dp164
g2
I5
sg3
I-1
sg9
I-1
sg10
I-1
ssssg9
I1
sg10
(dp165
g2
I13
sg3
(dp166
g2
I16
sg3
I1
sg9
I-1
sg10
I1
ssg9
I1
sg10
(dp167
g2
I25
sg3
(dp168
g2
I12
sg3
I-1
sg9
I1
sg10
I-1
ssg9
I1
sg10
(dp169
g2
I20
sg3
I-1
sg9
I1
sg10
I-1
ssssssa(dp170
g2
I25
sg3
(dp171
g2
I5
sg3
(dp172
g2
I26
sg3
(dp173
g2
I25
sg3
I1
sg9
I1
sg10
I1
ssg9
I1
sg10
(dp174
g2
I19
sg3
(dp175
g2
I7
sg3
(dp176
g2
I21
sg3
I1
sg9
I1
sg10
I1
ssg9
I1
sg10
(dp177
g2
I10
sg3
I1
sg9
I1
sg10
I1
sssg9
I1
sg10
(dp178
g2
I21
sg3
I1
sg9
I-1
sg10
I1
ssssg9
I1
sg10
(dp179
g2
I7
sg3
(dp180
g2
I13
sg3
(dp181
g2
I15
sg3
(dp182
g2
I6
sg3
I1
sg9
I1
sg10
I1
ssg9
I0
sg10
(dp183
g2
I29
sg3
I1
sg9
I1
sg10
I1
sssg9
I0
sg10
(dp184
g2
I18
sg3
(dp185
g2
I20
sg3
I-1
sg9
I-1
sg10
I-1
ssg9
I1
sg10
(dp186
g2
I29
sg3
I-1
sg9
I1
sg10
I-1
ssssg9
I1
sg10
(dp187
g2
I14
sg3
(dp188
g2
I13
sg3
(dp189
g2
I5
sg3
I1
sg9
I-1
sg10
I1
ssg9
I1
sg10
(dp190
g2
I24
sg3
I-1
sg9
I1
sg10
I-1
sssg9
I0
sg10
(dp191
g2
I26
sg3
(dp192
g2
I18
sg3
I-1
sg9
I0
sg10
I-1
ssg9
I1
sg10
(dp193
g2
I8
sg3
I-1
sg9
I1
sg10
I-1
ssssssg9
I1
sg10
(dp194
g2
I7
sg3
(dp195
g2
I6
sg3
(dp196
g2
I25
sg3
(dp197
g2
I12
sg3
(dp198
g2
I17
sg3
I1
sg9
I1
sg10
I1
ssg9
I1
sg10
(dp199
g2
I1
sg3
I1
sg9
I-1
sg10
I1
sssg9
I0
sg10
(dp200
g2
I14
sg3
(dp201
g2
I6
sg3
I1
sg9
I1
sg10
I1
ssg9
I1
sg10
(dp202
g2
I15
sg3
I1
sg9
I1
sg10
I1
ssssg9
I1
sg10
(dp203
g2
I13
sg3
(dp204
g2
I14
sg3
(dp205
g2
I13
sg3
I1
sg9
I1
sg10
I1
ssg9
I0
sg10
(dp206
g2
I23
sg3
I1
sg9
I1
sg10
I1
sssg9
I0
sg10
(dp207
g2
I11
sg3
(dp208
g2
I3
sg3
I-1
sg9
I1
sg10
I-1
ssg9
I1
sg10
(dp209
g2
I15
sg3
I-1
sg9
I-1
sg10
I-1
sssssg9
I1
sg10
(dp210
g2
I14
sg3
(dp211
g2
I0
sg3
(dp212
g2
I25
sg3
(dp213
g2
I8
sg3
I1
sg9
I1
sg10
I-1
ssg9
I0
sg10
(dp214
g2
I21
sg3
I-1
sg9
I1
sg10
I-1
sssg9
I1
sg10
(dp215
g2
I13
sg3
(dp216
g2
I16
sg3
I1
sg9
I1
sg10
I1
ssg9
I0
sg10
(dp217
g2
I23
sg3
I-1
sg9
I1
sg10
I-1
ssssg9
I1
sg10
(dp218
g2
I29
sg3
(dp219
g2
I7
sg3
(dp220
g2
I19
sg3
I-1
sg9
I1
sg10
I-1
ssg9
I0
sg10
(dp221
g2
I26
sg3
I-1
sg9
I1
sg10
I-1
sssg9
I1
sg10
(dp222
g2
I9
sg3
I-1
sg9
I-1
sg10
I-1
sssssa(dp223
g2
I12
sg3
(dp224
g2
I6
sg3
(dp225
g2
I22
sg3
(dp226
g2
I7
sg3
(dp227
g2
I16
sg3
(dp228
g2
I13
sg3
I1
sg9
I0
sg10
I-1
ssg9
I1
sg10
(dp229
g2
I25
sg3
I1
sg9
I1
sg10
I1
sssg9
I1
sg10
(dp230
g2
I7
sg3
(dp231
g2
I19
sg3
I-1
sg9
I1
sg10
I-1
ssg9
I0
sg10
(dp232
g2
I10
sg3
I-1
sg9
I1
sg10
I1
ssssg9
I1
sg10
(dp233
g2
I27
sg3
(dp234
g2
I7
sg3
I1
sg9
I1
sg10
I1
ssg9
I1
sg10
(dp235
g2
I0
sg3
(dp236
g2
I2
sg3
I1
sg9
I1
sg10
I1
ssg9
I1
sg10
I-1
ssssg9
I1
sg10
(dp237
g2
I7
sg3
(dp238
g2
I8
sg3
(dp239
g2
I25
sg3
(dp240
g2
I14
sg3
I1
sg9
I1
sg10
I-1
ssg9
I0
sg10
(dp241
g2
I27
sg3
I1
sg9
I-1
sg10
I1
sssg9
I1
sg10
(dp242
g2
I25
sg3
(dp243
g2
I27
sg3
I1
sg9
I1
sg10
I1
ssg9
I1
sg10
(dp244
g2
I14
sg3
I-1
sg9
I1
sg10
I1
ssssg9
I1
sg10
(dp245
g2
I8
sg3
(dp246
g2
I15
sg3
(dp247
g2
I1
sg3
I-1
sg9
I1
sg10
I1
ssg9
I1
sg10
(dp248
g2
I13
sg3
I-1
sg9
I0
sg10
I-1
sssg9
I1
sg10
(dp249
g2
I13
sg3
(dp250
g2
I1
sg3
I1
sg9
I1
sg10
I-1
ssg9
I0
sg10
(dp251
g2
I3
sg3
I-1
sg9
I1
sg10
I-1
ssssssg9
I1
sg10
(dp252
g2
I13
sg3
(dp253
g2
I17
sg3
(dp254
g2
I11
sg3
(dp255
g2
I13
sg3
(dp256
g2
I18
sg3
I-1
sg9
I1
sg10
I1
ssg9
I1
sg10
(dp257
g2
I5
sg3
I1
sg9
I1
sg10
I1
sssg9
I1
sg10
(dp258
g2
I28
sg3
(dp259
g2
I7
sg3
I1
sg9
I1
sg10
I-1
ssg9
I1
sg10
(dp260
g2
I27
sg3
I-1
sg9
I1
sg10
I-1
ssssg9
I1
sg10
(dp261
g2
I8
sg3
(dp262
g2
I3
sg3
(dp263
g2
I4
sg3
I1
sg9
I1
sg10
I1
ssg9
I1
sg10
(dp264
g2
I20
sg3
I1
sg9
I1
sg10
I1
sssg9
I1
sg10
(dp265
g2
I28
sg3
(dp266
g2
I13
sg3
I1
sg9
I0
sg10
I1
ssg9
I1
sg10
(dp267
g2
I23
sg3
I1
sg9
I-1
sg10
I1
sssssg9
I0
sg10
(dp268
g2
I3
sg3
(dp269
g2
I10
sg3
(dp270
g2
I2
sg3
(dp271
g2
I28
sg3
I-1
sg9
I0
sg10
I-1
ssg9
I1
sg10
(dp272
g2
I17
sg3
I-1
sg9
I-1
sg10
I-1
sssg9
I1
sg10
(dp273
g2
I15
sg3
I-1
sg9
I-1
sg10
I-1
sssg9
I1
sg10
(dp274
g2
I8
sg3
(dp275
g2
I26
sg3
I-1
sg9
I-1
sg10
I-1
ssg9
I1
sg10
(dp276
g2
I20
sg3
(dp277
g2
I3
sg3
I-1
sg9
I-1
sg10
I-1
ssg9
I1
sg10
I-1
sssssa(dp278
g2
I6
sg3
(dp279
g2
I14
sg3
(dp280
g2
I7
sg3
(dp281
g2
I5
sg3
(dp282
g2
I18
sg3
I1
sg9
I0
sg10
I1
ssg9
I1
sg10
(dp283
g2
I13
sg3
(dp284
g2
I25
sg3
I1
sg9
I1
sg10
I1
ssg9
I0
sg10
I-1
sssg9
I1
sg10
(dp285
g2
I12
sg3
(dp286
g2
I10
sg3
(dp287
g2
I13
sg3
I1
sg9
I0
sg10
I-1
ssg9
I1
sg10
(dp288
g2
I3
sg3
I-1
sg9
I1
sg10
I-1
sssg9
I1
sg10
(dp289
g2
I16
sg3
(dp290
g2
I25
sg3
I-1
sg9
I0
sg10
I-1
ssg9
I1
sg10
(dp291
g2
I12
sg3
I-1
sg9
I-1
sg10
I-1
sssssg9
I0
sg10
(dp292
g2
I15
sg3
(dp293
g2
I13
sg3
(dp294
g2
I25
sg3
(dp295
g2
I25
sg3
I1
sg9
I1
sg10
I1
ssg9
I0
sg10
(dp296
g2
I7
sg3
I1
sg9
I1
sg10
I-1
sssg9
I0
sg10
(dp297
g2
I11
sg3
I-1
sg9
I1
sg10
I-1
sssg9
I0
sg10
(dp298
g2
I13
sg3
(dp299
g2
I7
sg3
(dp300
g2
I21
sg3
I1
sg9
I1
sg10
I1
ssg9
I1
sg10
(dp301
g2
I0
sg3
I-1
sg9
I1
sg10
I-1
sssg9
I0
sg10
(dp302
g2
I7
sg3
(dp303
g2
I20
sg3
I-1
sg9
I1
sg10
I-1
ssg9
I1
sg10
(dp304
g2
I16
sg3
I-1
sg9
I1
sg10
I-1
ssssssg9
I1
sg10
(dp305
g2
I13
sg3
(dp306
g2
I15
sg3
(dp307
g2
I0
sg3
(dp308
g2
I24
sg3
(dp309
g2
I13
sg3
I1
sg9
I1
sg10
I1
ssg9
I1
sg10
(dp310
g2
I23
sg3
I1
sg9
I1
sg10
I1
sssg9
I1
sg10
(dp311
g2
I22
sg3
(dp312
g2
I7
sg3
I1
sg9
I1
sg10
I1
ssg9
I1
sg10
(dp313
g2
I2
sg3
I1
sg9
I1
sg10
I1
ssssg9
I1
sg10
(dp314
g2
I13
sg3
(dp315
g2
I25
sg3
(dp316
g2
I6
sg3
I1
sg9
I0
sg10
I1
ssg9
I0
sg10
(dp317
g2
I22
sg3
I-1
sg9
I1
sg10
I1
sssg9
I1
sg10
(dp318
g2
I4
sg3
(dp319
g2
I20
sg3
I1
sg9
I1
sg10
I1
ssg9
I1
sg10
(dp320
g2
I1
sg3
I-1
sg9
I1
sg10
I1
sssssg9
I0
sg10
(dp321
g2
I25
sg3
(dp322
g2
I6
sg3
(dp323
g2
I23
sg3
(dp324
g2
I20
sg3
I-1
sg9
I1
sg10
I-1
ssg9
I1
sg10
(dp325
g2
I14
sg3
I-1
sg9
I0
sg10
I-1
sssg9
I0
sg10
(dp326
g2
I7
sg3
(dp327
g2
I29
sg3
I-1
sg9
I1
sg10
I1
ssg9
I1
sg10
(dp328
g2
I4
sg3
I-1
sg9
I1
sg10
I-1
ssssg9
I1
sg10
(dp329
g2
I22
sg3
(dp330
g2
I12
sg3
I-1
sg9
I-1
sg10
I-1
ssg9
I1
sg10
(dp331
g2
I4
sg3
(dp332
g2
I18
sg3
I-1
sg9
I0
sg10
I-1
ssg9
I1
sg10
(dp333
g2
I22
sg3
I-1
sg9
I-1
sg10
I-1
ssssssa(dp334
g2
I18
sg3
(dp335
g2
I25
sg3
(dp336
g2
I11
sg3
(dp337
g2
I12
sg3
(dp338
g2
I23
sg3
(dp339
g2
I24
sg3
I-1
sg9
I1
sg10
I-1
ssg9
I1
sg10
(dp340
g2
I0
sg3
I1
sg9
I1
sg10
I1
sssg9
I1
sg10
(dp341
g2
I14
sg3
(dp342
g2
I7
sg3
I1
sg9
I1
sg10
I-1
ssg9
I0
sg10
(dp343
g2
I26
sg3
I-1
sg9
I-1
sg10
I-1
ssssg9
I1
sg10
(dp344
g2
I9
sg3
(dp345
g2
I28
sg3
(dp346
g2
I27
sg3
I1
sg9
I1
sg10
I1
ssg9
I1
sg10
(dp347
g2
I24
sg3
I1
sg9
I1
sg10
I-1
sssg9
I1
sg10
(dp348
g2
I23
sg3
(dp349
g2
I11
sg3
I-1
sg9
I-1
sg10
I-1
ssg9
I1
sg10
(dp350
g2
I5
sg3
I1
sg9
I1
sg10
I-1
sssssg9
I1
sg10
(dp351
g2
I13
sg3
(dp352
g2
I0
sg3
(dp353
g2
I15
sg3
I1
sg9
I1
sg10
(dp354
g2
I1
sg3
I1
sg9
I1
sg10
I-1
sssg9
I1
sg10
(dp355
g2
I13
sg3
(dp356
g2
I8
sg3
I1
sg9
I-1
sg10
I1
ssg9
I1
sg10
(dp357
g2
I11
sg3
I-1
sg9
I1
sg10
I1
ssssg9
I0
sg10
(dp358
g2
I2
sg3
I-1
sg9
I-1
sg10
I-1
ssssg9
I1
sg10
(dp359
g2
I13
sg3
(dp360
g2
I5
sg3
(dp361
g2
I20
sg3
(dp362
g2
I16
sg3
(dp363
g2
I8
sg3
I1
sg9
I-1
sg10
I1
ssg9
I1
sg10
(dp364
g2
I1
sg3
I1
sg9
I-1
sg10
I1
sssg9
I1
sg10
(dp365
g2
I25
sg3
I1
sg9
I1
sg10
I1
sssg9
I1
sg10
(dp366
g2
I7
sg3
(dp367
g2
I13
sg3
(dp368
g2
I21
sg3
I1
sg9
I1
sg10
I1
ssg9
I1
sg10
(dp369
g2
I26
sg3
I1
sg9
I1
sg10
I1
sssg9
I1
sg10
(dp370
g2
I17
sg3
(dp371
g2
I25
sg3
I-1
sg9
I1
sg10
I-1
ssg9
I1
sg10
(dp372
g2
I11
sg3
I-1
sg9
I-1
sg10
I-1
sssssg9
I0
sg10
(dp373
g2
I25
sg3
(dp374
g2
I22
sg3
(dp375
g2
I27
sg3
(dp376
g2
I24
sg3
I-1
sg9
I1
sg10
I-1
ssg9
I1
sg10
(dp377
g2
I14
sg3
I-1
sg9
I0
sg10
I-1
sssg9
I1
sg10
(dp378
g2
I23
sg3
(dp379
g2
I25
sg3
I-1
sg9
I1
sg10
I-1
ssg9
I1
sg10
(dp380
g2
I10
sg3
I-1
sg9
I1
sg10
I1
ssssg9
I1
sg10
(dp381
g2
I27
sg3
(dp382
g2
I18
sg3
I-1
sg9
I0
sg10
I-1
ssg9
I1
sg10
(dp383
g2
I24
sg3
(dp384
g2
I29
sg3
I-1
sg9
I-1
sg10
I-1
ssg9
I1
sg10
(dp385
g2
I21
sg3
I-1
sg9
I1
sg10
I-1
ssssssa(dp386
g2
I13
sg3
(dp387
g2
I6
sg3
(dp388
g2
I12
sg3
(dp389
g2
I25
sg3
(dp390
g2
I21
sg3
(dp391
g2
I7
sg3
I1
sg9
I1
sg10
I-1
ssg9
I1
sg10
(dp392
g2
I26
sg3
I1
sg9
I1
sg10
I1
sssg9
I1
sg10
(dp393
g2
I24
sg3
(dp394
g2
I7
sg3
I1
sg9
I1
sg10
I-1
ssg9
I1
sg10
(dp395
g2
I13
sg3
I1
sg9
I1
sg10
I1
ssssg9
I1
sg10
(dp396
g2
I2
sg3
(dp397
g2
I7
sg3
(dp398
g2
I24
sg3
I1
sg9
I1
sg10
I1
ssg9
I1
sg10
(dp399
g2
I22
sg3
I-1
sg9
I1
sg10
I-1
sssg9
I1
sg10
(dp400
g2
I23
sg3
I1
sg9
I-1
sg10
I1
ssssg9
I1
sg10
(dp401
g2
I15
sg3
(dp402
g2
I10
sg3
(dp403
g2
I1
sg3
(dp404
g2
I14
sg3
I1
sg9
I1
sg10
I1
ssg9
I1
sg10
(dp405
g2
I29
sg3
I1
sg9
I1
sg10
I-1
sssg9
I1
sg10
(dp406
g2
I7
sg3
(dp407
g2
I15
sg3
I1
sg9
I1
sg10
I1
ssg9
I1
sg10
I1
sssg9
I1
sg10
(dp408
g2
I2
sg3
(dp409
g2
I5
sg3
(dp410
g2
I22
sg3
I1
sg9
I1
sg10
I1
ssg9
I1
sg10
(dp411
g2
I18
sg3
I-1
sg9
I1
sg10
I1
sssg9
I1
sg10
(dp412
g2
I22
sg3
(dp413
g2
I7
sg3
I1
sg9
I1
sg10
I1
ssg9
I1
sg10
(dp414
g2
I7
sg3
I-1
sg9
I-1
sg10
I-1
ssssssg9
I0
sg10
(dp415
g2
I15
sg3
(dp416
g2
I23
sg3
(dp417
g2
I3
sg3
(dp418
g2
I25
sg3
(dp419
g2
I6
sg3
I-1
sg9
I0
sg10
I1
ssg9
I1
sg10
(dp420
g2
I26
sg3
I-1
sg9
I-1
sg10
I-1
sssg9
I1
sg10
(dp421
g2
I9
sg3
I-1
sg9
I-1
sg10
I-1
sssg9
I1
sg10
(dp422
g2
I26
sg3
I-1
sg9
I-1
sg10
I-1
sssg9
I1
sg10
(dp423
g2
I10
sg3
(dp424
g2
I22
sg3
(dp425
g2
I18
sg3
I-1
sg9
I0
sg10
I-1
ssg9
I1
sg10
I-1
ssg9
I1
sg10
(dp426
g2
I25
sg3
(dp427
g2
I19
sg3
(dp428
g2
I9
sg3
I-1
sg9
I-1
sg10
I-1
ssg9
I1
sg10
(dp429
g2
I28
sg3
I-1
sg9
I1
sg10
I-1
sssg9
I1
sg10
(dp430
g2
I18
sg3
I-1
sg9
I0
sg10
I-1
sssssa(dp431
g2
I25
sg3
(dp432
g2
I1
sg3
(dp433
g2
I8
sg3
(dp434
g2
I3
sg3
(dp435
g2
I27
sg3
(dp436
g2
I24
sg3
I1
sg9
I1
sg10
I1
ssg9
I1
sg10
(dp437
g2
I26
sg3
I-1
sg9
I1
sg10
I1
sssg9
I1
sg10
(dp438
g2
I13
sg3
I1
sg9
I0
sg10
(dp439
g2
I27
sg3
I-1
sg9
I-1
sg10
I-1
ssssg9
I1
sg10
(dp440
g2
I7
sg3
(dp441
g2
I3
sg3
(dp442
g2
I8
sg3
I1
sg9
I-1
sg10
I1
ssg9
I1
sg10
(dp443
g2
I15
sg3
I1
sg9
I0
sg10
I1
sssg9
I1
sg10
(dp444
g2
I6
sg3
(dp445
g2
I18
sg3
I-1
sg9
I1
sg10
I1
ssg9
I0
sg10
(dp446
g2
I29
sg3
I-1
sg9
I1
sg10
I-1
sssssg9
I1
sg10
(dp447
g2
I6
sg3
(dp448
g2
I5
sg3
(dp449
g2
I10
sg3
(dp450
g2
I28
sg3
I1
sg9
I0
sg10
I1
ssg9
I1
sg10
(dp451
g2
I24
sg3
I1
sg9
I1
sg10
I1
sssg9
I1
sg10
(dp452
g2
I26
sg3
(dp453
g2
I11
sg3
I1
sg9
I1
sg10
I1
ssg9
I1
sg10
(dp454
g2
I7
sg3
I1
sg9
I1
sg10
I-1
ssssg9
I1
sg10
(dp455
g2
I27
sg3
(dp456
g2
I7
sg3
(dp457
g2
I24
sg3
I1
sg9
I1
sg10
I1
ssg9
I1
sg10
(dp458
g2
I14
sg3
I-1
sg9
I0
sg10
I-1
sssg9
I1
sg10
(dp459
g2
I24
sg3
(dp460
g2
I6
sg3
I-1
sg9
I0
sg10
I-1
ssg9
I1
sg10
(dp461
g2
I26
sg3
I1
sg9
I1
sg10
I-1
ssssssg9
I1
sg10
(dp462
g2
I7
sg3
(dp463
g2
I6
sg3
(dp464
g2
I11
sg3
(dp465
g2
I19
sg3
(dp466
g2
I27
sg3
I1
sg9
I1
sg10
I1
ssg9
I1
sg10
(dp467
g2
I26
sg3
I1
sg9
I-1
sg10
I1
sssg9
I1
sg10
(dp468
g2
I5
sg3
(dp469
g2
I23
sg3
I1
sg9
I1
sg10
I1
ssg9
I1
sg10
(dp470
g2
I14
sg3
I1
sg9
I1
sg10
I1
ssssg9
I1
sg10
(dp471
g2
I13
sg3
(dp472
g2
I23
sg3
(dp473
g2
I6
sg3
I1
sg9
I0
sg10
I1
ssg9
I1
sg10
(dp474
g2
I29
sg3
I1
sg9
I1
sg10
I1
sssg9
I0
sg10
(dp475
g2
I0
sg3
I-1
sg9
I-1
sg10
I-1
ssssg9
I1
sg10
(dp476
g2
I28
sg3
(dp477
g2
I13
sg3
(dp478
g2
I6
sg3
(dp479
g2
I18
sg3
I-1
sg9
I1
sg10
I1
ssg9
I1
sg10
(dp480
g2
I5
sg3
I1
sg9
I1
sg10
I-1
sssg9
I0
sg10
(dp481
g2
I2
sg3
(dp482
g2
I21
sg3
I-1
sg9
I1
sg10
I-1
ssg9
I1
sg10
(dp483
g2
I24
sg3
I-1
sg9
I-1
sg10
I-1
ssssg9
I0
sg10
(dp484
g2
I21
sg3
(dp485
g2
I13
sg3
(dp486
g2
I3
sg3
I1
sg9
I1
sg10
I1
ssg9
I0
sg10
(dp487
g2
I3
sg3
I-1
sg9
I-1
sg10
I-1
sssg9
I1
sg10
(dp488
g2
I10
sg3
I-1
sg9
I-1
sg10
I-1
sssssa(dp489
g2
I6
sg3
(dp490
g2
I13
sg3
(dp491
g2
I15
sg3
(dp492
g2
I7
sg3
(dp493
g2
I8
sg3
(dp494
g2
I0
sg3
I1
sg9
I1
sg10
I1
ssg9
I1
sg10
(dp495
g2
I28
sg3
I1
sg9
I1
sg10
I1
sssg9
I1
sg10
(dp496
g2
I4
sg3
(dp497
g2
I13
sg3
I-1
sg9
I0
sg10
I-1
ssg9
I1
sg10
I1
sssg9
I0
sg10
(dp498
g2
I25
sg3
(dp499
g2
I29
sg3
(dp500
g2
I23
sg3
I1
sg9
I1
sg10
I1
ssg9
I1
sg10
(dp501
g2
I29
sg3
I1
sg9
I-1
sg10
I1
sssg9
I1
sg10
(dp502
g2
I25
sg3
(dp503
g2
I9
sg3
I1
sg9
I1
sg10
I1
ssg9
I0
sg10
(dp504
g2
I18
sg3
I1
sg9
I1
sg10
I1
sssssg9
I0
sg10
(dp505
g2
I19
sg3
(dp506
g2
I16
sg3
(dp507
g2
I14
sg3
(dp508
g2
I19
sg3
I-1
sg9
I1
sg10
I-1
ssg9
I1
sg10
(dp509
g2
I15
sg3
I-1
sg9
I-1
sg10
I-1
sssg9
I1
sg10
(dp510
g2
I3
sg3
I-1
sg9
I1
sg10
I-1
sssg9
I1
sg10
(dp511
g2
I12
sg3
(dp512
g2
I28
sg3
(dp513
g2
I25
sg3
I1
sg9
I1
sg10
I-1
ssg9
I1
sg10
(dp514
g2
I7
sg3
I-1
sg9
I-1
sg10
I-1
sssg9
I1
sg10
(dp515
g2
I9
sg3
I-1
sg9
I-1
sg10
I-1
sssssg9
I1
sg10
(dp516
g2
I28
sg3
(dp517
g2
I8
sg3
(dp518
g2
I1
sg3
(dp519
g2
I13
sg3
(dp520
g2
I27
sg3
I1
sg9
I1
sg10
I-1
ssg9
I0
sg10
(dp521
g2
I9
sg3
I-1
sg9
I1
sg10
I-1
sssg9
I0
sg10
(dp522
g2
I0
sg3
(dp523
g2
I7
sg3
I1
sg9
I1
sg10
I-1
ssg9
I1
sg10
(dp524
g2
I13
sg3
I1
sg9
I0
sg10
I-1
ssssg9
I1
sg10
(dp525
g2
I5
sg3
(dp526
g2
I25
sg3
(dp527
g2
I21
sg3
I1
sg9
I1
sg10
I1
ssg9
I1
sg10
(dp528
g2
I17
sg3
I1
sg9
I-1
sg10
I1
sssg9
I1
sg10
(dp529
g2
I13
sg3
(dp530
g2
I20
sg3
I1
sg9
I1
sg10
I1
ssg9
I0
sg10
(dp531
g2
I26
sg3
I-1
sg9
I-1
sg10
I-1
sssssg9
I0
sg10
(dp532
g2
I4
sg3
(dp533
g2
I5
sg3
(dp534
g2
I14
sg3
(dp535
g2
I21
sg3
I1
sg9
I1
sg10
I1
ssg9
I1
sg10
(dp536
g2
I4
sg3
I1
sg9
I1
sg10
I1
sssg9
I1
sg10
(dp537
g2
I17
sg3
(dp538
g2
I26
sg3
I1
sg9
I1
sg10
I1
ssg9
I1
sg10
(dp539
g2
I29
sg3
I1
sg9
I1
sg10
I1
ssssg9
I1
sg10
(dp540
g2
I5
sg3
(dp541
g2
I18
sg3
I1
sg9
I1
sg10
I1
ssg9
I1
sg10
(dp542
g2
I29
sg3
I-1
sg9
I1
sg10
I-1
sssssa.