(lp0
(dp1
S'alpha'
p2
F2.3697832944993094
sS'SSLfinal_State'
p3
(dp4
I0
(dp5
S'URL_of_Anchor'
p6
(dp7
I0
(dp8
S'Links_pointing_to_page'
p9
(dp10
I0
(dp11
S'Page_Rank'
p12
(dp13
I1
(dp14
S'having_Sub_Domain'
p15
(dp16
I0
I-1
sI1
I1
sssI-1
I-1
sssI1
I-1
sI-1
I1
sssI1
I-1
sI-1
I-1
sssI1
(dp17
S'web_traffic'
p18
(dp19
I0
(dp20
g15
(dp21
I0
(dp22
S'Links_in_tags'
p23
(dp24
I0
(dp25
S'age_of_domain'
p26
(dp27
I1
(dp28
S'URL_Length'
p29
(dp30
I1
I1
sI-1
I-1
sssI-1
(dp31
g9
(dp32
I0
(dp33
g12
(dp34
I1
(dp35
S'having_IP_Address'
p36
(dp37
I1
(dp38
S'Request_URL'
p39
(dp40
I1
I1
sI-1
I-1
sssI-1
I-1
sssI-1
(dp41
g6
(dp42
I0
(dp43
g29
(dp44
I1
I1
sI-1
I-1
sssI1
I1
sssssI1
I1
sssssI1
(dp45
S'Prefix_Suffix'
p46
(dp47
I1
I1
sI-1
I-1
sssI-1
(dp48
g6
(dp49
I0
(dp50
S'Domain_registeration_length'
p51
(dp52
I1
I-1
sI-1
(dp53
g46
(dp54
I1
I1
sI-1
(dp55
g39
(dp56
I1
(dp57
g9
(dp58
I0
(dp59
S'having_At_Symbol'
p60
(dp61
I1
I-1
sI-1
I1
sssI1
I1
sI-1
I-1
sssI-1
(dp62
g36
(dp63
I1
(dp64
S'Redirect'
p65
(dp66
I0
I1
sI1
I-1
sssI-1
I-1
sssssssssI1
I1
sI-1
I-1
sssssI1
(dp67
g23
(dp68
I0
(dp69
S'DNSRecord'
p70
(dp71
I1
(dp72
g26
(dp73
I1
(dp74
g36
(dp75
I1
(dp76
g46
(dp77
I1
I1
sI-1
(dp78
g9
(dp79
I0
(dp80
g60
(dp81
I1
I1
sI-1
I1
sssI-1
I1
sssssI-1
I1
sssI-1
(dp82
g36
(dp83
I1
I1
sI-1
(dp84
g9
(dp85
I0
(dp86
g51
(dp87
I1
I1
sI-1
I-1
sssI1
I1
sssssssI-1
(dp88
g9
(dp89
I0
(dp90
S'Google_Index'
p91
(dp92
I1
I-1
sI-1
I1
sssI1
(dp93
S'SFH'
p94
(dp95
I1
I-1
sI-1
(dp96
g51
(dp97
I1
(dp98
S'Favicon'
p99
(dp100
I1
I-1
sI-1
I1
sssI-1
I1
sssssssssI1
(dp101
g9
(dp102
I0
(dp103
g26
(dp104
I1
(dp105
g6
(dp106
I0
(dp107
g29
(dp108
I1
I1
sI-1
I-1
sssI1
I1
sssI-1
(dp109
g36
(dp110
I1
I1
sI-1
(dp111
g12
(dp112
I1
I-1
sI-1
I1
sssssssI1
(dp113
g36
(dp114
I1
(dp115
g29
(dp116
I1
I-1
sI-1
(dp117
S'Submitting_to_email'
p118
(dp119
I1
I1
sI-1
(dp120
g46
(dp121
I1
I1
sI-1
I-1
sssssssI-1
I1
sssI-1
(dp122
S'HTTPS_token'
p123
(dp124
I1
I-1
sI-1
I1
sssssI-1
(dp125
g26
(dp126
I1
(dp127
g70
(dp128
I1
(dp129
g39
(dp130
I1
(dp131
g94
(dp132
I0
I1
sI1
I1
sI-1
(dp133
g12
(dp134
I1
I1
sI-1
(dp135
g9
(dp136
I0
I-1
sI1
I1
sssssssI-1
I1
sssI-1
(dp137
S'Shortining_Service'
p138
(dp139
I1
(dp140
g9
(dp141
I0
I-1
sI1
I1
sssI-1
I-1
sssssI-1
(dp142
g94
(dp143
I0
I1
sI1
I1
sI-1
(dp144
g9
(dp145
I0
(dp146
g39
(dp147
I1
(dp148
g29
(dp149
I1
I1
sI-1
(dp150
g65
(dp151
I0
I-1
sI1
I1
sssssI-1
(dp152
g70
(dp153
I1
I1
sI-1
I-1
sssssI1
(dp154
g51
(dp155
I1
I-1
sI-1
I1
sssI-1
I1
sssssssssI-1
(dp156
g23
(dp157
I0
(dp158
g70
(dp159
I1
(dp160
g36
(dp161
I1
(dp162
g91
(dp163
I1
(dp164
g26
(dp165
I1
(dp166
S'popUpWidnow'
p167
(dp168
I1
(dp169
g51
(dp170
I1
I1
sI-1
I-1
sssI-1
I1
sssI-1
I1
sssI-1
I-1
sssI-1
(dp171
g65
(dp172
I0
I-1
sI1
I1
sssssI-1
(dp173
g138
(dp174
I1
I-1
sI-1
I1
sssssI1
(dp175
g9
(dp176
I0
(dp177
g99
(dp178
I1
I-1
sI-1
I1
sssI1
(dp179
g51
(dp180
I1
I1
sI-1
I-1
sssI-1
I-1
sssI-1
(dp181
g6
(dp182
I0
(dp183
g26
(dp184
I1
(dp185
g60
(dp186
I1
I1
sI-1
I-1
sssI-1
(dp187
S'Statistical_report'
p188
(dp189
I1
(dp190
g60
(dp191
I1
I-1
sI-1
I1
sssI-1
(dp192
g138
(dp193
I1
I-1
sI-1
I1
sssssssI1
I1
sI-1
I-1
sssssssI1
(dp194
g15
(dp195
I0
(dp196
g23
(dp197
I0
(dp198
g36
(dp199
I1
(dp200
g6
(dp201
I0
I1
sI1
I1
sI-1
I-1
sssI-1
(dp202
g9
(dp203
I0
(dp204
g94
(dp205
I0
I1
sI1
I1
sI-1
(dp206
g26
(dp207
I1
I-1
sI-1
I1
sssssI1
(dp208
g51
(dp209
I1
(dp210
g39
(dp211
I1
(dp212
g91
(dp213
I1
I1
sI-1
I-1
sssI-1
I1
sssI-1
I1
sssI-1
I1
sssssI1
(dp214
g26
(dp215
I1
(dp216
g9
(dp217
I0
(dp218
g60
(dp219
I1
I-1
sI-1
I1
sssI1
(dp220
g6
(dp221
I0
I1
sI1
I1
sI-1
I-1
sssI-1
I1
sssI-1
I1
sssI-1
(dp222
g9
(dp223
I0
(dp224
g36
(dp225
I1
(dp226
g26
(dp227
I1
(dp228
g39
(dp229
I1
(dp230
g60
(dp231
I1
(dp232
g46
(dp233
I1
I1
sI-1
I1
sssI-1
I1
sssI-1
(dp234
g46
(dp235
I1
I1
sI-1
(dp236
g51
(dp237
I1
I1
sI-1
I-1
sssssssI-1
(dp238
g70
(dp239
I1
I1
sI-1
I-1
sssssI-1
(dp240
g6
(dp241
I0
(dp242
g29
(dp243
I1
I1
sI-1
I-1
sssI1
(dp244
g60
(dp245
I1
I1
sI-1
I-1
sssI-1
I-1
sssssI1
(dp246
g70
(dp247
I1
(dp248
S'double_slash_redirecting'
p249
(dp250
I1
(dp251
g51
(dp252
I1
I-1
sI-1
(dp253
g138
(dp254
I1
(dp255
g46
(dp256
I1
I1
sI-1
I1
sssI-1
I-1
sssssI-1
I1
sssI-1
I1
sssI-1
(dp257
g118
(dp258
I1
(dp259
g36
(dp260
I1
I1
sI-1
I-1
sssI-1
I1
sssssssI1
(dp261
g6
(dp262
I0
(dp263
g23
(dp264
I0
I1
sI1
(dp265
g51
(dp266
I1
(dp267
g9
(dp268
I0
(dp269
g39
(dp270
I1
I1
sI-1
(dp271
g46
(dp272
I1
I1
sI-1
I-1
sssssI1
I1
sssI-1
I1
sssI-1
(dp273
g9
(dp274
I0
(dp275
g51
(dp276
I1
(dp277
g26
(dp278
I1
(dp279
g91
(dp280
I1
I-1
sI-1
I1
sssI-1
I1
sssI-1
(dp281
g26
(dp282
I1
I1
sI-1
(dp283
g12
(dp284
I1
I1
sI-1
(dp285
g94
(dp286
I0
I1
sI1
I1
sI-1
I-1
sssssssssI1
I1
sI-1
I1
sssssI1
(dp287
g91
(dp288
I1
I1
sI-1
(dp289
g9
(dp290
I0
(dp291
g23
(dp292
I0
(dp293
g60
(dp294
I1
I-1
sI-1
I1
sssI-1
I1
sssI1
I1
sI-1
I1
sssssI-1
(dp295
g39
(dp296
I1
I1
sI-1
I-1
sssssI-1
(dp297
g23
(dp298
I0
(dp299
g39
(dp300
I1
I1
sI-1
(dp301
g29
(dp302
I0
I-1
sI-1
(dp303
g70
(dp304
I1
I1
sI-1
(dp305
g9
(dp306
I0
I-1
sI1
I1
sssssssssI1
(dp307
g6
(dp308
I0
I1
sI1
(dp309
g36
(dp310
I1
I1
sI-1
(dp311
g9
(dp312
I0
(dp313
g138
(dp314
I1
I-1
sI-1
I1
sssI1
I1
sssssI-1
(dp315
g36
(dp316
I1
I1
sI-1
I-1
sssssI-1
(dp317
g39
(dp318
I1
(dp319
g9
(dp320
I0
(dp321
g36
(dp322
I1
(dp323
g91
(dp324
I1
I1
sI-1
I-1
sssI-1
I-1
sssI1
I1
sI-1
I1
sssI-1
(dp325
g9
(dp326
I0
(dp327
g26
(dp328
I1
(dp329
g6
(dp330
I0
I1
sI-1
I-1
sssI-1
I-1
sssI1
(dp331
g6
(dp332
I0
(dp333
g26
(dp334
I1
I1
sI-1
(dp335
g94
(dp336
I1
I1
sI-1
I-1
sssssI1
(dp337
g91
(dp338
I1
I1
sI-1
I-1
sssI-1
I-1
sssI-1
I-1
sssssssssI-1
(dp339
g6
(dp340
I0
(dp341
g23
(dp342
I0
(dp343
g15
(dp344
I0
(dp345
g9
(dp346
I0
I1
sI1
(dp347
g51
(dp348
I1
I-1
sI-1
I1
sssssI1
I1
sI-1
I1
sssI1
I1
sI-1
(dp349
g15
(dp350
I0
(dp351
g9
(dp352
I0
(dp353
g36
(dp354
I1
I1
sI-1
I-1
sssI1
(dp355
g29
(dp356
I1
(dp357
g138
(dp358
I1
I-1
sI-1
I1
sssI-1
I1
sssssI1
(dp359
g51
(dp360
I1
(dp361
g36
(dp362
I1
I1
sI-1
(dp363
g39
(dp364
I1
I1
sI-1
I-1
sssssI-1
I1
sssI-1
(dp365
g91
(dp366
I1
I1
sI-1
I-1
sssssssI1
(dp367
g15
(dp368
I0
(dp369
g36
(dp370
I1
I1
sI-1
I-1
sssI1
I1
sI-1
I1
sssI-1
(dp371
g29
(dp372
I1
I1
sI-1
I-1
sssssssI-1
(dp373
g6
(dp374
I0
(dp375
g15
(dp376
I0
(dp377
g23
(dp378
I0
(dp379
g9
(dp380
I0
(dp381
g29
(dp382
I1
(dp383
g94
(dp384
I0
I-1
sI1
I1
sI-1
I1
sssI-1
(dp385
g46
(dp386
I1
I1
sI-1
I-1
sssssI1
(dp387
g12
(dp388
I1
(dp389
g94
(dp390
I0
I1
sI1
I-1
sI-1
I-1
sssI-1
(dp391
g94
(dp392
I0
I1
sI1
(dp393
g51
(dp394
I1
(dp395
g39
(dp396
I1
I1
sI-1
I-1
sssI-1
I-1
sssI-1
(dp397
g39
(dp398
I1
(dp399
g51
(dp400
I1
I-1
sI-1
I1
sssI-1
I1
sssssssI-1
(dp401
g36
(dp402
I1
I1
sI-1
I-1
sssssI1
(dp403
g9
(dp404
I0
(dp405
g18
(dp406
I0
I-1
sI1
I1
sssI1
(dp407
g60
(dp408
I1
I-1
sI-1
I1
sssssI-1
(dp409
g18
(dp410
I0
I-1
sI1
(dp411
g9
(dp412
I0
(dp413
g36
(dp414
I1
(dp415
g39
(dp416
I1
(dp417
g94
(dp418
I0
I1
sI1
I-1
sI-1
(dp419
g51
(dp420
I1
I1
sI-1
I-1
sssssI-1
I-1
sssI-1
I-1
sssI1
(dp421
g36
(dp422
I1
(dp423
g39
(dp424
I1
I-1
sI-1
(dp425
g26
(dp426
I1
I-1
sI-1
I1
sssssI-1
(dp427
g12
(dp428
I1
I-1
sI-1
(dp429
g249
(dp430
I1
I1
sI-1
I-1
sssssssI-1
I-1
sssI-1
(dp431
g46
(dp432
I1
I1
sI-1
I-1
sssssssI1
(dp433
g18
(dp434
I0
(dp435
g23
(dp436
I0
(dp437
g9
(dp438
I0
(dp439
g36
(dp440
I1
I1
sI-1
I-1
sssI1
(dp441
g29
(dp442
I1
I-1
sI-1
I1
sssI-1
(dp443
g29
(dp444
I1
I1
sI-1
I-1
sssssI1
(dp445
g123
(dp446
I1
I1
sI-1
I-1
sssI-1
(dp447
g36
(dp448
I1
I-1
sI-1
(dp449
g51
(dp450
I1
(dp451
g12
(dp452
I1
I-1
sI-1
I1
sssI-1
I-1
sssssssI1
(dp453
g23
(dp454
I0
(dp455
g70
(dp456
I1
(dp457
g36
(dp458
I1
I-1
sI-1
(dp459
g138
(dp460
I1
(dp461
g26
(dp462
I1
I-1
sI-1
I1
sssI-1
I1
sssssI-1
(dp463
g9
(dp464
I0
I-1
sI1
I1
sssssI1
I-1
sI-1
(dp465
g9
(dp466
I0
I-1
sI1
(dp467
g36
(dp468
I1
(dp469
g99
(dp470
I1
(dp471
g249
(dp472
I1
I1
sI-1
I-1
sssI-1
I-1
sssI-1
(dp473
g39
(dp474
I1
I-1
sI-1
(dp475
g51
(dp476
I1
(dp477
g99
(dp478
I1
I1
sI-1
I-1
sssI-1
I-1
sssssssI-1
I-1
sssssI-1
(dp479
g70
(dp480
I1
I1
sI-1
I-1
sssssI-1
(dp481
g23
(dp482
I0
(dp483
g18
(dp484
I0
(dp485
g29
(dp486
I1
I1
sI-1
I-1
sssI1
(dp487
g70
(dp488
I1
(dp489
g91
(dp490
I1
(dp491
g39
(dp492
I1
(dp493
g36
(dp494
I1
I-1
sI-1
I1
sssI-1
(dp495
g36
(dp496
I1
I1
sI-1
I-1
sssssI-1
I-1
sssI-1
I-1
sssI-1
I-1
sssI1
(dp497
g94
(dp498
I0
I1
sI-1
I-1
sssI-1
(dp499
g18
(dp500
I0
(dp501
g70
(dp502
I1
(dp503
g12
(dp504
I1
I-1
sI-1
(dp505
g188
(dp506
I1
(dp507
g91
(dp508
I1
I1
sI-1
(dp509
g51
(dp510
I1
I-1
sI-1
I1
sssssI-1
I-1
sssssI-1
I-1
sssI1
(dp511
g51
(dp512
I1
(dp513
g36
(dp514
I1
(dp515
g26
(dp516
I1
(dp517
g70
(dp518
I1
(dp519
g91
(dp520
I1
I1
sI-1
I-1
sssI-1
I-1
sssI-1
I-1
sssI-1
(dp521
g94
(dp522
I1
I-1
sI-1
I1
sssssI-1
(dp523
g99
(dp524
I1
I-1
sI-1
I1
sssssI-1
I-1
sssssssI1
(dp525
g23
(dp526
I0
(dp527
g15
(dp528
I0
(dp529
g26
(dp530
I1
I1
sI-1
(dp531
g60
(dp532
I1
(dp533
g65
(dp534
I0
I1
sI1
I-1
sssI-1
I-1
sssssI1
I1
sI-1
(dp535
g123
(dp536
I1
I-1
sI-1
I1
sssssI1
(dp537
S'on_mouseover'
p538
(dp539
I1
I1
sI-1
I-1
sssI-1
(dp540
g39
(dp541
I1
(dp542
g15
(dp543
I0
I1
sI1
I-1
sI-1
I-1
sssI-1
I-1
sssssI-1
I-1
ssssa.