(lp0
(dp1
S'alpha'
p2
F1.1004668902009647
sS'SSLfinal_State'
p3
(dp4
I0
(dp5
S'URL_of_Anchor'
p6
(dp7
I0
(dp8
S'Links_pointing_to_page'
p9
(dp10
I0
I-1
sI1
I-1
sI-1
I1
sssI1
I-1
sI-1
I-1
sssI1
(dp11
S'having_Sub_Domain'
p12
(dp13
I0
(dp14
S'web_traffic'
p15
(dp16
I0
I-1
sI1
I1
sI-1
I1
sssI1
(dp17
g15
(dp18
I0
I1
sI1
I1
sI-1
I1
sssI-1
(dp19
S'Links_in_tags'
p20
(dp21
I0
I1
sI1
I1
sI-1
I1
sssssI-1
(dp22
g6
(dp23
I0
(dp24
g12
(dp25
I0
I-1
sI1
I-1
sI-1
I-1
sssI1
(dp26
g20
(dp27
I0
I1
sI1
I1
sI-1
I-1
sssI-1
I-1
ssssa(dp28
g2
F1.0803620875583464
sg3
(dp29
I0
(dp30
g6
(dp31
I0
(dp32
g9
(dp33
I0
I-1
sI1
I-1
sI-1
I1
sssI1
I-1
sI-1
I-1
sssI1
(dp34
g12
(dp35
I0
(dp36
g15
(dp37
I0
I-1
sI1
I1
sI-1
I1
sssI1
(dp38
g15
(dp39
I0
I1
sI1
I1
sI-1
I1
sssI-1
(dp40
g15
(dp41
I0
I-1
sI1
I1
sI-1
I1
sssssI-1
(dp42
g12
(dp43
I0
(dp44
g6
(dp45
I0
I-1
sI1
I1
sI-1
I-1
sssI1
(dp46
g20
(dp47
I0
I-1
sI1
I-1
sI-1
I-1
sssI-1
(dp48
g6
(dp49
I0
I-1
sI1
I-1
sI-1
I-1
ssssssa(dp50
g2
F1.0352364358485378
sg3
(dp51
I0
(dp52
g9
(dp53
I0
(dp54
g6
(dp55
I0
I-1
sI1
I-1
sI-1
I-1
sssI1
I-1
sI-1
(dp56
g6
(dp57
I0
I1
sI-1
I-1
sssssI1
(dp58
g12
(dp59
I0
(dp60
g15
(dp61
I0
I-1
sI1
I1
sI-1
I1
sssI1
(dp62
g20
(dp63
I0
I1
sI1
I1
sI-1
I1
sssI-1
(dp64
g20
(dp65
I0
I1
sI1
I1
sI-1
I1
sssssI-1
(dp66
g12
(dp67
I0
(dp68
g20
(dp69
I0
I-1
sI1
I-1
sI-1
I-1
sssI1
(dp70
g20
(dp71
I0
I-1
sI1
I-1
sI-1
I-1
sssI-1
(dp72
g20
(dp73
I0
I-1
sI1
I-1
sI-1
I-1
ssssssa(dp74
g2
F0.8673005276940532
sg12
(dp75
I0
(dp76
g3
(dp77
I0
I-1
sI1
(dp78
g15
(dp79
I0
I-1
sI1
I1
sI-1
I1
sssI-1
(dp80
g20
(dp81
I0
I-1
sI1
I-1
sI-1
I-1
sssssI1
(dp82
g15
(dp83
I0
(dp84
g20
(dp85
I0
I1
sI1
I1
sI-1
I1
sssI1
(dp86
g3
(dp87
I0
I-1
sI1
I1
sI-1
I-1
sssI-1
(dp88
g6
(dp89
I0
I1
sI1
I1
sI-1
I-1
sssssI-1
(dp90
g20
(dp91
I0
(dp92
g6
(dp93
I0
I1
sI1
I1
sI-1
I-1
sssI1
(dp94
g6
(dp95
I0
I1
sI1
I1
sI-1
I-1
sssI-1
(dp96
g9
(dp97
I0
I-1
sI1
I-1
sI-1
I1
ssssssa(dp98
g2
F1.0285678920827688
sg3
(dp99
I0
(dp100
g20
(dp101
I0
(dp102
g9
(dp103
I0
I-1
sI1
I-1
sI-1
I1
sssI1
I-1
sI-1
(dp104
S'age_of_domain'
p105
(dp106
I1
I-1
sI-1
I-1
sssssI1
(dp107
g12
(dp108
I0
(dp109
g15
(dp110
I0
I-1
sI1
I1
sI-1
I1
sssI1
(dp111
g20
(dp112
I0
I1
sI1
I1
sI-1
I1
sssI-1
(dp113
g20
(dp114
I0
I1
sI1
I1
sI-1
I1
sssssI-1
(dp115
g12
(dp116
I0
(dp117
g20
(dp118
I0
I-1
sI1
I-1
sI-1
I-1
sssI1
(dp119
g20
(dp120
I0
I-1
sI1
I-1
sI-1
I-1
sssI-1
(dp121
g20
(dp122
I0
I-1
sI1
I-1
sI-1
I-1
ssssssa(dp123
g2
F1.0285678920827688
sg3
(dp124
I0
(dp125
g20
(dp126
I0
(dp127
g9
(dp128
I0
I-1
sI1
I-1
sI-1
I1
sssI1
I-1
sI-1
(dp129
g105
(dp130
I1
I-1
sI-1
I-1
sssssI1
(dp131
g12
(dp132
I0
(dp133
g15
(dp134
I0
I-1
sI1
I1
sI-1
I1
sssI1
(dp135
g20
(dp136
I0
I1
sI1
I1
sI-1
I1
sssI-1
(dp137
g20
(dp138
I0
I1
sI1
I1
sI-1
I1
sssssI-1
(dp139
g12
(dp140
I0
(dp141
g20
(dp142
I0
I-1
sI1
I-1
sI-1
I-1
sssI1
(dp143
g20
(dp144
I0
I-1
sI1
I-1
sI-1
I-1
sssI-1
(dp145
g20
(dp146
I0
I-1
sI1
I-1
sI-1
I-1
ssssssa(dp147
g2
F1.0252592511052927
sg3
(dp148
I0
(dp149
g20
(dp150
I0
(dp151
g6
(dp152
I0
I-1
sI1
I-1
sI-1
I-1
sssI1
I-1
sI-1
(dp153
g105
(dp154
I1
I-1
sI-1
I-1
sssssI1
(dp155
g12
(dp156
I0
(dp157
g15
(dp158
I0
I-1
sI1
I1
sI-1
I1
sssI1
(dp159
g20
(dp160
I0
I1
sI1
I1
sI-1
I1
sssI-1
(dp161
g20
(dp162
I0
I1
sI1
I1
sI-1
I1
sssssI-1
(dp163
g12
(dp164
I0
(dp165
g20
(dp166
I0
I-1
sI1
I-1
sI-1
I-1
sssI1
(dp167
g20
(dp168
I0
I-1
sI1
I-1
sI-1
I-1
sssI-1
(dp169
g20
(dp170
I0
I-1
sI1
I-1
sI-1
I-1
ssssssa(dp171
g2
F1.0285678920827688
sg3
(dp172
I0
(dp173
g20
(dp174
I0
(dp175
g9
(dp176
I0
I-1
sI1
I-1
sI-1
I1
sssI1
I-1
sI-1
(dp177
g105
(dp178
I1
I-1
sI-1
I-1
sssssI1
(dp179
g12
(dp180
I0
(dp181
g15
(dp182
I0
I-1
sI1
I1
sI-1
I1
sssI1
(dp183
g20
(dp184
I0
I1
sI1
I1
sI-1
I1
sssI-1
(dp185
g20
(dp186
I0
I1
sI1
I1
sI-1
I1
sssssI-1
(dp187
g12
(dp188
I0
(dp189
g20
(dp190
I0
I-1
sI1
I-1
sI-1
I-1
sssI1
(dp191
g20
(dp192
I0
I-1
sI1
I-1
sI-1
I-1
sssI-1
(dp193
g20
(dp194
I0
I-1
sI1
I-1
sI-1
I-1
ssssssa(dp195
g2
F1.0252592511052927
sg3
(dp196
I0
(dp197
g20
(dp198
I0
(dp199
g6
(dp200
I0
I-1
sI1
I-1
sI-1
I-1
sssI1
I-1
sI-1
(dp201
g105
(dp202
I1
I-1
sI-1
I-1
sssssI1
(dp203
g12
(dp204
I0
(dp205
g15
(dp206
I0
I-1
sI1
I1
sI-1
I1
sssI1
(dp207
g20
(dp208
I0
I1
sI1
I1
sI-1
I1
sssI-1
(dp209
g20
(dp210
I0
I1
sI1
I1
sI-1
I1
sssssI-1
(dp211
g12
(dp212
I0
(dp213
g20
(dp214
I0
I-1
sI1
I-1
sI-1
I-1
sssI1
(dp215
g20
(dp216
I0
I-1
sI1
I-1
sI-1
I-1
sssI-1
(dp217
g20
(dp218
I0
I-1
sI1
I-1
sI-1
I-1
ssssssa(dp219
g2
F1.0285678920827688
sg3
(dp220
I0
(dp221
g20
(dp222
I0
(dp223
g9
(dp224
I0
I-1
sI1
I-1
sI-1
I1
sssI1
I-1
sI-1
(dp225
g105
(dp226
I1
I-1
sI-1
I-1
sssssI1
(dp227
g12
(dp228
I0
(dp229
g15
(dp230
I0
I-1
sI1
I1
sI-1
I1
sssI1
(dp231
g20
(dp232
I0
I1
sI1
I1
sI-1
I1
sssI-1
(dp233
g20
(dp234
I0
I1
sI1
I1
sI-1
I1
sssssI-1
(dp235
g12
(dp236
I0
(dp237
g20
(dp238
I0
I-1
sI1
I-1
sI-1
I-1
sssI1
(dp239
g20
(dp240
I0
I-1
sI1
I-1
sI-1
I-1
sssI-1
(dp241
g20
(dp242
I0
I-1
sI1
I-1
sI-1
I-1
ssssssa(dp243
g2
F1.0252592511052927
sg3
(dp244
I0
(dp245
g20
(dp246
I0
(dp247
g6
(dp248
I0
I-1
sI1
I-1
sI-1
I-1
sssI1
I-1
sI-1
(dp249
g105
(dp250
I1
I-1
sI-1
I-1
sssssI1
(dp251
g12
(dp252
I0
(dp253
g15
(dp254
I0
I-1
sI1
I1
sI-1
I1
sssI1
(dp255
g20
(dp256
I0
I1
sI1
I1
sI-1
I1
sssI-1
(dp257
g20
(dp258
I0
I1
sI1
I1
sI-1
I1
sssssI-1
(dp259
g12
(dp260
I0
(dp261
g20
(dp262
I0
I-1
sI1
I-1
sI-1
I-1
sssI1
(dp263
g20
(dp264
I0
I-1
sI1
I-1
sI-1
I-1
sssI-1
(dp265
g20
(dp266
I0
I-1
sI1
I-1
sI-1
I-1
ssssssa(dp267
g2
F1.0285678920827688
sg3
(dp268
I0
(dp269
g20
(dp270
I0
(dp271
g9
(dp272
I0
I-1
sI1
I-1
sI-1
I1
sssI1
I-1
sI-1
(dp273
g105
(dp274
I1
I-1
sI-1
I-1
sssssI1
(dp275
g12
(dp276
I0
(dp277
g15
(dp278
I0
I-1
sI1
I1
sI-1
I1
sssI1
(dp279
g20
(dp280
I0
I1
sI1
I1
sI-1
I1
sssI-1
(dp281
g20
(dp282
I0
I1
sI1
I1
sI-1
I1
sssssI-1
(dp283
g12
(dp284
I0
(dp285
g20
(dp286
I0
I-1
sI1
I-1
sI-1
I-1
sssI1
(dp287
g20
(dp288
I0
I-1
sI1
I-1
sI-1
I-1
sssI-1
(dp289
g20
(dp290
I0
I-1
sI1
I-1
sI-1
I-1
ssssssa(dp291
g2
F1.0252592511052927
sg3
(dp292
I0
(dp293
g20
(dp294
I0
(dp295
g6
(dp296
I0
I-1
sI1
I-1
sI-1
I-1
sssI1
I-1
sI-1
(dp297
g105
(dp298
I1
I-1
sI-1
I-1
sssssI1
(dp299
g12
(dp300
I0
(dp301
g15
(dp302
I0
I-1
sI1
I1
sI-1
I1
sssI1
(dp303
g20
(dp304
I0
I1
sI1
I1
sI-1
I1
sssI-1
(dp305
g20
(dp306
I0
I1
sI1
I1
sI-1
I1
sssssI-1
(dp307
g12
(dp308
I0
(dp309
g20
(dp310
I0
I-1
sI1
I-1
sI-1
I-1
sssI1
(dp311
g20
(dp312
I0
I-1
sI1
I-1
sI-1
I-1
sssI-1
(dp313
g20
(dp314
I0
I-1
sI1
I-1
sI-1
I-1
ssssssa(dp315
g2
F1.0285678920827688
sg3
(dp316
I0
(dp317
g20
(dp318
I0
(dp319
g9
(dp320
I0
I-1
sI1
I-1
sI-1
I1
sssI1
I-1
sI-1
(dp321
g105
(dp322
I1
I-1
sI-1
I-1
sssssI1
(dp323
g12
(dp324
I0
(dp325
g15
(dp326
I0
I-1
sI1
I1
sI-1
I1
sssI1
(dp327
g20
(dp328
I0
I1
sI1
I1
sI-1
I1
sssI-1
(dp329
g20
(dp330
I0
I1
sI1
I1
sI-1
I1
sssssI-1
(dp331
g12
(dp332
I0
(dp333
g20
(dp334
I0
I-1
sI1
I-1
sI-1
I-1
sssI1
(dp335
g20
(dp336
I0
I-1
sI1
I-1
sI-1
I-1
sssI-1
(dp337
g20
(dp338
I0
I-1
sI1
I-1
sI-1
I-1
ssssssa(dp339
g2
F1.0252592511052927
sg3
(dp340
I0
(dp341
g20
(dp342
I0
(dp343
g6
(dp344
I0
I-1
sI1
I-1
sI-1
I-1
sssI1
I-1
sI-1
(dp345
g105
(dp346
I1
I-1
sI-1
I-1
sssssI1
(dp347
g12
(dp348
I0
(dp349
g15
(dp350
I0
I-1
sI1
I1
sI-1
I1
sssI1
(dp351
g20
(dp352
I0
I1
sI1
I1
sI-1
I1
sssI-1
(dp353
g20
(dp354
I0
I1
sI1
I1
sI-1
I1
sssssI-1
(dp355
g12
(dp356
I0
(dp357
g20
(dp358
I0
I-1
sI1
I-1
sI-1
I-1
sssI1
(dp359
g20
(dp360
I0
I-1
sI1
I-1
sI-1
I-1
sssI-1
(dp361
g20
(dp362
I0
I-1
sI1
I-1
sI-1
I-1
ssssssa(dp363
g2
F1.0285678920827688
sg3
(dp364
I0
(dp365
g20
(dp366
I0
(dp367
g9
(dp368
I0
I-1
sI1
I-1
sI-1
I1
sssI1
I-1
sI-1
(dp369
g105
(dp370
I1
I-1
sI-1
I-1
sssssI1
(dp371
g12
(dp372
I0
(dp373
g15
(dp374
I0
I-1
sI1
I1
sI-1
I1
sssI1
(dp375
g20
(dp376
I0
I1
sI1
I1
sI-1
I1
sssI-1
(dp377
g20
(dp378
I0
I1
sI1
I1
sI-1
I1
sssssI-1
(dp379
g12
(dp380
I0
(dp381
g20
(dp382
I0
I-1
sI1
I-1
sI-1
I-1
sssI1
(dp383
g20
(dp384
I0
I-1
sI1
I-1
sI-1
I-1
sssI-1
(dp385
g20
(dp386
I0
I-1
sI1
I-1
sI-1
I-1
ssssssa(dp387
g2
F1.0252592511052927
sg3
(dp388
I0
(dp389
g20
(dp390
I0
(dp391
g6
(dp392
I0
I-1
sI1
I-1
sI-1
I-1
sssI1
I-1
sI-1
(dp393
g105
(dp394
I1
I-1
sI-1
I-1
sssssI1
(dp395
g12
(dp396
I0
(dp397
g15
(dp398
I0
I-1
sI1
I1
sI-1
I1
sssI1
(dp399
g20
(dp400
I0
I1
sI1
I1
sI-1
I1
sssI-1
(dp401
g20
(dp402
I0
I1
sI1
I1
sI-1
I1
sssssI-1
(dp403
g12
(dp404
I0
(dp405
g20
(dp406
I0
I-1
sI1
I-1
sI-1
I-1
sssI1
(dp407
g20
(dp408
I0
I-1
sI1
I-1
sI-1
I-1
sssI-1
(dp409
g20
(dp410
I0
I-1
sI1
I-1
sI-1
I-1
ssssssa(dp411
g2
F1.0285678920827688
sg3
(dp412
I0
(dp413
g20
(dp414
I0
(dp415
g9
(dp416
I0
I-1
sI1
I-1
sI-1
I1
sssI1
I-1
sI-1
(dp417
g105
(dp418
I1
I-1
sI-1
I-1
sssssI1
(dp419
g12
(dp420
I0
(dp421
g15
(dp422
I0
I-1
sI1
I1
sI-1
I1
sssI1
(dp423
g20
(dp424
I0
I1
sI1
I1
sI-1
I1
sssI-1
(dp425
g20
(dp426
I0
I1
sI1
I1
sI-1
I1
sssssI-1
(dp427
g12
(dp428
I0
(dp429
g20
(dp430
I0
I-1
sI1
I-1
sI-1
I-1
sssI1
(dp431
g20
(dp432
I0
I-1
sI1
I-1
sI-1
I-1
sssI-1
(dp433
g20
(dp434
I0
I-1
sI1
I-1
sI-1
I-1
ssssssa(dp435
g2
F1.0252592511052927
sg3
(dp436
I0
(dp437
g20
(dp438
I0
(dp439
g6
(dp440
I0
I-1
sI1
I-1
sI-1
I-1
sssI1
I-1
sI-1
(dp441
g105
(dp442
I1
I-1
sI-1
I-1
sssssI1
(dp443
g12
(dp444
I0
(dp445
g15
(dp446
I0
I-1
sI1
I1
sI-1
I1
sssI1
(dp447
g20
(dp448
I0
I1
sI1
I1
sI-1
I1
sssI-1
(dp449
g20
(dp450
I0
I1
sI1
I1
sI-1
I1
sssssI-1
(dp451
g12
(dp452
I0
(dp453
g20
(dp454
I0
I-1
sI1
I-1
sI-1
I-1
sssI1
(dp455
g20
(dp456
I0
I-1
sI1
I-1
sI-1
I-1
sssI-1
(dp457
g20
(dp458
I0
I-1
sI1
I-1
sI-1
I-1
ssssssa(dp459
g2
F1.0285678920827688
sg3
(dp460
I0
(dp461
g20
(dp462
I0
(dp463
g9
(dp464
I0
I-1
sI1
I-1
sI-1
I1
sssI1
I-1
sI-1
(dp465
g105
(dp466
I1
I-1
sI-1
I-1
sssssI1
(dp467
g12
(dp468
I0
(dp469
g15
(dp470
I0
I-1
sI1
I1
sI-1
I1
sssI1
(dp471
g20
(dp472
I0
I1
sI1
I1
sI-1
I1
sssI-1
(dp473
g20
(dp474
I0
I1
sI1
I1
sI-1
I1
sssssI-1
(dp475
g12
(dp476
I0
(dp477
g20
(dp478
I0
I-1
sI1
I-1
sI-1
I-1
sssI1
(dp479
g20
(dp480
I0
I-1
sI1
I-1
sI-1
I-1
sssI-1
(dp481
g20
(dp482
I0
I-1
sI1
I-1
sI-1
I-1
ssssssa(dp483
g2
F1.0252592511052927
sg3
(dp484
I0
(dp485
g20
(dp486
I0
(dp487
g6
(dp488
I0
I-1
sI1
I-1
sI-1
I-1
sssI1
I-1
sI-1
(dp489
g105
(dp490
I1
I-1
sI-1
I-1
sssssI1
(dp491
g12
(dp492
I0
(dp493
g15
(dp494
I0
I-1
sI1
I1
sI-1
I1
sssI1
(dp495
g20
(dp496
I0
I1
sI1
I1
sI-1
I1
sssI-1
(dp497
g20
(dp498
I0
I1
sI1
I1
sI-1
I1
sssssI-1
(dp499
g12
(dp500
I0
(dp501
g20
(dp502
I0
I-1
sI1
I-1
sI-1
I-1
sssI1
(dp503
g20
(dp504
I0
I-1
sI1
I-1
sI-1
I-1
sssI-1
(dp505
g20
(dp506
I0
I-1
sI1
I-1
sI-1
I-1
ssssssa(dp507
g2
F1.0285678920827688
sg3
(dp508
I0
(dp509
g20
(dp510
I0
(dp511
g9
(dp512
I0
I-1
sI1
I-1
sI-1
I1
sssI1
I-1
sI-1
(dp513
g105
(dp514
I1
I-1
sI-1
I-1
sssssI1
(dp515
g12
(dp516
I0
(dp517
g15
(dp518
I0
I-1
sI1
I1
sI-1
I1
sssI1
(dp519
g20
(dp520
I0
I1
sI1
I1
sI-1
I1
sssI-1
(dp521
g20
(dp522
I0
I1
sI1
I1
sI-1
I1
sssssI-1
(dp523
g12
(dp524
I0
(dp525
g20
(dp526
I0
I-1
sI1
I-1
sI-1
I-1
sssI1
(dp527
g20
(dp528
I0
I-1
sI1
I-1
sI-1
I-1
sssI-1
(dp529
g20
(dp530
I0
I-1
sI1
I-1
sI-1
I-1
ssssssa(dp531
g2
F1.0252592511052927
sg3
(dp532
I0
(dp533
g20
(dp534
I0
(dp535
g6
(dp536
I0
I-1
sI1
I-1
sI-1
I-1
sssI1
I-1
sI-1
(dp537
g105
(dp538
I1
I-1
sI-1
I-1
sssssI1
(dp539
g12
(dp540
I0
(dp541
g15
(dp542
I0
I-1
sI1
I1
sI-1
I1
sssI1
(dp543
g20
(dp544
I0
I1
sI1
I1
sI-1
I1
sssI-1
(dp545
g20
(dp546
I0
I1
sI1
I1
sI-1
I1
sssssI-1
(dp547
g12
(dp548
I0
(dp549
g20
(dp550
I0
I-1
sI1
I-1
sI-1
I-1
sssI1
(dp551
g20
(dp552
I0
I-1
sI1
I-1
sI-1
I-1
sssI-1
(dp553
g20
(dp554
I0
I-1
sI1
I-1
sI-1
I-1
ssssssa(dp555
g2
F1.0285678920827688
sg3
(dp556
I0
(dp557
g20
(dp558
I0
(dp559
g9
(dp560
I0
I-1
sI1
I-1
sI-1
I1
sssI1
I-1
sI-1
(dp561
g105
(dp562
I1
I-1
sI-1
I-1
sssssI1
(dp563
g12
(dp564
I0
(dp565
g15
(dp566
I0
I-1
sI1
I1
sI-1
I1
sssI1
(dp567
g20
(dp568
I0
I1
sI1
I1
sI-1
I1
sssI-1
(dp569
g20
(dp570
I0
I1
sI1
I1
sI-1
I1
sssssI-1
(dp571
g12
(dp572
I0
(dp573
g20
(dp574
I0
I-1
sI1
I-1
sI-1
I-1
sssI1
(dp575
g20
(dp576
I0
I-1
sI1
I-1
sI-1
I-1
sssI-1
(dp577
g20
(dp578
I0
I-1
sI1
I-1
sI-1
I-1
ssssssa(dp579
g2
F1.0252592511052927
sg3
(dp580
I0
(dp581
g20
(dp582
I0
(dp583
g6
(dp584
I0
I-1
sI1
I-1
sI-1
I-1
sssI1
I-1
sI-1
(dp585
g105
(dp586
I1
I-1
sI-1
I-1
sssssI1
(dp587
g12
(dp588
I0
(dp589
g15
(dp590
I0
I-1
sI1
I1
sI-1
I1
sssI1
(dp591
g20
(dp592
I0
I1
sI1
I1
sI-1
I1
sssI-1
(dp593
g20
(dp594
I0
I1
sI1
I1
sI-1
I1
sssssI-1
(dp595
g12
(dp596
I0
(dp597
g20
(dp598
I0
I-1
sI1
I-1
sI-1
I-1
sssI1
(dp599
g20
(dp600
I0
I-1
sI1
I-1
sI-1
I-1
sssI-1
(dp601
g20
(dp602
I0
I-1
sI1
I-1
sI-1
I-1
ssssssa(dp603
g2
F1.0285678920827688
sg3
(dp604
I0
(dp605
g20
(dp606
I0
(dp607
g9
(dp608
I0
I-1
sI1
I-1
sI-1
I1
sssI1
I-1
sI-1
(dp609
g105
(dp610
I1
I-1
sI-1
I-1
sssssI1
(dp611
g12
(dp612
I0
(dp613
g15
(dp614
I0
I-1
sI1
I1
sI-1
I1
sssI1
(dp615
g20
(dp616
I0
I1
sI1
I1
sI-1
I1
sssI-1
(dp617
g20
(dp618
I0
I1
sI1
I1
sI-1
I1
sssssI-1
(dp619
g12
(dp620
I0
(dp621
g20
(dp622
I0
I-1
sI1
I-1
sI-1
I-1
sssI1
(dp623
g20
(dp624
I0
I-1
sI1
I-1
sI-1
I-1
sssI-1
(dp625
g20
(dp626
I0
I-1
sI1
I-1
sI-1
I-1
ssssssa(dp627
g2
F1.0252592511052927
sg3
(dp628
I0
(dp629
g20
(dp630
I0
(dp631
g6
(dp632
I0
I-1
sI1
I-1
sI-1
I-1
sssI1
I-1
sI-1
(dp633
g105
(dp634
I1
I-1
sI-1
I-1
sssssI1
(dp635
g12
(dp636
I0
(dp637
g15
(dp638
I0
I-1
sI1
I1
sI-1
I1
sssI1
(dp639
g20
(dp640
I0
I1
sI1
I1
sI-1
I1
sssI-1
(dp641
g20
(dp642
I0
I1
sI1
I1
sI-1
I1
sssssI-1
(dp643
g12
(dp644
I0
(dp645
g20
(dp646
I0
I-1
sI1
I-1
sI-1
I-1
sssI1
(dp647
g20
(dp648
I0
I-1
sI1
I-1
sI-1
I-1
sssI-1
(dp649
g20
(dp650
I0
I-1
sI1
I-1
sI-1
I-1
ssssssa(dp651
g2
F1.0285678920827688
sg3
(dp652
I0
(dp653
g20
(dp654
I0
(dp655
g9
(dp656
I0
I-1
sI1
I-1
sI-1
I1
sssI1
I-1
sI-1
(dp657
g105
(dp658
I1
I-1
sI-1
I-1
sssssI1
(dp659
g12
(dp660
I0
(dp661
g15
(dp662
I0
I-1
sI1
I1
sI-1
I1
sssI1
(dp663
g20
(dp664
I0
I1
sI1
I1
sI-1
I1
sssI-1
(dp665
g20
(dp666
I0
I1
sI1
I1
sI-1
I1
sssssI-1
(dp667
g12
(dp668
I0
(dp669
g20
(dp670
I0
I-1
sI1
I-1
sI-1
I-1
sssI1
(dp671
g20
(dp672
I0
I-1
sI1
I-1
sI-1
I-1
sssI-1
(dp673
g20
(dp674
I0
I-1
sI1
I-1
sI-1
I-1
ssssssa(dp675
g2
F1.0252592511052927
sg3
(dp676
I0
(dp677
g20
(dp678
I0
(dp679
g6
(dp680
I0
I-1
sI1
I-1
sI-1
I-1
sssI1
I-1
sI-1
(dp681
g105
(dp682
I1
I-1
sI-1
I-1
sssssI1
(dp683
g12
(dp684
I0
(dp685
g15
(dp686
I0
I-1
sI1
I1
sI-1
I1
sssI1
(dp687
g20
(dp688
I0
I1
sI1
I1
sI-1
I1
sssI-1
(dp689
g20
(dp690
I0
I1
sI1
I1
sI-1
I1
sssssI-1
(dp691
g12
(dp692
I0
(dp693
g20
(dp694
I0
I-1
sI1
I-1
sI-1
I-1
sssI1
(dp695
g20
(dp696
I0
I-1
sI1
I-1
sI-1
I-1
sssI-1
(dp697
g20
(dp698
I0
I-1
sI1
I-1
sI-1
I-1
ssssssa(dp699
g2
F1.0285678920827688
sg3
(dp700
I0
(dp701
g20
(dp702
I0
(dp703
g9
(dp704
I0
I-1
sI1
I-1
sI-1
I1
sssI1
I-1
sI-1
(dp705
g105
(dp706
I1
I-1
sI-1
I-1
sssssI1
(dp707
g12
(dp708
I0
(dp709
g15
(dp710
I0
I-1
sI1
I1
sI-1
I1
sssI1
(dp711
g20
(dp712
I0
I1
sI1
I1
sI-1
I1
sssI-1
(dp713
g20
(dp714
I0
I1
sI1
I1
sI-1
I1
sssssI-1
(dp715
g12
(dp716
I0
(dp717
g20
(dp718
I0
I-1
sI1
I-1
sI-1
I-1
sssI1
(dp719
g20
(dp720
I0
I-1
sI1
I-1
sI-1
I-1
sssI-1
(dp721
g20
(dp722
I0
I-1
sI1
I-1
sI-1
I-1
ssssssa.