(lp0
(dp1
S'alpha'
p2
F1.1193230806931167
sS'SSLfinal_State'
p3
(dp4
I0
(dp5
S'URL_of_Anchor'
p6
(dp7
I0
(dp8
S'Links_pointing_to_page'
p9
(dp10
I0
I-1
sI1
I-1
sI-1
I1
sssI1
I-1
sI-1
I-1
sssI1
(dp11
S'having_Sub_Domain'
p12
(dp13
I0
(dp14
S'Links_in_tags'
p15
(dp16
I0
I1
sI1
I1
sI-1
I1
sssI1
(dp17
S'web_traffic'
p18
(dp19
I0
I1
sI1
I1
sI-1
I1
sssI-1
(dp20
g15
(dp21
I0
I1
sI1
I1
sI-1
I1
sssssI-1
(dp22
g6
(dp23
I0
(dp24
g12
(dp25
I0
I-1
sI1
I-1
sI-1
I-1
sssI1
(dp26
g12
(dp27
I0
I1
sI1
I1
sI-1
I-1
sssI-1
I-1
ssssa(dp28
g2
F1.0986122886681098
sg3
(dp29
I0
(dp30
g6
(dp31
I0
(dp32
g9
(dp33
I0
I-1
sI1
I-1
sI-1
I1
sssI1
I-1
sI-1
I-1
sssI1
(dp34
g12
(dp35
I0
(dp36
g18
(dp37
I0
I-1
sI1
I1
sI-1
I1
sssI1
(dp38
g18
(dp39
I0
I1
sI1
I1
sI-1
I1
sssI-1
(dp40
g18
(dp41
I0
I-1
sI1
I1
sI-1
I1
sssssI-1
(dp42
g12
(dp43
I0
(dp44
g6
(dp45
I0
I-1
sI1
I1
sI-1
I-1
sssI1
(dp46
g15
(dp47
I0
I-1
sI1
I-1
sI-1
I-1
sssI-1
(dp48
g6
(dp49
I0
I-1
sI1
I-1
sI-1
I-1
ssssssa(dp50
g2
F0.96688749912049
sg12
(dp51
I0
(dp52
g6
(dp53
I0
(dp54
g15
(dp55
I0
I1
sI1
I1
sI-1
I-1
sssI1
(dp56
g18
(dp57
I0
I1
sI1
I1
sI-1
I-1
sssI-1
I-1
sssI1
(dp58
g3
(dp59
I0
(dp60
g9
(dp61
I0
I-1
sI1
I-1
sI-1
I1
sssI1
(dp62
g15
(dp63
I0
I1
sI1
I1
sI-1
I1
sssI-1
(dp64
g15
(dp65
I0
I-1
sI1
I-1
sI-1
I-1
sssssI-1
(dp66
g6
(dp67
I0
(dp68
g15
(dp69
I0
I1
sI1
I1
sI-1
I-1
sssI1
(dp70
g3
(dp71
I0
I-1
sI1
I1
sI-1
I-1
sssI-1
(dp72
S'Request_URL'
p73
(dp74
I1
I-1
sI-1
I-1
ssssssa(dp75
g2
F0.9946386890852216
sg12
(dp76
I0
(dp77
g3
(dp78
I0
I-1
sI1
(dp79
g15
(dp80
I0
I1
sI1
I1
sI-1
I1
sssI-1
(dp81
g15
(dp82
I0
I-1
sI1
I-1
sI-1
I-1
sssssI1
(dp83
g18
(dp84
I0
(dp85
g15
(dp86
I0
I1
sI1
I1
sI-1
I-1
sssI1
(dp87
g3
(dp88
I0
I-1
sI1
I1
sI-1
I-1
sssI-1
(dp89
g6
(dp90
I0
I1
sI1
I1
sI-1
I-1
sssssI-1
(dp91
g3
(dp92
I0
I-1
sI1
(dp93
g15
(dp94
I0
I1
sI1
I1
sI-1
I1
sssI-1
(dp95
g15
(dp96
I0
I-1
sI1
I-1
sI-1
I-1
ssssssa(dp97
g2
F1.031893551736019
sg12
(dp98
I0
(dp99
g3
(dp100
I0
I-1
sI1
(dp101
g15
(dp102
I0
I1
sI1
I1
sI-1
I1
sssI-1
(dp103
g15
(dp104
I0
I-1
sI1
I-1
sI-1
I-1
sssssI1
(dp105
g18
(dp106
I0
(dp107
g15
(dp108
I0
I1
sI1
I1
sI-1
I-1
sssI1
(dp109
g3
(dp110
I0
I-1
sI1
I1
sI-1
I-1
sssI-1
(dp111
g6
(dp112
I0
I1
sI1
I1
sI-1
I-1
sssssI-1
(dp113
g6
(dp114
I0
(dp115
g3
(dp116
I0
I-1
sI1
I1
sI-1
I-1
sssI1
(dp117
g3
(dp118
I0
I-1
sI1
I1
sI-1
I-1
sssI-1
(dp119
g73
(dp120
I1
I-1
sI-1
I-1
ssssssa(dp121
g2
F0.9946386890852216
sg12
(dp122
I0
(dp123
g3
(dp124
I0
I-1
sI1
(dp125
g15
(dp126
I0
I1
sI1
I1
sI-1
I1
sssI-1
(dp127
g15
(dp128
I0
I-1
sI1
I-1
sI-1
I-1
sssssI1
(dp129
g18
(dp130
I0
(dp131
g15
(dp132
I0
I1
sI1
I1
sI-1
I-1
sssI1
(dp133
g3
(dp134
I0
I-1
sI1
I1
sI-1
I-1
sssI-1
(dp135
g6
(dp136
I0
I1
sI1
I1
sI-1
I-1
sssssI-1
(dp137
g3
(dp138
I0
I-1
sI1
(dp139
g15
(dp140
I0
I1
sI1
I1
sI-1
I1
sssI-1
(dp141
g15
(dp142
I0
I-1
sI1
I-1
sI-1
I-1
ssssssa(dp143
g2
F0.9914971760442179
sg12
(dp144
I0
(dp145
g3
(dp146
I0
I-1
sI1
(dp147
g15
(dp148
I0
I1
sI1
I1
sI-1
I1
sssI-1
(dp149
g15
(dp150
I0
I-1
sI1
I-1
sI-1
I-1
sssssI1
(dp151
g18
(dp152
I0
(dp153
g15
(dp154
I0
I1
sI1
I1
sI-1
I-1
sssI1
(dp155
g3
(dp156
I0
I-1
sI1
I1
sI-1
I-1
sssI-1
(dp157
g3
(dp158
I0
I-1
sI1
I1
sI-1
I-1
sssssI-1
(dp159
g3
(dp160
I0
I-1
sI1
(dp161
g15
(dp162
I0
I1
sI1
I1
sI-1
I1
sssI-1
(dp163
g15
(dp164
I0
I-1
sI1
I-1
sI-1
I-1
ssssssa(dp165
g2
F0.9946386890852216
sg12
(dp166
I0
(dp167
g3
(dp168
I0
I-1
sI1
(dp169
g15
(dp170
I0
I1
sI1
I1
sI-1
I1
sssI-1
(dp171
g15
(dp172
I0
I-1
sI1
I-1
sI-1
I-1
sssssI1
(dp173
g18
(dp174
I0
(dp175
g15
(dp176
I0
I1
sI1
I1
sI-1
I-1
sssI1
(dp177
g3
(dp178
I0
I-1
sI1
I1
sI-1
I-1
sssI-1
(dp179
g6
(dp180
I0
I1
sI1
I1
sI-1
I-1
sssssI-1
(dp181
g3
(dp182
I0
I-1
sI1
(dp183
g15
(dp184
I0
I1
sI1
I1
sI-1
I1
sssI-1
(dp185
g15
(dp186
I0
I-1
sI1
I-1
sI-1
I-1
ssssssa(dp187
g2
F0.9914971760442179
sg12
(dp188
I0
(dp189
g3
(dp190
I0
I-1
sI1
(dp191
g15
(dp192
I0
I1
sI1
I1
sI-1
I1
sssI-1
(dp193
g15
(dp194
I0
I-1
sI1
I-1
sI-1
I-1
sssssI1
(dp195
g18
(dp196
I0
(dp197
g15
(dp198
I0
I1
sI1
I1
sI-1
I-1
sssI1
(dp199
g3
(dp200
I0
I-1
sI1
I1
sI-1
I-1
sssI-1
(dp201
g3
(dp202
I0
I-1
sI1
I1
sI-1
I-1
sssssI-1
(dp203
g3
(dp204
I0
I-1
sI1
(dp205
g15
(dp206
I0
I1
sI1
I1
sI-1
I1
sssI-1
(dp207
g15
(dp208
I0
I-1
sI1
I-1
sI-1
I-1
ssssssa(dp209
g2
F0.9946386890852216
sg12
(dp210
I0
(dp211
g3
(dp212
I0
I-1
sI1
(dp213
g15
(dp214
I0
I1
sI1
I1
sI-1
I1
sssI-1
(dp215
g15
(dp216
I0
I-1
sI1
I-1
sI-1
I-1
sssssI1
(dp217
g18
(dp218
I0
(dp219
g15
(dp220
I0
I1
sI1
I1
sI-1
I-1
sssI1
(dp221
g3
(dp222
I0
I-1
sI1
I1
sI-1
I-1
sssI-1
(dp223
g6
(dp224
I0
I1
sI1
I1
sI-1
I-1
sssssI-1
(dp225
g3
(dp226
I0
I-1
sI1
(dp227
g15
(dp228
I0
I1
sI1
I1
sI-1
I1
sssI-1
(dp229
g15
(dp230
I0
I-1
sI1
I-1
sI-1
I-1
ssssssa.