(lp0
(dp1
S'alpha'
p2
F1.1193230806931167
sS'SSLfinal_State'
p3
(dp4
I0
(dp5
S'URL_of_Anchor'
p6
(dp7
I0
(dp8
S'Links_pointing_to_page'
p9
(dp10
I0
I-1
sI1
I-1
sI-1
I1
sssI1
I-1
sI-1
I-1
sssI1
(dp11
S'having_Sub_Domain'
p12
(dp13
I0
(dp14
S'Links_in_tags'
p15
(dp16
I0
I1
sI1
I1
sI-1
I1
sssI1
(dp17
S'web_traffic'
p18
(dp19
I0
I1
sI1
I1
sI-1
I1
sssI-1
(dp20
g15
(dp21
I0
I1
sI1
I1
sI-1
I1
sssssI-1
(dp22
g6
(dp23
I0
(dp24
g12
(dp25
I0
I-1
sI1
I-1
sI-1
I-1
sssI1
(dp26
g12
(dp27
I0
I1
sI1
I1
sI-1
I-1
sssI-1
I-1
ssssa(dp28
g2
F1.0986122886681098
sg3
(dp29
I0
(dp30
g6
(dp31
I0
(dp32
g9
(dp33
I0
I-1
sI1
I-1
sI-1
I1
sssI1
I-1
sI-1
I-1
sssI1
(dp34
g12
(dp35
I0
(dp36
g18
(dp37
I0
I-1
sI1
I1
sI-1
I1
sssI1
(dp38
g18
(dp39
I0
I1
sI1
I1
sI-1
I1
sssI-1
(dp40
g18
(dp41
I0
I-1
sI1
I1
sI-1
I1
sssssI-1
(dp42
g12
(dp43
I0
(dp44
g6
(dp45
I0
I-1
sI1
I1
sI-1
I-1
sssI1
(dp46
g15
(dp47
I0
I-1
sI1
I-1
sI-1
I-1
sssI-1
(dp48
g6
(dp49
I0
I-1
sI1
I-1
sI-1
I-1
ssssssa(dp50
g2
F0.96688749912049
sg12
(dp51
I0
(dp52
g6
(dp53
I0
(dp54
g15
(dp55
I0
I1
sI1
I1
sI-1
I-1
sssI1
(dp56
g18
(dp57
I0
I1
sI1
I1
sI-1
I-1
sssI-1
I-1
sssI1
(dp58
g3
(dp59
I0
(dp60
g9
(dp61
I0
I-1
sI1
I-1
sI-1
I1
sssI1
(dp62
g15
(dp63
I0
I1
sI1
I1
sI-1
I1
sssI-1
(dp64
g15
(dp65
I0
I-1
sI1
I-1
sI-1
I-1
sssssI-1
(dp66
g6
(dp67
I0
(dp68
g15
(dp69
I0
I1
sI1
I1
sI-1
I-1
sssI1
(dp70
g3
(dp71
I0
I-1
sI1
I1
sI-1
I-1
sssI-1
(dp72
S'Request_URL'
p73
(dp74
I1
I-1
sI-1
I-1
ssssssa(dp75
g2
F0.9946386890852216
sg12
(dp76
I0
(dp77
g3
(dp78
I0
I-1
sI1
(dp79
g15
(dp80
I0
I1
sI1
I1
sI-1
I1
sssI-1
(dp81
g15
(dp82
I0
I-1
sI1
I-1
sI-1
I-1
sssssI1
(dp83
g18
(dp84
I0
(dp85
g15
(dp86
I0
I1
sI1
I1
sI-1
I-1
sssI1
(dp87
g3
(dp88
I0
I-1
sI1
I1
sI-1
I-1
sssI-1
(dp89
g6
(dp90
I0
I1
sI1
I1
sI-1
I-1
sssssI-1
(dp91
g3
(dp92
I0
I-1
sI1
(dp93
g15
(dp94
I0
I1
sI1
I1
sI-1
I1
sssI-1
(dp95
g15
(dp96
I0
I-1
sI1
I-1
sI-1
I-1
ssssssa(dp97
g2
F1.031893551736019
sg12
(dp98
I0
(dp99
g3
(dp100
I0
I-1
sI1
(dp101
g15
(dp102
I0
I1
sI1
I1
sI-1
I1
sssI-1
(dp103
g15
(dp104
I0
I-1
sI1
I-1
sI-1
I-1
sssssI1
(dp105
g18
(dp106
I0
(dp107
g15
(dp108
I0
I1
sI1
I1
sI-1
I-1
sssI1
(dp109
g3
(dp110
I0
I-1
sI1
I1
sI-1
I-1
sssI-1
(dp111
g6
(dp112
I0
I1
sI1
I1
sI-1
I-1
sssssI-1
(dp113
g6
(dp114
I0
(dp115
g3
(dp116
I0
I-1
sI1
I1
sI-1
I-1
sssI1
(dp117
g3
(dp118
I0
I-1
sI1
I1
sI-1
I-1
sssI-1
(dp119
g73
(dp120
I1
I-1
sI-1
I-1
ssssssa(dp121
g2
F0.9946386890852216
sg12
(dp122
I0
(dp123
g3
(dp124
I0
I-1
sI1
(dp125
g15
(dp126
I0
I1
sI1
I1
sI-1
I1
sssI-1
(dp127
g15
(dp128
I0
I-1
sI1
I-1
sI-1
I-1
sssssI1
(dp129
g18
(dp130
I0
(dp131
g15
(dp132
I0
I1
sI1
I1
sI-1
I-1
sssI1
(dp133
g3
(dp134
I0
I-1
sI1
I1
sI-1
I-1
sssI-1
(dp135
g6
(dp136
I0
I1
sI1
I1
sI-1
I-1
sssssI-1
(dp137
g3
(dp138
I0
I-1
sI1
(dp139
g15
(dp140
I0
I1
sI1
I1
sI-1
I1
sssI-1
(dp141
g15
(dp142
I0
I-1
sI1
I-1
sI-1
I-1
ssssssa(dp143
g2
F0.9914971760442179
sg12
(dp144
I0
(dp145
g3
(dp146
I0
I-1
sI1
(dp147
g15
(dp148
I0
I1
sI1
I1
sI-1
I1
sssI-1
(dp149
g15
(dp150
I0
I-1
sI1
I-1
sI-1
I-1
sssssI1
(dp151
g18
(dp152
I0
(dp153
g15
(dp154
I0
I1
sI1
I1
sI-1
I-1
sssI1
(dp155
g3
(dp156
I0
I-1
sI1
I1
sI-1
I-1
sssI-1
(dp157
g3
(dp158
I0
I-1
sI1
I1
sI-1
I-1
sssssI-1
(dp159
g3
(dp160
I0
I-1
sI1
(dp161
g15
(dp162
I0
I1
sI1
I1
sI-1
I1
sssI-1
(dp163
g15
(dp164
I0
I-1
sI1
I-1
sI-1
I-1
ssssssa(dp165
g2
F0.9946386890852216
sg12
(dp166
I0
(dp167
g3
(dp168
I0
I-1
sI1
(dp169
g15
(dp170
I0
I1
sI1
I1
sI-1
I1
sssI-1
(dp171
g15
(dp172
I0
I-1
sI1
I-1
sI-1
I-1
sssssI1
(dp173
g18
(dp174
I0
(dp175
g15
(dp176
I0
I1
sI1
I1
sI-1
I-1
sssI1
(dp177
g3
(dp178
I0
I-1
sI1
I1
sI-1
I-1
sssI-1
(dp179
g6
(dp180
I0
I1
sI1
I1
sI-1
I-1
sssssI-1
(dp181
g3
(dp182
I0
I-1
sI1
(dp183
g15
(dp184
I0
I1
sI1
I1
sI-1
I1
sssI-1
(dp185
g15
(dp186
I0
I-1
sI1
I-1
sI-1
I-1
ssssssa(dp187
g2
F0.9914971760442179
sg12
(dp188
I0
(dp189
g3
(dp190
I0
I-1
sI1
(dp191
g15
(dp192
I0
I1
sI1
I1
sI-1
I1
sssI-1
(dp193
g15
(dp194
I0
I-1
sI1
I-1
sI-1
I-1
sssssI1
(dp195
g18
(dp196
I0
(dp197
g15
(dp198
I0
I1
sI1
I1
sI-1
I-1
sssI1
(dp199
g3
(dp200
I0
I-1
sI1
I1
sI-1
I-1
sssI-1
(dp201
g3
(dp202
I0
I-1
sI1
I1
sI-1
I-1
sssssI-1
(dp203
g3
(dp204
I0
I-1
sI1
(dp205
g15
(dp206
I0
I1
sI1
I1
sI-1
I1
sssI-1
(dp207
g15
(dp208
I0
I-1
sI1
I-1
sI-1
I-1
ssssssa(dp209
g2
F0.9946386890852216
sg12
(dp210
I0
(dp211
g3
(dp212
I0
I-1
sI1
(dp213
g15
(dp214
I0
I1
sI1
I1
sI-1
I1
sssI-1
(dp215
g15
(dp216
I0
I-1
sI1
I-1
sI-1
I-1
sssssI1
(dp217
g18
(dp218
I0
(dp219
g15
(dp220
I0
I1
sI1
I1
sI-1
I-1
sssI1
(dp221
g3
(dp222
I0
I-1
sI1
I1
sI-1
I-1
sssI-1
(dp223
g6
(dp224
I0
I1
sI1
I1
sI-1
I-1
sssssI-1
(dp225
g3
(dp226
I0
I-1
sI1
(dp227
g15
(dp228
I0
I1
sI1
I1
sI-1
I1
sssI-1
(dp229
g15
(dp230
I0
I-1
sI1
I-1
sI-1
I-1
ssssssa(dp231
g2
F0.9914971760442179
sg12
(dp232
I0
(dp233
g3
(dp234
I0
I-1
sI1
(dp235
g15
(dp236
I0
I1
sI1
I1
sI-1
I1
sssI-1
(dp237
g15
(dp238
I0
I-1
sI1
I-1
sI-1
I-1
sssssI1
(dp239
g18
(dp240
I0
(dp241
g15
(dp242
I0
I1
sI1
I1
sI-1
I-1
sssI1
(dp243
g3
(dp244
I0
I-1
sI1
I1
sI-1
I-1
sssI-1
(dp245
g3
(dp246
I0
I-1
sI1
I1
sI-1
I-1
sssssI-1
(dp247
g3
(dp248
I0
I-1
sI1
(dp249
g15
(dp250
I0
I1
sI1
I1
sI-1
I1
sssI-1
(dp251
g15
(dp252
I0
I-1
sI1
I-1
sI-1
I-1
ssssssa(dp253
g2
F0.9946386890852216
sg12
(dp254
I0
(dp255
g3
(dp256
I0
I-1
sI1
(dp257
g15
(dp258
I0
I1
sI1
I1
sI-1
I1
sssI-1
(dp259
g15
(dp260
I0
I-1
sI1
I-1
sI-1
I-1
sssssI1
(dp261
g18
(dp262
I0
(dp263
g15
(dp264
I0
I1
sI1
I1
sI-1
I-1
sssI1
(dp265
g3
(dp266
I0
I-1
sI1
I1
sI-1
I-1
sssI-1
(dp267
g6
(dp268
I0
I1
sI1
I1
sI-1
I-1
sssssI-1
(dp269
g3
(dp270
I0
I-1
sI1
(dp271
g15
(dp272
I0
I1
sI1
I1
sI-1
I1
sssI-1
(dp273
g15
(dp274
I0
I-1
sI1
I-1
sI-1
I-1
ssssssa(dp275
g2
F0.9914971760442179
sg12
(dp276
I0
(dp277
g3
(dp278
I0
I-1
sI1
(dp279
g15
(dp280
I0
I1
sI1
I1
sI-1
I1
sssI-1
(dp281
g15
(dp282
I0
I-1
sI1
I-1
sI-1
I-1
sssssI1
(dp283
g18
(dp284
I0
(dp285
g15
(dp286
I0
I1
sI1
I1
sI-1
I-1
sssI1
(dp287
g3
(dp288
I0
I-1
sI1
I1
sI-1
I-1
sssI-1
(dp289
g3
(dp290
I0
I-1
sI1
I1
sI-1
I-1
sssssI-1
(dp291
g3
(dp292
I0
I-1
sI1
(dp293
g15
(dp294
I0
I1
sI1
I1
sI-1
I1
sssI-1
(dp295
g15
(dp296
I0
I-1
sI1
I-1
sI-1
I-1
ssssssa(dp297
g2
F0.9946386890852216
sg12
(dp298
I0
(dp299
g3
(dp300
I0
I-1
sI1
(dp301
g15
(dp302
I0
I1
sI1
I1
sI-1
I1
sssI-1
(dp303
g15
(dp304
I0
I-1
sI1
I-1
sI-1
I-1
sssssI1
(dp305
g18
(dp306
I0
(dp307
g15
(dp308
I0
I1
sI1
I1
sI-1
I-1
sssI1
(dp309
g3
(dp310
I0
I-1
sI1
I1
sI-1
I-1
sssI-1
(dp311
g6
(dp312
I0
I1
sI1
I1
sI-1
I-1
sssssI-1
(dp313
g3
(dp314
I0
I-1
sI1
(dp315
g15
(dp316
I0
I1
sI1
I1
sI-1
I1
sssI-1
(dp317
g15
(dp318
I0
I-1
sI1
I-1
sI-1
I-1
ssssssa(dp319
g2
F0.9914971760442179
sg12
(dp320
I0
(dp321
g3
(dp322
I0
I-1
sI1
(dp323
g15
(dp324
I0
I1
sI1
I1
sI-1
I1
sssI-1
(dp325
g15
(dp326
I0
I-1
sI1
I-1
sI-1
I-1
sssssI1
(dp327
g18
(dp328
I0
(dp329
g15
(dp330
I0
I1
sI1
I1
sI-1
I-1
sssI1
(dp331
g3
(dp332
I0
I-1
sI1
I1
sI-1
I-1
sssI-1
(dp333
g3
(dp334
I0
I-1
sI1
I1
sI-1
I-1
sssssI-1
(dp335
g3
(dp336
I0
I-1
sI1
(dp337
g15
(dp338
I0
I1
sI1
I1
sI-1
I1
sssI-1
(dp339
g15
(dp340
I0
I-1
sI1
I-1
sI-1
I-1
ssssssa(dp341
g2
F0.9946386890852216
sg12
(dp342
I0
(dp343
g3
(dp344
I0
I-1
sI1
(dp345
g15
(dp346
I0
I1
sI1
I1
sI-1
I1
sssI-1
(dp347
g15
(dp348
I0
I-1
sI1
I-1
sI-1
I-1
sssssI1
(dp349
g18
(dp350
I0
(dp351
g15
(dp352
I0
I1
sI1
I1
sI-1
I-1
sssI1
(dp353
g3
(dp354
I0
I-1
sI1
I1
sI-1
I-1
sssI-1
(dp355
g6
(dp356
I0
I1
sI1
I1
sI-1
I-1
sssssI-1
(dp357
g3
(dp358
I0
I-1
sI1
(dp359
g15
(dp360
I0
I1
sI1
I1
sI-1
I1
sssI-1
(dp361
g15
(dp362
I0
I-1
sI1
I-1
sI-1
I-1
ssssssa(dp363
g2
F0.9914971760442179
sg12
(dp364
I0
(dp365
g3
(dp366
I0
I-1
sI1
(dp367
g15
(dp368
I0
I1
sI1
I1
sI-1
I1
sssI-1
(dp369
g15
(dp370
I0
I-1
sI1
I-1
sI-1
I-1
sssssI1
(dp371
g18
(dp372
I0
(dp373
g15
(dp374
I0
I1
sI1
I1
sI-1
I-1
sssI1
(dp375
g3
(dp376
I0
I-1
sI1
I1
sI-1
I-1
sssI-1
(dp377
g3
(dp378
I0
I-1
sI1
I1
sI-1
I-1
sssssI-1
(dp379
g3
(dp380
I0
I-1
sI1
(dp381
g15
(dp382
I0
I1
sI1
I1
sI-1
I1
sssI-1
(dp383
g15
(dp384
I0
I-1
sI1
I-1
sI-1
I-1
ssssssa(dp385
g2
F0.9946386890852216
sg12
(dp386
I0
(dp387
g3
(dp388
I0
I-1
sI1
(dp389
g15
(dp390
I0
I1
sI1
I1
sI-1
I1
sssI-1
(dp391
g15
(dp392
I0
I-1
sI1
I-1
sI-1
I-1
sssssI1
(dp393
g18
(dp394
I0
(dp395
g15
(dp396
I0
I1
sI1
I1
sI-1
I-1
sssI1
(dp397
g3
(dp398
I0
I-1
sI1
I1
sI-1
I-1
sssI-1
(dp399
g6
(dp400
I0
I1
sI1
I1
sI-1
I-1
sssssI-1
(dp401
g3
(dp402
I0
I-1
sI1
(dp403
g15
(dp404
I0
I1
sI1
I1
sI-1
I1
sssI-1
(dp405
g15
(dp406
I0
I-1
sI1
I-1
sI-1
I-1
ssssssa(dp407
g2
F0.9914971760442179
sg12
(dp408
I0
(dp409
g3
(dp410
I0
I-1
sI1
(dp411
g15
(dp412
I0
I1
sI1
I1
sI-1
I1
sssI-1
(dp413
g15
(dp414
I0
I-1
sI1
I-1
sI-1
I-1
sssssI1
(dp415
g18
(dp416
I0
(dp417
g15
(dp418
I0
I1
sI1
I1
sI-1
I-1
sssI1
(dp419
g3
(dp420
I0
I-1
sI1
I1
sI-1
I-1
sssI-1
(dp421
g3
(dp422
I0
I-1
sI1
I1
sI-1
I-1
sssssI-1
(dp423
g3
(dp424
I0
I-1
sI1
(dp425
g15
(dp426
I0
I1
sI1
I1
sI-1
I1
sssI-1
(dp427
g15
(dp428
I0
I-1
sI1
I-1
sI-1
I-1
ssssssa(dp429
g2
F0.9946386890852216
sg12
(dp430
I0
(dp431
g3
(dp432
I0
I-1
sI1
(dp433
g15
(dp434
I0
I1
sI1
I1
sI-1
I1
sssI-1
(dp435
g15
(dp436
I0
I-1
sI1
I-1
sI-1
I-1
sssssI1
(dp437
g18
(dp438
I0
(dp439
g15
(dp440
I0
I1
sI1
I1
sI-1
I-1
sssI1
(dp441
g3
(dp442
I0
I-1
sI1
I1
sI-1
I-1
sssI-1
(dp443
g6
(dp444
I0
I1
sI1
I1
sI-1
I-1
sssssI-1
(dp445
g3
(dp446
I0
I-1
sI1
(dp447
g15
(dp448
I0
I1
sI1
I1
sI-1
I1
sssI-1
(dp449
g15
(dp450
I0
I-1
sI1
I-1
sI-1
I-1
ssssssa(dp451
g2
F0.9914971760442179
sg12
(dp452
I0
(dp453
g3
(dp454
I0
I-1
sI1
(dp455
g15
(dp456
I0
I1
sI1
I1
sI-1
I1
sssI-1
(dp457
g15
(dp458
I0
I-1
sI1
I-1
sI-1
I-1
sssssI1
(dp459
g18
(dp460
I0
(dp461
g15
(dp462
I0
I1
sI1
I1
sI-1
I-1
sssI1
(dp463
g3
(dp464
I0
I-1
sI1
I1
sI-1
I-1
sssI-1
(dp465
g3
(dp466
I0
I-1
sI1
I1
sI-1
I-1
sssssI-1
(dp467
g3
(dp468
I0
I-1
sI1
(dp469
g15
(dp470
I0
I1
sI1
I1
sI-1
I1
sssI-1
(dp471
g15
(dp472
I0
I-1
sI1
I-1
sI-1
I-1
ssssssa(dp473
g2
F0.9946386890852216
sg12
(dp474
I0
(dp475
g3
(dp476
I0
I-1
sI1
(dp477
g15
(dp478
I0
I1
sI1
I1
sI-1
I1
sssI-1
(dp479
g15
(dp480
I0
I-1
sI1
I-1
sI-1
I-1
sssssI1
(dp481
g18
(dp482
I0
(dp483
g15
(dp484
I0
I1
sI1
I1
sI-1
I-1
sssI1
(dp485
g3
(dp486
I0
I-1
sI1
I1
sI-1
I-1
sssI-1
(dp487
g6
(dp488
I0
I1
sI1
I1
sI-1
I-1
sssssI-1
(dp489
g3
(dp490
I0
I-1
sI1
(dp491
g15
(dp492
I0
I1
sI1
I1
sI-1
I1
sssI-1
(dp493
g15
(dp494
I0
I-1
sI1
I-1
sI-1
I-1
ssssssa(dp495
g2
F0.9914971760442179
sg12
(dp496
I0
(dp497
g3
(dp498
I0
I-1
sI1
(dp499
g15
(dp500
I0
I1
sI1
I1
sI-1
I1
sssI-1
(dp501
g15
(dp502
I0
I-1
sI1
I-1
sI-1
I-1
sssssI1
(dp503
g18
(dp504
I0
(dp505
g15
(dp506
I0
I1
sI1
I1
sI-1
I-1
sssI1
(dp507
g3
(dp508
I0
I-1
sI1
I1
sI-1
I-1
sssI-1
(dp509
g3
(dp510
I0
I-1
sI1
I1
sI-1
I-1
sssssI-1
(dp511
g3
(dp512
I0
I-1
sI1
(dp513
g15
(dp514
I0
I1
sI1
I1
sI-1
I1
sssI-1
(dp515
g15
(dp516
I0
I-1
sI1
I-1
sI-1
I-1
ssssssa(dp517
g2
F0.9946386890852216
sg12
(dp518
I0
(dp519
g3
(dp520
I0
I-1
sI1
(dp521
g15
(dp522
I0
I1
sI1
I1
sI-1
I1
sssI-1
(dp523
g15
(dp524
I0
I-1
sI1
I-1
sI-1
I-1
sssssI1
(dp525
g18
(dp526
I0
(dp527
g15
(dp528
I0
I1
sI1
I1
sI-1
I-1
sssI1
(dp529
g3
(dp530
I0
I-1
sI1
I1
sI-1
I-1
sssI-1
(dp531
g6
(dp532
I0
I1
sI1
I1
sI-1
I-1
sssssI-1
(dp533
g3
(dp534
I0
I-1
sI1
(dp535
g15
(dp536
I0
I1
sI1
I1
sI-1
I1
sssI-1
(dp537
g15
(dp538
I0
I-1
sI1
I-1
sI-1
I-1
ssssssa(dp539
g2
F0.9914971760442179
sg12
(dp540
I0
(dp541
g3
(dp542
I0
I-1
sI1
(dp543
g15
(dp544
I0
I1
sI1
I1
sI-1
I1
sssI-1
(dp545
g15
(dp546
I0
I-1
sI1
I-1
sI-1
I-1
sssssI1
(dp547
g18
(dp548
I0
(dp549
g15
(dp550
I0
I1
sI1
I1
sI-1
I-1
sssI1
(dp551
g3
(dp552
I0
I-1
sI1
I1
sI-1
I-1
sssI-1
(dp553
g3
(dp554
I0
I-1
sI1
I1
sI-1
I-1
sssssI-1
(dp555
g3
(dp556
I0
I-1
sI1
(dp557
g15
(dp558
I0
I1
sI1
I1
sI-1
I1
sssI-1
(dp559
g15
(dp560
I0
I-1
sI1
I-1
sI-1
I-1
ssssssa(dp561
g2
F0.9946386890852216
sg12
(dp562
I0
(dp563
g3
(dp564
I0
I-1
sI1
(dp565
g15
(dp566
I0
I1
sI1
I1
sI-1
I1
sssI-1
(dp567
g15
(dp568
I0
I-1
sI1
I-1
sI-1
I-1
sssssI1
(dp569
g18
(dp570
I0
(dp571
g15
(dp572
I0
I1
sI1
I1
sI-1
I-1
sssI1
(dp573
g3
(dp574
I0
I-1
sI1
I1
sI-1
I-1
sssI-1
(dp575
g6
(dp576
I0
I1
sI1
I1
sI-1
I-1
sssssI-1
(dp577
g3
(dp578
I0
I-1
sI1
(dp579
g15
(dp580
I0
I1
sI1
I1
sI-1
I1
sssI-1
(dp581
g15
(dp582
I0
I-1
sI1
I-1
sI-1
I-1
ssssssa(dp583
g2
F0.9914971760442179
sg12
(dp584
I0
(dp585
g3
(dp586
I0
I-1
sI1
(dp587
g15
(dp588
I0
I1
sI1
I1
sI-1
I1
sssI-1
(dp589
g15
(dp590
I0
I-1
sI1
I-1
sI-1
I-1
sssssI1
(dp591
g18
(dp592
I0
(dp593
g15
(dp594
I0
I1
sI1
I1
sI-1
I-1
sssI1
(dp595
g3
(dp596
I0
I-1
sI1
I1
sI-1
I-1
sssI-1
(dp597
g3
(dp598
I0
I-1
sI1
I1
sI-1
I-1
sssssI-1
(dp599
g3
(dp600
I0
I-1
sI1
(dp601
g15
(dp602
I0
I1
sI1
I1
sI-1
I1
sssI-1
(dp603
g15
(dp604
I0
I-1
sI1
I-1
sI-1
I-1
ssssssa(dp605
g2
F0.9946386890852216
sg12
(dp606
I0
(dp607
g3
(dp608
I0
I-1
sI1
(dp609
g15
(dp610
I0
I1
sI1
I1
sI-1
I1
sssI-1
(dp611
g15
(dp612
I0
I-1
sI1
I-1
sI-1
I-1
sssssI1
(dp613
g18
(dp614
I0
(dp615
g15
(dp616
I0
I1
sI1
I1
sI-1
I-1
sssI1
(dp617
g3
(dp618
I0
I-1
sI1
I1
sI-1
I-1
sssI-1
(dp619
g6
(dp620
I0
I1
sI1
I1
sI-1
I-1
sssssI-1
(dp621
g3
(dp622
I0
I-1
sI1
(dp623
g15
(dp624
I0
I1
sI1
I1
sI-1
I1
sssI-1
(dp625
g15
(dp626
I0
I-1
sI1
I-1
sI-1
I-1
ssssssa(dp627
g2
F0.9914971760442179
sg12
(dp628
I0
(dp629
g3
(dp630
I0
I-1
sI1
(dp631
g15
(dp632
I0
I1
sI1
I1
sI-1
I1
sssI-1
(dp633
g15
(dp634
I0
I-1
sI1
I-1
sI-1
I-1
sssssI1
(dp635
g18
(dp636
I0
(dp637
g15
(dp638
I0
I1
sI1
I1
sI-1
I-1
sssI1
(dp639
g3
(dp640
I0
I-1
sI1
I1
sI-1
I-1
sssI-1
(dp641
g3
(dp642
I0
I-1
sI1
I1
sI-1
I-1
sssssI-1
(dp643
g3
(dp644
I0
I-1
sI1
(dp645
g15
(dp646
I0
I1
sI1
I1
sI-1
I1
sssI-1
(dp647
g15
(dp648
I0
I-1
sI1
I-1
sI-1
I-1
ssssssa(dp649
g2
F0.9946386890852216
sg12
(dp650
I0
(dp651
g3
(dp652
I0
I-1
sI1
(dp653
g15
(dp654
I0
I1
sI1
I1
sI-1
I1
sssI-1
(dp655
g15
(dp656
I0
I-1
sI1
I-1
sI-1
I-1
sssssI1
(dp657
g18
(dp658
I0
(dp659
g15
(dp660
I0
I1
sI1
I1
sI-1
I-1
sssI1
(dp661
g3
(dp662
I0
I-1
sI1
I1
sI-1
I-1
sssI-1
(dp663
g6
(dp664
I0
I1
sI1
I1
sI-1
I-1
sssssI-1
(dp665
g3
(dp666
I0
I-1
sI1
(dp667
g15
(dp668
I0
I1
sI1
I1
sI-1
I1
sssI-1
(dp669
g15
(dp670
I0
I-1
sI1
I-1
sI-1
I-1
ssssssa(dp671
g2
F0.9914971760442179
sg12
(dp672
I0
(dp673
g3
(dp674
I0
I-1
sI1
(dp675
g15
(dp676
I0
I1
sI1
I1
sI-1
I1
sssI-1
(dp677
g15
(dp678
I0
I-1
sI1
I-1
sI-1
I-1
sssssI1
(dp679
g18
(dp680
I0
(dp681
g15
(dp682
I0
I1
sI1
I1
sI-1
I-1
sssI1
(dp683
g3
(dp684
I0
I-1
sI1
I1
sI-1
I-1
sssI-1
(dp685
g3
(dp686
I0
I-1
sI1
I1
sI-1
I-1
sssssI-1
(dp687
g3
(dp688
I0
I-1
sI1
(dp689
g15
(dp690
I0
I1
sI1
I1
sI-1
I1
sssI-1
(dp691
g15
(dp692
I0
I-1
sI1
I-1
sI-1
I-1
ssssssa(dp693
g2
F0.9946386890852216
sg12
(dp694
I0
(dp695
g3
(dp696
I0
I-1
sI1
(dp697
g15
(dp698
I0
I1
sI1
I1
sI-1
I1
sssI-1
(dp699
g15
(dp700
I0
I-1
sI1
I-1
sI-1
I-1
sssssI1
(dp701
g18
(dp702
I0
(dp703
g15
(dp704
I0
I1
sI1
I1
sI-1
I-1
sssI1
(dp705
g3
(dp706
I0
I-1
sI1
I1
sI-1
I-1
sssI-1
(dp707
g6
(dp708
I0
I1
sI1
I1
sI-1
I-1
sssssI-1
(dp709
g3
(dp710
I0
I-1
sI1
(dp711
g15
(dp712
I0
I1
sI1
I1
sI-1
I1
sssI-1
(dp713
g15
(dp714
I0
I-1
sI1
I-1
sI-1
I-1
ssssssa(dp715
g2
F0.9914971760442179
sg12
(dp716
I0
(dp717
g3
(dp718
I0
I-1
sI1
(dp719
g15
(dp720
I0
I1
sI1
I1
sI-1
I1
sssI-1
(dp721
g15
(dp722
I0
I-1
sI1
I-1
sI-1
I-1
sssssI1
(dp723
g18
(dp724
I0
(dp725
g15
(dp726
I0
I1
sI1
I1
sI-1
I-1
sssI1
(dp727
g3
(dp728
I0
I-1
sI1
I1
sI-1
I-1
sssI-1
(dp729
g3
(dp730
I0
I-1
sI1
I1
sI-1
I-1
sssssI-1
(dp731
g3
(dp732
I0
I-1
sI1
(dp733
g15
(dp734
I0
I1
sI1
I1
sI-1
I1
sssI-1
(dp735
g15
(dp736
I0
I-1
sI1
I-1
sI-1
I-1
ssssssa(dp737
g2
F0.9946386890852216
sg12
(dp738
I0
(dp739
g3
(dp740
I0
I-1
sI1
(dp741
g15
(dp742
I0
I1
sI1
I1
sI-1
I1
sssI-1
(dp743
g15
(dp744
I0
I-1
sI1
I-1
sI-1
I-1
sssssI1
(dp745
g18
(dp746
I0
(dp747
g15
(dp748
I0
I1
sI1
I1
sI-1
I-1
sssI1
(dp749
g3
(dp750
I0
I-1
sI1
I1
sI-1
I-1
sssI-1
(dp751
g6
(dp752
I0
I1
sI1
I1
sI-1
I-1
sssssI-1
(dp753
g3
(dp754
I0
I-1
sI1
(dp755
g15
(dp756
I0
I1
sI1
I1
sI-1
I1
sssI-1
(dp757
g15
(dp758
I0
I-1
sI1
I-1
sI-1
I-1
ssssssa(dp759
g2
F0.9914971760442179
sg12
(dp760
I0
(dp761
g3
(dp762
I0
I-1
sI1
(dp763
g15
(dp764
I0
I1
sI1
I1
sI-1
I1
sssI-1
(dp765
g15
(dp766
I0
I-1
sI1
I-1
sI-1
I-1
sssssI1
(dp767
g18
(dp768
I0
(dp769
g15
(dp770
I0
I1
sI1
I1
sI-1
I-1
sssI1
(dp771
g3
(dp772
I0
I-1
sI1
I1
sI-1
I-1
sssI-1
(dp773
g3
(dp774
I0
I-1
sI1
I1
sI-1
I-1
sssssI-1
(dp775
g3
(dp776
I0
I-1
sI1
(dp777
g15
(dp778
I0
I1
sI1
I1
sI-1
I1
sssI-1
(dp779
g15
(dp780
I0
I-1
sI1
I-1
sI-1
I-1
ssssssa(dp781
g2
F0.9946386890852216
sg12
(dp782
I0
(dp783
g3
(dp784
I0
I-1
sI1
(dp785
g15
(dp786
I0
I1
sI1
I1
sI-1
I1
sssI-1
(dp787
g15
(dp788
I0
I-1
sI1
I-1
sI-1
I-1
sssssI1
(dp789
g18
(dp790
I0
(dp791
g15
(dp792
I0
I1
sI1
I1
sI-1
I-1
sssI1
(dp793
g3
(dp794
I0
I-1
sI1
I1
sI-1
I-1
sssI-1
(dp795
g6
(dp796
I0
I1
sI1
I1
sI-1
I-1
sssssI-1
(dp797
g3
(dp798
I0
I-1
sI1
(dp799
g15
(dp800
I0
I1
sI1
I1
sI-1
I1
sssI-1
(dp801
g15
(dp802
I0
I-1
sI1
I-1
sI-1
I-1
ssssssa(dp803
g2
F0.9914971760442179
sg12
(dp804
I0
(dp805
g3
(dp806
I0
I-1
sI1
(dp807
g15
(dp808
I0
I1
sI1
I1
sI-1
I1
sssI-1
(dp809
g15
(dp810
I0
I-1
sI1
I-1
sI-1
I-1
sssssI1
(dp811
g18
(dp812
I0
(dp813
g15
(dp814
I0
I1
sI1
I1
sI-1
I-1
sssI1
(dp815
g3
(dp816
I0
I-1
sI1
I1
sI-1
I-1
sssI-1
(dp817
g3
(dp818
I0
I-1
sI1
I1
sI-1
I-1
sssssI-1
(dp819
g3
(dp820
I0
I-1
sI1
(dp821
g15
(dp822
I0
I1
sI1
I1
sI-1
I1
sssI-1
(dp823
g15
(dp824
I0
I-1
sI1
I-1
sI-1
I-1
ssssssa(dp825
g2
F0.9946386890852216
sg12
(dp826
I0
(dp827
g3
(dp828
I0
I-1
sI1
(dp829
g15
(dp830
I0
I1
sI1
I1
sI-1
I1
sssI-1
(dp831
g15
(dp832
I0
I-1
sI1
I-1
sI-1
I-1
sssssI1
(dp833
g18
(dp834
I0
(dp835
g15
(dp836
I0
I1
sI1
I1
sI-1
I-1
sssI1
(dp837
g3
(dp838
I0
I-1
sI1
I1
sI-1
I-1
sssI-1
(dp839
g6
(dp840
I0
I1
sI1
I1
sI-1
I-1
sssssI-1
(dp841
g3
(dp842
I0
I-1
sI1
(dp843
g15
(dp844
I0
I1
sI1
I1
sI-1
I1
sssI-1
(dp845
g15
(dp846
I0
I-1
sI1
I-1
sI-1
I-1
ssssssa(dp847
g2
F0.9914971760442179
sg12
(dp848
I0
(dp849
g3
(dp850
I0
I-1
sI1
(dp851
g15
(dp852
I0
I1
sI1
I1
sI-1
I1
sssI-1
(dp853
g15
(dp854
I0
I-1
sI1
I-1
sI-1
I-1
sssssI1
(dp855
g18
(dp856
I0
(dp857
g15
(dp858
I0
I1
sI1
I1
sI-1
I-1
sssI1
(dp859
g3
(dp860
I0
I-1
sI1
I1
sI-1
I-1
sssI-1
(dp861
g3
(dp862
I0
I-1
sI1
I1
sI-1
I-1
sssssI-1
(dp863
g3
(dp864
I0
I-1
sI1
(dp865
g15
(dp866
I0
I1
sI1
I1
sI-1
I1
sssI-1
(dp867
g15
(dp868
I0
I-1
sI1
I-1
sI-1
I-1
ssssssa(dp869
g2
F0.9946386890852216
sg12
(dp870
I0
(dp871
g3
(dp872
I0
I-1
sI1
(dp873
g15
(dp874
I0
I1
sI1
I1
sI-1
I1
sssI-1
(dp875
g15
(dp876
I0
I-1
sI1
I-1
sI-1
I-1
sssssI1
(dp877
g18
(dp878
I0
(dp879
g15
(dp880
I0
I1
sI1
I1
sI-1
I-1
sssI1
(dp881
g3
(dp882
I0
I-1
sI1
I1
sI-1
I-1
sssI-1
(dp883
g6
(dp884
I0
I1
sI1
I1
sI-1
I-1
sssssI-1
(dp885
g3
(dp886
I0
I-1
sI1
(dp887
g15
(dp888
I0
I1
sI1
I1
sI-1
I1
sssI-1
(dp889
g15
(dp890
I0
I-1
sI1
I-1
sI-1
I-1
ssssssa(dp891
g2
F0.9914971760442179
sg12
(dp892
I0
(dp893
g3
(dp894
I0
I-1
sI1
(dp895
g15
(dp896
I0
I1
sI1
I1
sI-1
I1
sssI-1
(dp897
g15
(dp898
I0
I-1
sI1
I-1
sI-1
I-1
sssssI1
(dp899
g18
(dp900
I0
(dp901
g15
(dp902
I0
I1
sI1
I1
sI-1
I-1
sssI1
(dp903
g3
(dp904
I0
I-1
sI1
I1
sI-1
I-1
sssI-1
(dp905
g3
(dp906
I0
I-1
sI1
I1
sI-1
I-1
sssssI-1
(dp907
g3
(dp908
I0
I-1
sI1
(dp909
g15
(dp910
I0
I1
sI1
I1
sI-1
I1
sssI-1
(dp911
g15
(dp912
I0
I-1
sI1
I-1
sI-1
I-1
ssssssa(dp913
g2
F0.9946386890852216
sg12
(dp914
I0
(dp915
g3
(dp916
I0
I-1
sI1
(dp917
g15
(dp918
I0
I1
sI1
I1
sI-1
I1
sssI-1
(dp919
g15
(dp920
I0
I-1
sI1
I-1
sI-1
I-1
sssssI1
(dp921
g18
(dp922
I0
(dp923
g15
(dp924
I0
I1
sI1
I1
sI-1
I-1
sssI1
(dp925
g3
(dp926
I0
I-1
sI1
I1
sI-1
I-1
sssI-1
(dp927
g6
(dp928
I0
I1
sI1
I1
sI-1
I-1
sssssI-1
(dp929
g3
(dp930
I0
I-1
sI1
(dp931
g15
(dp932
I0
I1
sI1
I1
sI-1
I1
sssI-1
(dp933
g15
(dp934
I0
I-1
sI1
I-1
sI-1
I-1
ssssssa(dp935
g2
F0.9914971760442179
sg12
(dp936
I0
(dp937
g3
(dp938
I0
I-1
sI1
(dp939
g15
(dp940
I0
I1
sI1
I1
sI-1
I1
sssI-1
(dp941
g15
(dp942
I0
I-1
sI1
I-1
sI-1
I-1
sssssI1
(dp943
g18
(dp944
I0
(dp945
g15
(dp946
I0
I1
sI1
I1
sI-1
I-1
sssI1
(dp947
g3
(dp948
I0
I-1
sI1
I1
sI-1
I-1
sssI-1
(dp949
g3
(dp950
I0
I-1
sI1
I1
sI-1
I-1
sssssI-1
(dp951
g3
(dp952
I0
I-1
sI1
(dp953
g15
(dp954
I0
I1
sI1
I1
sI-1
I1
sssI-1
(dp955
g15
(dp956
I0
I-1
sI1
I-1
sI-1
I-1
ssssssa(dp957
g2
F0.9946386890852216
sg12
(dp958
I0
(dp959
g3
(dp960
I0
I-1
sI1
(dp961
g15
(dp962
I0
I1
sI1
I1
sI-1
I1
sssI-1
(dp963
g15
(dp964
I0
I-1
sI1
I-1
sI-1
I-1
sssssI1
(dp965
g18
(dp966
I0
(dp967
g15
(dp968
I0
I1
sI1
I1
sI-1
I-1
sssI1
(dp969
g3
(dp970
I0
I-1
sI1
I1
sI-1
I-1
sssI-1
(dp971
g6
(dp972
I0
I1
sI1
I1
sI-1
I-1
sssssI-1
(dp973
g3
(dp974
I0
I-1
sI1
(dp975
g15
(dp976
I0
I1
sI1
I1
sI-1
I1
sssI-1
(dp977
g15
(dp978
I0
I-1
sI1
I-1
sI-1
I-1
ssssssa(dp979
g2
F0.9914971760442179
sg12
(dp980
I0
(dp981
g3
(dp982
I0
I-1
sI1
(dp983
g15
(dp984
I0
I1
sI1
I1
sI-1
I1
sssI-1
(dp985
g15
(dp986
I0
I-1
sI1
I-1
sI-1
I-1
sssssI1
(dp987
g18
(dp988
I0
(dp989
g15
(dp990
I0
I1
sI1
I1
sI-1
I-1
sssI1
(dp991
g3
(dp992
I0
I-1
sI1
I1
sI-1
I-1
sssI-1
(dp993
g3
(dp994
I0
I-1
sI1
I1
sI-1
I-1
sssssI-1
(dp995
g3
(dp996
I0
I-1
sI1
(dp997
g15
(dp998
I0
I1
sI1
I1
sI-1
I1
sssI-1
(dp999
g15
(dp1000
I0
I-1
sI1
I-1
sI-1
I-1
ssssssa(dp1001
g2
F0.9946386890852216
sg12
(dp1002
I0
(dp1003
g3
(dp1004
I0
I-1
sI1
(dp1005
g15
(dp1006
I0
I1
sI1
I1
sI-1
I1
sssI-1
(dp1007
g15
(dp1008
I0
I-1
sI1
I-1
sI-1
I-1
sssssI1
(dp1009
g18
(dp1010
I0
(dp1011
g15
(dp1012
I0
I1
sI1
I1
sI-1
I-1
sssI1
(dp1013
g3
(dp1014
I0
I-1
sI1
I1
sI-1
I-1
sssI-1
(dp1015
g6
(dp1016
I0
I1
sI1
I1
sI-1
I-1
sssssI-1
(dp1017
g3
(dp1018
I0
I-1
sI1
(dp1019
g15
(dp1020
I0
I1
sI1
I1
sI-1
I1
sssI-1
(dp1021
g15
(dp1022
I0
I-1
sI1
I-1
sI-1
I-1
ssssssa(dp1023
g2
F0.9914971760442179
sg12
(dp1024
I0
(dp1025
g3
(dp1026
I0
I-1
sI1
(dp1027
g15
(dp1028
I0
I1
sI1
I1
sI-1
I1
sssI-1
(dp1029
g15
(dp1030
I0
I-1
sI1
I-1
sI-1
I-1
sssssI1
(dp1031
g18
(dp1032
I0
(dp1033
g15
(dp1034
I0
I1
sI1
I1
sI-1
I-1
sssI1
(dp1035
g3
(dp1036
I0
I-1
sI1
I1
sI-1
I-1
sssI-1
(dp1037
g3
(dp1038
I0
I-1
sI1
I1
sI-1
I-1
sssssI-1
(dp1039
g3
(dp1040
I0
I-1
sI1
(dp1041
g15
(dp1042
I0
I1
sI1
I1
sI-1
I1
sssI-1
(dp1043
g15
(dp1044
I0
I-1
sI1
I-1
sI-1
I-1
ssssssa(dp1045
g2
F0.9946386890852216
sg12
(dp1046
I0
(dp1047
g3
(dp1048
I0
I-1
sI1
(dp1049
g15
(dp1050
I0
I1
sI1
I1
sI-1
I1
sssI-1
(dp1051
g15
(dp1052
I0
I-1
sI1
I-1
sI-1
I-1
sssssI1
(dp1053
g18
(dp1054
I0
(dp1055
g15
(dp1056
I0
I1
sI1
I1
sI-1
I-1
sssI1
(dp1057
g3
(dp1058
I0
I-1
sI1
I1
sI-1
I-1
sssI-1
(dp1059
g6
(dp1060
I0
I1
sI1
I1
sI-1
I-1
sssssI-1
(dp1061
g3
(dp1062
I0
I-1
sI1
(dp1063
g15
(dp1064
I0
I1
sI1
I1
sI-1
I1
sssI-1
(dp1065
g15
(dp1066
I0
I-1
sI1
I-1
sI-1
I-1
ssssssa(dp1067
g2
F0.9914971760442179
sg12
(dp1068
I0
(dp1069
g3
(dp1070
I0
I-1
sI1
(dp1071
g15
(dp1072
I0
I1
sI1
I1
sI-1
I1
sssI-1
(dp1073
g15
(dp1074
I0
I-1
sI1
I-1
sI-1
I-1
sssssI1
(dp1075
g18
(dp1076
I0
(dp1077
g15
(dp1078
I0
I1
sI1
I1
sI-1
I-1
sssI1
(dp1079
g3
(dp1080
I0
I-1
sI1
I1
sI-1
I-1
sssI-1
(dp1081
g3
(dp1082
I0
I-1
sI1
I1
sI-1
I-1
sssssI-1
(dp1083
g3
(dp1084
I0
I-1
sI1
(dp1085
g15
(dp1086
I0
I1
sI1
I1
sI-1
I1
sssI-1
(dp1087
g15
(dp1088
I0
I-1
sI1
I-1
sI-1
I-1
ssssssa(dp1089
g2
F0.9946386890852216
sg12
(dp1090
I0
(dp1091
g3
(dp1092
I0
I-1
sI1
(dp1093
g15
(dp1094
I0
I1
sI1
I1
sI-1
I1
sssI-1
(dp1095
g15
(dp1096
I0
I-1
sI1
I-1
sI-1
I-1
sssssI1
(dp1097
g18
(dp1098
I0
(dp1099
g15
(dp1100
I0
I1
sI1
I1
sI-1
I-1
sssI1
(dp1101
g3
(dp1102
I0
I-1
sI1
I1
sI-1
I-1
sssI-1
(dp1103
g6
(dp1104
I0
I1
sI1
I1
sI-1
I-1
sssssI-1
(dp1105
g3
(dp1106
I0
I-1
sI1
(dp1107
g15
(dp1108
I0
I1
sI1
I1
sI-1
I1
sssI-1
(dp1109
g15
(dp1110
I0
I-1
sI1
I-1
sI-1
I-1
ssssssa(dp1111
g2
F0.9914971760442179
sg12
(dp1112
I0
(dp1113
g3
(dp1114
I0
I-1
sI1
(dp1115
g15
(dp1116
I0
I1
sI1
I1
sI-1
I1
sssI-1
(dp1117
g15
(dp1118
I0
I-1
sI1
I-1
sI-1
I-1
sssssI1
(dp1119
g18
(dp1120
I0
(dp1121
g15
(dp1122
I0
I1
sI1
I1
sI-1
I-1
sssI1
(dp1123
g3
(dp1124
I0
I-1
sI1
I1
sI-1
I-1
sssI-1
(dp1125
g3
(dp1126
I0
I-1
sI1
I1
sI-1
I-1
sssssI-1
(dp1127
g3
(dp1128
I0
I-1
sI1
(dp1129
g15
(dp1130
I0
I1
sI1
I1
sI-1
I1
sssI-1
(dp1131
g15
(dp1132
I0
I-1
sI1
I-1
sI-1
I-1
ssssssa(dp1133
g2
F0.9946386890852216
sg12
(dp1134
I0
(dp1135
g3
(dp1136
I0
I-1
sI1
(dp1137
g15
(dp1138
I0
I1
sI1
I1
sI-1
I1
sssI-1
(dp1139
g15
(dp1140
I0
I-1
sI1
I-1
sI-1
I-1
sssssI1
(dp1141
g18
(dp1142
I0
(dp1143
g15
(dp1144
I0
I1
sI1
I1
sI-1
I-1
sssI1
(dp1145
g3
(dp1146
I0
I-1
sI1
I1
sI-1
I-1
sssI-1
(dp1147
g6
(dp1148
I0
I1
sI1
I1
sI-1
I-1
sssssI-1
(dp1149
g3
(dp1150
I0
I-1
sI1
(dp1151
g15
(dp1152
I0
I1
sI1
I1
sI-1
I1
sssI-1
(dp1153
g15
(dp1154
I0
I-1
sI1
I-1
sI-1
I-1
ssssssa(dp1155
g2
F0.9914971760442179
sg12
(dp1156
I0
(dp1157
g3
(dp1158
I0
I-1
sI1
(dp1159
g15
(dp1160
I0
I1
sI1
I1
sI-1
I1
sssI-1
(dp1161
g15
(dp1162
I0
I-1
sI1
I-1
sI-1
I-1
sssssI1
(dp1163
g18
(dp1164
I0
(dp1165
g15
(dp1166
I0
I1
sI1
I1
sI-1
I-1
sssI1
(dp1167
g3
(dp1168
I0
I-1
sI1
I1
sI-1
I-1
sssI-1
(dp1169
g3
(dp1170
I0
I-1
sI1
I1
sI-1
I-1
sssssI-1
(dp1171
g3
(dp1172
I0
I-1
sI1
(dp1173
g15
(dp1174
I0
I1
sI1
I1
sI-1
I1
sssI-1
(dp1175
g15
(dp1176
I0
I-1
sI1
I-1
sI-1
I-1
ssssssa(dp1177
g2
F0.9946386890852216
sg12
(dp1178
I0
(dp1179
g3
(dp1180
I0
I-1
sI1
(dp1181
g15
(dp1182
I0
I1
sI1
I1
sI-1
I1
sssI-1
(dp1183
g15
(dp1184
I0
I-1
sI1
I-1
sI-1
I-1
sssssI1
(dp1185
g18
(dp1186
I0
(dp1187
g15
(dp1188
I0
I1
sI1
I1
sI-1
I-1
sssI1
(dp1189
g3
(dp1190
I0
I-1
sI1
I1
sI-1
I-1
sssI-1
(dp1191
g6
(dp1192
I0
I1
sI1
I1
sI-1
I-1
sssssI-1
(dp1193
g3
(dp1194
I0
I-1
sI1
(dp1195
g15
(dp1196
I0
I1
sI1
I1
sI-1
I1
sssI-1
(dp1197
g15
(dp1198
I0
I-1
sI1
I-1
sI-1
I-1
ssssssa(dp1199
g2
F0.9914971760442179
sg12
(dp1200
I0
(dp1201
g3
(dp1202
I0
I-1
sI1
(dp1203
g15
(dp1204
I0
I1
sI1
I1
sI-1
I1
sssI-1
(dp1205
g15
(dp1206
I0
I-1
sI1
I-1
sI-1
I-1
sssssI1
(dp1207
g18
(dp1208
I0
(dp1209
g15
(dp1210
I0
I1
sI1
I1
sI-1
I-1
sssI1
(dp1211
g3
(dp1212
I0
I-1
sI1
I1
sI-1
I-1
sssI-1
(dp1213
g3
(dp1214
I0
I-1
sI1
I1
sI-1
I-1
sssssI-1
(dp1215
g3
(dp1216
I0
I-1
sI1
(dp1217
g15
(dp1218
I0
I1
sI1
I1
sI-1
I1
sssI-1
(dp1219
g15
(dp1220
I0
I-1
sI1
I-1
sI-1
I-1
ssssssa(dp1221
g2
F0.9946386890852216
sg12
(dp1222
I0
(dp1223
g3
(dp1224
I0
I-1
sI1
(dp1225
g15
(dp1226
I0
I1
sI1
I1
sI-1
I1
sssI-1
(dp1227
g15
(dp1228
I0
I-1
sI1
I-1
sI-1
I-1
sssssI1
(dp1229
g18
(dp1230
I0
(dp1231
g15
(dp1232
I0
I1
sI1
I1
sI-1
I-1
sssI1
(dp1233
g3
(dp1234
I0
I-1
sI1
I1
sI-1
I-1
sssI-1
(dp1235
g6
(dp1236
I0
I1
sI1
I1
sI-1
I-1
sssssI-1
(dp1237
g3
(dp1238
I0
I-1
sI1
(dp1239
g15
(dp1240
I0
I1
sI1
I1
sI-1
I1
sssI-1
(dp1241
g15
(dp1242
I0
I-1
sI1
I-1
sI-1
I-1
ssssssa(dp1243
g2
F0.9914971760442179
sg12
(dp1244
I0
(dp1245
g3
(dp1246
I0
I-1
sI1
(dp1247
g15
(dp1248
I0
I1
sI1
I1
sI-1
I1
sssI-1
(dp1249
g15
(dp1250
I0
I-1
sI1
I-1
sI-1
I-1
sssssI1
(dp1251
g18
(dp1252
I0
(dp1253
g15
(dp1254
I0
I1
sI1
I1
sI-1
I-1
sssI1
(dp1255
g3
(dp1256
I0
I-1
sI1
I1
sI-1
I-1
sssI-1
(dp1257
g3
(dp1258
I0
I-1
sI1
I1
sI-1
I-1
sssssI-1
(dp1259
g3
(dp1260
I0
I-1
sI1
(dp1261
g15
(dp1262
I0
I1
sI1
I1
sI-1
I1
sssI-1
(dp1263
g15
(dp1264
I0
I-1
sI1
I-1
sI-1
I-1
ssssssa(dp1265
g2
F0.9946386890852216
sg12
(dp1266
I0
(dp1267
g3
(dp1268
I0
I-1
sI1
(dp1269
g15
(dp1270
I0
I1
sI1
I1
sI-1
I1
sssI-1
(dp1271
g15
(dp1272
I0
I-1
sI1
I-1
sI-1
I-1
sssssI1
(dp1273
g18
(dp1274
I0
(dp1275
g15
(dp1276
I0
I1
sI1
I1
sI-1
I-1
sssI1
(dp1277
g3
(dp1278
I0
I-1
sI1
I1
sI-1
I-1
sssI-1
(dp1279
g6
(dp1280
I0
I1
sI1
I1
sI-1
I-1
sssssI-1
(dp1281
g3
(dp1282
I0
I-1
sI1
(dp1283
g15
(dp1284
I0
I1
sI1
I1
sI-1
I1
sssI-1
(dp1285
g15
(dp1286
I0
I-1
sI1
I-1
sI-1
I-1
ssssssa(dp1287
g2
F0.9914971760442179
sg12
(dp1288
I0
(dp1289
g3
(dp1290
I0
I-1
sI1
(dp1291
g15
(dp1292
I0
I1
sI1
I1
sI-1
I1
sssI-1
(dp1293
g15
(dp1294
I0
I-1
sI1
I-1
sI-1
I-1
sssssI1
(dp1295
g18
(dp1296
I0
(dp1297
g15
(dp1298
I0
I1
sI1
I1
sI-1
I-1
sssI1
(dp1299
g3
(dp1300
I0
I-1
sI1
I1
sI-1
I-1
sssI-1
(dp1301
g3
(dp1302
I0
I-1
sI1
I1
sI-1
I-1
sssssI-1
(dp1303
g3
(dp1304
I0
I-1
sI1
(dp1305
g15
(dp1306
I0
I1
sI1
I1
sI-1
I1
sssI-1
(dp1307
g15
(dp1308
I0
I-1
sI1
I-1
sI-1
I-1
ssssssa(dp1309
g2
F0.9946386890852216
sg12
(dp1310
I0
(dp1311
g3
(dp1312
I0
I-1
sI1
(dp1313
g15
(dp1314
I0
I1
sI1
I1
sI-1
I1
sssI-1
(dp1315
g15
(dp1316
I0
I-1
sI1
I-1
sI-1
I-1
sssssI1
(dp1317
g18
(dp1318
I0
(dp1319
g15
(dp1320
I0
I1
sI1
I1
sI-1
I-1
sssI1
(dp1321
g3
(dp1322
I0
I-1
sI1
I1
sI-1
I-1
sssI-1
(dp1323
g6
(dp1324
I0
I1
sI1
I1
sI-1
I-1
sssssI-1
(dp1325
g3
(dp1326
I0
I-1
sI1
(dp1327
g15
(dp1328
I0
I1
sI1
I1
sI-1
I1
sssI-1
(dp1329
g15
(dp1330
I0
I-1
sI1
I-1
sI-1
I-1
ssssssa.