(lp0
(dp1
S'alpha'
p2
F1.1004668902009647
sS'SSLfinal_State'
p3
(dp4
I0
(dp5
S'URL_of_Anchor'
p6
(dp7
I0
(dp8
S'Links_pointing_to_page'
p9
(dp10
I0
I-1
sI1
I-1
sI-1
I1
sssI1
I-1
sI-1
I-1
sssI1
(dp11
S'having_Sub_Domain'
p12
(dp13
I0
(dp14
S'web_traffic'
p15
(dp16
I0
I-1
sI1
I1
sI-1
I1
sssI1
(dp17
g15
(dp18
I0
I1
sI1
I1
sI-1
I1
sssI-1
(dp19
S'Links_in_tags'
p20
(dp21
I0
I1
sI1
I1
sI-1
I1
sssssI-1
(dp22
g6
(dp23
I0
(dp24
g12
(dp25
I0
I-1
sI1
I-1
sI-1
I-1
sssI1
(dp26
g20
(dp27
I0
I1
sI1
I1
sI-1
I-1
sssI-1
I-1
ssssa(dp28
g2
F1.0803620875583464
sg3
(dp29
I0
(dp30
g6
(dp31
I0
(dp32
g9
(dp33
I0
I-1
sI1
I-1
sI-1
I1
sssI1
I-1
sI-1
I-1
sssI1
(dp34
g12
(dp35
I0
(dp36
g15
(dp37
I0
I-1
sI1
I1
sI-1
I1
sssI1
(dp38
g15
(dp39
I0
I1
sI1
I1
sI-1
I1
sssI-1
(dp40
g15
(dp41
I0
I-1
sI1
I1
sI-1
I1
sssssI-1
(dp42
g12
(dp43
I0
(dp44
g6
(dp45
I0
I-1
sI1
I1
sI-1
I-1
sssI1
(dp46
g20
(dp47
I0
I-1
sI1
I-1
sI-1
I-1
sssI-1
(dp48
g6
(dp49
I0
I-1
sI1
I-1
sI-1
I-1
ssssssa(dp50
g2
F1.0352364358485378
sg3
(dp51
I0
(dp52
g9
(dp53
I0
(dp54
g6
(dp55
I0
I-1
sI1
I-1
sI-1
I-1
sssI1
I-1
sI-1
(dp56
g6
(dp57
I0
I1
sI-1
I-1
sssssI1
(dp58
g12
(dp59
I0
(dp60
g15
(dp61
I0
I-1
sI1
I1
sI-1
I1
sssI1
(dp62
g20
(dp63
I0
I1
sI1
I1
sI-1
I1
sssI-1
(dp64
g20
(dp65
I0
I1
sI1
I1
sI-1
I1
sssssI-1
(dp66
g12
(dp67
I0
(dp68
g20
(dp69
I0
I-1
sI1
I-1
sI-1
I-1
sssI1
(dp70
g20
(dp71
I0
I-1
sI1
I-1
sI-1
I-1
sssI-1
(dp72
g20
(dp73
I0
I-1
sI1
I-1
sI-1
I-1
ssssssa(dp74
g2
F0.8673005276940532
sg12
(dp75
I0
(dp76
g3
(dp77
I0
I-1
sI1
(dp78
g15
(dp79
I0
I-1
sI1
I1
sI-1
I1
sssI-1
(dp80
g20
(dp81
I0
I-1
sI1
I-1
sI-1
I-1
sssssI1
(dp82
g15
(dp83
I0
(dp84
g20
(dp85
I0
I1
sI1
I1
sI-1
I1
sssI1
(dp86
g3
(dp87
I0
I-1
sI1
I1
sI-1
I-1
sssI-1
(dp88
g6
(dp89
I0
I1
sI1
I1
sI-1
I-1
sssssI-1
(dp90
g20
(dp91
I0
(dp92
g6
(dp93
I0
I1
sI1
I1
sI-1
I-1
sssI1
(dp94
g6
(dp95
I0
I1
sI1
I1
sI-1
I-1
sssI-1
(dp96
g9
(dp97
I0
I-1
sI1
I-1
sI-1
I1
ssssssa(dp98
g2
F1.0285678920827688
sg3
(dp99
I0
(dp100
g20
(dp101
I0
(dp102
g9
(dp103
I0
I-1
sI1
I-1
sI-1
I1
sssI1
I-1
sI-1
(dp104
S'age_of_domain'
p105
(dp106
I1
I-1
sI-1
I-1
sssssI1
(dp107
g12
(dp108
I0
(dp109
g15
(dp110
I0
I-1
sI1
I1
sI-1
I1
sssI1
(dp111
g20
(dp112
I0
I1
sI1
I1
sI-1
I1
sssI-1
(dp113
g20
(dp114
I0
I1
sI1
I1
sI-1
I1
sssssI-1
(dp115
g12
(dp116
I0
(dp117
g20
(dp118
I0
I-1
sI1
I-1
sI-1
I-1
sssI1
(dp119
g20
(dp120
I0
I-1
sI1
I-1
sI-1
I-1
sssI-1
(dp121
g20
(dp122
I0
I-1
sI1
I-1
sI-1
I-1
ssssssa(dp123
g2
F1.0285678920827688
sg3
(dp124
I0
(dp125
g20
(dp126
I0
(dp127
g9
(dp128
I0
I-1
sI1
I-1
sI-1
I1
sssI1
I-1
sI-1
(dp129
g105
(dp130
I1
I-1
sI-1
I-1
sssssI1
(dp131
g12
(dp132
I0
(dp133
g15
(dp134
I0
I-1
sI1
I1
sI-1
I1
sssI1
(dp135
g20
(dp136
I0
I1
sI1
I1
sI-1
I1
sssI-1
(dp137
g20
(dp138
I0
I1
sI1
I1
sI-1
I1
sssssI-1
(dp139
g12
(dp140
I0
(dp141
g20
(dp142
I0
I-1
sI1
I-1
sI-1
I-1
sssI1
(dp143
g20
(dp144
I0
I-1
sI1
I-1
sI-1
I-1
sssI-1
(dp145
g20
(dp146
I0
I-1
sI1
I-1
sI-1
I-1
ssssssa(dp147
g2
F1.0252592511052927
sg3
(dp148
I0
(dp149
g20
(dp150
I0
(dp151
g6
(dp152
I0
I-1
sI1
I-1
sI-1
I-1
sssI1
I-1
sI-1
(dp153
g105
(dp154
I1
I-1
sI-1
I-1
sssssI1
(dp155
g12
(dp156
I0
(dp157
g15
(dp158
I0
I-1
sI1
I1
sI-1
I1
sssI1
(dp159
g20
(dp160
I0
I1
sI1
I1
sI-1
I1
sssI-1
(dp161
g20
(dp162
I0
I1
sI1
I1
sI-1
I1
sssssI-1
(dp163
g12
(dp164
I0
(dp165
g20
(dp166
I0
I-1
sI1
I-1
sI-1
I-1
sssI1
(dp167
g20
(dp168
I0
I-1
sI1
I-1
sI-1
I-1
sssI-1
(dp169
g20
(dp170
I0
I-1
sI1
I-1
sI-1
I-1
ssssssa(dp171
g2
F1.0285678920827688
sg3
(dp172
I0
(dp173
g20
(dp174
I0
(dp175
g9
(dp176
I0
I-1
sI1
I-1
sI-1
I1
sssI1
I-1
sI-1
(dp177
g105
(dp178
I1
I-1
sI-1
I-1
sssssI1
(dp179
g12
(dp180
I0
(dp181
g15
(dp182
I0
I-1
sI1
I1
sI-1
I1
sssI1
(dp183
g20
(dp184
I0
I1
sI1
I1
sI-1
I1
sssI-1
(dp185
g20
(dp186
I0
I1
sI1
I1
sI-1
I1
sssssI-1
(dp187
g12
(dp188
I0
(dp189
g20
(dp190
I0
I-1
sI1
I-1
sI-1
I-1
sssI1
(dp191
g20
(dp192
I0
I-1
sI1
I-1
sI-1
I-1
sssI-1
(dp193
g20
(dp194
I0
I-1
sI1
I-1
sI-1
I-1
ssssssa(dp195
g2
F1.0252592511052927
sg3
(dp196
I0
(dp197
g20
(dp198
I0
(dp199
g6
(dp200
I0
I-1
sI1
I-1
sI-1
I-1
sssI1
I-1
sI-1
(dp201
g105
(dp202
I1
I-1
sI-1
I-1
sssssI1
(dp203
g12
(dp204
I0
(dp205
g15
(dp206
I0
I-1
sI1
I1
sI-1
I1
sssI1
(dp207
g20
(dp208
I0
I1
sI1
I1
sI-1
I1
sssI-1
(dp209
g20
(dp210
I0
I1
sI1
I1
sI-1
I1
sssssI-1
(dp211
g12
(dp212
I0
(dp213
g20
(dp214
I0
I-1
sI1
I-1
sI-1
I-1
sssI1
(dp215
g20
(dp216
I0
I-1
sI1
I-1
sI-1
I-1
sssI-1
(dp217
g20
(dp218
I0
I-1
sI1
I-1
sI-1
I-1
ssssssa(dp219
g2
F1.0285678920827688
sg3
(dp220
I0
(dp221
g20
(dp222
I0
(dp223
g9
(dp224
I0
I-1
sI1
I-1
sI-1
I1
sssI1
I-1
sI-1
(dp225
g105
(dp226
I1
I-1
sI-1
I-1
sssssI1
(dp227
g12
(dp228
I0
(dp229
g15
(dp230
I0
I-1
sI1
I1
sI-1
I1
sssI1
(dp231
g20
(dp232
I0
I1
sI1
I1
sI-1
I1
sssI-1
(dp233
g20
(dp234
I0
I1
sI1
I1
sI-1
I1
sssssI-1
(dp235
g12
(dp236
I0
(dp237
g20
(dp238
I0
I-1
sI1
I-1
sI-1
I-1
sssI1
(dp239
g20
(dp240
I0
I-1
sI1
I-1
sI-1
I-1
sssI-1
(dp241
g20
(dp242
I0
I-1
sI1
I-1
sI-1
I-1
ssssssa.