(lp0
(dp1
S'alpha'
p2
F1.107940917470381
sS'SSLfinal_State'
p3
(dp4
I0
(dp5
S'URL_of_Anchor'
p6
(dp7
I0
(dp8
S'having_Sub_Domain'
p9
(dp10
I0
I-1
sI1
I1
sI-1
I-1
sssI1
I-1
sI-1
I-1
sssI1
(dp11
g9
(dp12
I0
(dp13
S'Links_in_tags'
p14
(dp15
I0
I1
sI1
I1
sI-1
I1
sssI1
(dp16
S'web_traffic'
p17
(dp18
I0
I1
sI1
I1
sI-1
I1
sssI-1
(dp19
g17
(dp20
I0
I-1
sI1
I1
sI-1
I1
sssssI-1
(dp21
g6
(dp22
I0
(dp23
g9
(dp24
I0
I-1
sI1
I-1
sI-1
I-1
sssI1
(dp25
g14
(dp26
I0
I1
sI1
I1
sI-1
I-1
sssI-1
I-1
ssssa(dp27
g2
F1.085781672612201
sg3
(dp28
I0
(dp29
g6
(dp30
I0
(dp31
g17
(dp32
I0
I-1
sI1
I-1
sI-1
I-1
sssI1
I-1
sI-1
I-1
sssI1
(dp33
g9
(dp34
I0
(dp35
g17
(dp36
I0
I-1
sI1
I1
sI-1
I1
sssI1
(dp37
g17
(dp38
I0
I1
sI1
I1
sI-1
I1
sssI-1
(dp39
g14
(dp40
I0
I1
sI1
I1
sI-1
I1
sssssI-1
(dp41
g9
(dp42
I0
(dp43
g6
(dp44
I0
I-1
sI1
I1
sI-1
I-1
sssI1
(dp45
g14
(dp46
I0
I-1
sI1
I-1
sI-1
I-1
sssI-1
(dp47
g14
(dp48
I0
I-1
sI1
I-1
sI-1
I-1
ssssssa(dp49
g2
F0.9160007927532442
sg9
(dp50
I0
(dp51
g6
(dp52
I0
(dp53
g14
(dp54
I0
I1
sI1
I1
sI-1
I-1
sssI1
(dp55
g17
(dp56
I0
I1
sI1
I1
sI-1
I-1
sssI-1
I-1
sssI1
(dp57
g17
(dp58
I0
(dp59
g14
(dp60
I0
I1
sI1
I1
sI-1
I1
sssI1
(dp61
g3
(dp62
I0
I-1
sI1
I1
sI-1
I-1
sssI-1
(dp63
g6
(dp64
I0
I1
sI1
I1
sI-1
I-1
sssssI-1
(dp65
g6
(dp66
I0
(dp67
g14
(dp68
I0
I1
sI1
I1
sI-1
I-1
sssI1
(dp69
g3
(dp70
I0
I-1
sI1
I1
sI-1
I-1
sssI-1
(dp71
S'Links_pointing_to_page'
p72
(dp73
I0
I-1
sI1
I-1
sI-1
I-1
ssssssa(dp74
g2
F0.9160007927532442
sg9
(dp75
I0
(dp76
g3
(dp77
I0
I-1
sI1
(dp78
g14
(dp79
I0
I1
sI1
I1
sI-1
I1
sssI-1
(dp80
g14
(dp81
I0
I-1
sI1
I-1
sI-1
I-1
sssssI1
(dp82
g17
(dp83
I0
(dp84
g14
(dp85
I0
I1
sI1
I1
sI-1
I1
sssI1
(dp86
g3
(dp87
I0
I-1
sI1
I1
sI-1
I-1
sssI-1
(dp88
g6
(dp89
I0
I1
sI1
I1
sI-1
I-1
sssssI-1
(dp90
g6
(dp91
I0
(dp92
g14
(dp93
I0
I1
sI1
I1
sI-1
I-1
sssI1
(dp94
g14
(dp95
I0
I1
sI1
I1
sI-1
I1
sssI-1
(dp96
S'Statistical_report'
p97
(dp98
I1
I-1
sI-1
I-1
ssssssa(dp99
g2
F0.9883705536964855
sg9
(dp100
I0
(dp101
g14
(dp102
I0
(dp103
g3
(dp104
I0
I-1
sI1
I1
sI-1
I-1
sssI1
(dp105
g6
(dp106
I0
I1
sI1
I1
sI-1
I-1
sssI-1
(dp107
g3
(dp108
I0
I-1
sI1
I1
sI-1
I-1
sssssI1
(dp109
g17
(dp110
I0
(dp111
g14
(dp112
I0
I1
sI1
I1
sI-1
I1
sssI1
(dp113
g3
(dp114
I0
I-1
sI1
I1
sI-1
I-1
sssI-1
(dp115
g3
(dp116
I0
I-1
sI1
I1
sI-1
I-1
sssssI-1
(dp117
g3
(dp118
I0
I-1
sI1
(dp119
g14
(dp120
I0
I1
sI1
I1
sI-1
I1
sssI-1
(dp121
g14
(dp122
I0
I-1
sI1
I-1
sI-1
I-1
ssssssa(dp123
g2
F0.9883705536964855
sg9
(dp124
I0
(dp125
g14
(dp126
I0
(dp127
g3
(dp128
I0
I-1
sI1
I1
sI-1
I-1
sssI1
(dp129
g6
(dp130
I0
I1
sI1
I1
sI-1
I-1
sssI-1
(dp131
g3
(dp132
I0
I-1
sI1
I1
sI-1
I-1
sssssI1
(dp133
g17
(dp134
I0
(dp135
g14
(dp136
I0
I1
sI1
I1
sI-1
I1
sssI1
(dp137
g3
(dp138
I0
I-1
sI1
I1
sI-1
I-1
sssI-1
(dp139
g6
(dp140
I0
I1
sI1
I1
sI-1
I-1
sssssI-1
(dp141
g3
(dp142
I0
I-1
sI1
(dp143
g14
(dp144
I0
I1
sI1
I1
sI-1
I1
sssI-1
(dp145
g14
(dp146
I0
I-1
sI1
I-1
sI-1
I-1
ssssssa(dp147
g2
F0.9883705536964855
sg9
(dp148
I0
(dp149
g14
(dp150
I0
(dp151
g3
(dp152
I0
I-1
sI1
I1
sI-1
I-1
sssI1
(dp153
g6
(dp154
I0
I1
sI1
I1
sI-1
I-1
sssI-1
(dp155
g3
(dp156
I0
I-1
sI1
I1
sI-1
I-1
sssssI1
(dp157
g17
(dp158
I0
(dp159
g14
(dp160
I0
I1
sI1
I1
sI-1
I1
sssI1
(dp161
g3
(dp162
I0
I-1
sI1
I1
sI-1
I-1
sssI-1
(dp163
g6
(dp164
I0
I1
sI1
I1
sI-1
I-1
sssssI-1
(dp165
g3
(dp166
I0
I-1
sI1
(dp167
g14
(dp168
I0
I1
sI1
I1
sI-1
I1
sssI-1
(dp169
g14
(dp170
I0
I-1
sI1
I-1
sI-1
I-1
ssssssa(dp171
g2
F0.9146011333559156
sg9
(dp172
I0
(dp173
g14
(dp174
I0
(dp175
g3
(dp176
I0
I-1
sI1
I1
sI-1
I-1
sssI1
(dp177
g6
(dp178
I0
I1
sI1
I1
sI-1
I-1
sssI-1
(dp179
g3
(dp180
I0
I-1
sI1
I1
sI-1
I-1
sssssI1
(dp181
g17
(dp182
I0
(dp183
g14
(dp184
I0
I1
sI1
I1
sI-1
I1
sssI1
(dp185
g3
(dp186
I0
I-1
sI1
I1
sI-1
I-1
sssI-1
(dp187
S'double_slash_redirecting'
p188
(dp189
I1
I1
sI-1
I1
sssssI-1
(dp190
g3
(dp191
I0
I-1
sI1
(dp192
g14
(dp193
I0
I1
sI1
I1
sI-1
I1
sssI-1
(dp194
g14
(dp195
I0
I-1
sI1
I-1
sI-1
I-1
ssssssa(dp196
g2
F0.9146011333559156
sg9
(dp197
I0
(dp198
g14
(dp199
I0
(dp200
g3
(dp201
I0
I-1
sI1
I1
sI-1
I-1
sssI1
(dp202
g6
(dp203
I0
I1
sI1
I1
sI-1
I-1
sssI-1
(dp204
g3
(dp205
I0
I-1
sI1
I1
sI-1
I-1
sssssI1
(dp206
g17
(dp207
I0
(dp208
g14
(dp209
I0
I1
sI1
I1
sI-1
I1
sssI1
(dp210
g3
(dp211
I0
I-1
sI1
I1
sI-1
I-1
sssI-1
(dp212
g188
(dp213
I1
I1
sI-1
I1
sssssI-1
(dp214
g3
(dp215
I0
I-1
sI1
(dp216
g14
(dp217
I0
I1
sI1
I1
sI-1
I1
sssI-1
(dp218
g14
(dp219
I0
I-1
sI1
I-1
sI-1
I-1
ssssssa(dp220
g2
F0.9146011333559156
sg9
(dp221
I0
(dp222
g14
(dp223
I0
(dp224
g3
(dp225
I0
I-1
sI1
I1
sI-1
I-1
sssI1
(dp226
g6
(dp227
I0
I1
sI1
I1
sI-1
I-1
sssI-1
(dp228
g3
(dp229
I0
I-1
sI1
I1
sI-1
I-1
sssssI1
(dp230
g17
(dp231
I0
(dp232
g14
(dp233
I0
I1
sI1
I1
sI-1
I1
sssI1
(dp234
g3
(dp235
I0
I-1
sI1
I1
sI-1
I-1
sssI-1
(dp236
g188
(dp237
I1
I1
sI-1
I1
sssssI-1
(dp238
g3
(dp239
I0
I-1
sI1
(dp240
g14
(dp241
I0
I1
sI1
I1
sI-1
I1
sssI-1
(dp242
g14
(dp243
I0
I-1
sI1
I-1
sI-1
I-1
ssssssa(dp244
g2
F0.9146011333559156
sg9
(dp245
I0
(dp246
g14
(dp247
I0
(dp248
g3
(dp249
I0
I-1
sI1
I1
sI-1
I-1
sssI1
(dp250
g6
(dp251
I0
I1
sI1
I1
sI-1
I-1
sssI-1
(dp252
g3
(dp253
I0
I-1
sI1
I1
sI-1
I-1
sssssI1
(dp254
g17
(dp255
I0
(dp256
g14
(dp257
I0
I1
sI1
I1
sI-1
I1
sssI1
(dp258
g3
(dp259
I0
I-1
sI1
I1
sI-1
I-1
sssI-1
(dp260
g188
(dp261
I1
I1
sI-1
I1
sssssI-1
(dp262
g3
(dp263
I0
I-1
sI1
(dp264
g14
(dp265
I0
I1
sI1
I1
sI-1
I1
sssI-1
(dp266
g14
(dp267
I0
I-1
sI1
I-1
sI-1
I-1
ssssssa(dp268
g2
F0.9146011333559156
sg9
(dp269
I0
(dp270
g14
(dp271
I0
(dp272
g3
(dp273
I0
I-1
sI1
I1
sI-1
I-1
sssI1
(dp274
g6
(dp275
I0
I1
sI1
I1
sI-1
I-1
sssI-1
(dp276
g3
(dp277
I0
I-1
sI1
I1
sI-1
I-1
sssssI1
(dp278
g17
(dp279
I0
(dp280
g14
(dp281
I0
I1
sI1
I1
sI-1
I1
sssI1
(dp282
g3
(dp283
I0
I-1
sI1
I1
sI-1
I-1
sssI-1
(dp284
g188
(dp285
I1
I1
sI-1
I1
sssssI-1
(dp286
g3
(dp287
I0
I-1
sI1
(dp288
g14
(dp289
I0
I1
sI1
I1
sI-1
I1
sssI-1
(dp290
g14
(dp291
I0
I-1
sI1
I-1
sI-1
I-1
ssssssa(dp292
g2
F0.9146011333559156
sg9
(dp293
I0
(dp294
g14
(dp295
I0
(dp296
g3
(dp297
I0
I-1
sI1
I1
sI-1
I-1
sssI1
(dp298
g6
(dp299
I0
I1
sI1
I1
sI-1
I-1
sssI-1
(dp300
g3
(dp301
I0
I-1
sI1
I1
sI-1
I-1
sssssI1
(dp302
g17
(dp303
I0
(dp304
g14
(dp305
I0
I1
sI1
I1
sI-1
I1
sssI1
(dp306
g3
(dp307
I0
I-1
sI1
I1
sI-1
I-1
sssI-1
(dp308
g188
(dp309
I1
I1
sI-1
I1
sssssI-1
(dp310
g3
(dp311
I0
I-1
sI1
(dp312
g14
(dp313
I0
I1
sI1
I1
sI-1
I1
sssI-1
(dp314
g14
(dp315
I0
I-1
sI1
I-1
sI-1
I-1
ssssssa(dp316
g2
F0.9146011333559156
sg9
(dp317
I0
(dp318
g14
(dp319
I0
(dp320
g3
(dp321
I0
I-1
sI1
I1
sI-1
I-1
sssI1
(dp322
g6
(dp323
I0
I1
sI1
I1
sI-1
I-1
sssI-1
(dp324
g3
(dp325
I0
I-1
sI1
I1
sI-1
I-1
sssssI1
(dp326
g17
(dp327
I0
(dp328
g14
(dp329
I0
I1
sI1
I1
sI-1
I1
sssI1
(dp330
g3
(dp331
I0
I-1
sI1
I1
sI-1
I-1
sssI-1
(dp332
g188
(dp333
I1
I1
sI-1
I1
sssssI-1
(dp334
g3
(dp335
I0
I-1
sI1
(dp336
g14
(dp337
I0
I1
sI1
I1
sI-1
I1
sssI-1
(dp338
g14
(dp339
I0
I-1
sI1
I-1
sI-1
I-1
ssssssa(dp340
g2
F0.9146011333559156
sg9
(dp341
I0
(dp342
g14
(dp343
I0
(dp344
g3
(dp345
I0
I-1
sI1
I1
sI-1
I-1
sssI1
(dp346
g6
(dp347
I0
I1
sI1
I1
sI-1
I-1
sssI-1
(dp348
g3
(dp349
I0
I-1
sI1
I1
sI-1
I-1
sssssI1
(dp350
g17
(dp351
I0
(dp352
g14
(dp353
I0
I1
sI1
I1
sI-1
I1
sssI1
(dp354
g3
(dp355
I0
I-1
sI1
I1
sI-1
I-1
sssI-1
(dp356
g188
(dp357
I1
I1
sI-1
I1
sssssI-1
(dp358
g3
(dp359
I0
I-1
sI1
(dp360
g14
(dp361
I0
I1
sI1
I1
sI-1
I1
sssI-1
(dp362
g14
(dp363
I0
I-1
sI1
I-1
sI-1
I-1
ssssssa(dp364
g2
F0.9146011333559156
sg9
(dp365
I0
(dp366
g14
(dp367
I0
(dp368
g3
(dp369
I0
I-1
sI1
I1
sI-1
I-1
sssI1
(dp370
g6
(dp371
I0
I1
sI1
I1
sI-1
I-1
sssI-1
(dp372
g3
(dp373
I0
I-1
sI1
I1
sI-1
I-1
sssssI1
(dp374
g17
(dp375
I0
(dp376
g14
(dp377
I0
I1
sI1
I1
sI-1
I1
sssI1
(dp378
g3
(dp379
I0
I-1
sI1
I1
sI-1
I-1
sssI-1
(dp380
g188
(dp381
I1
I1
sI-1
I1
sssssI-1
(dp382
g3
(dp383
I0
I-1
sI1
(dp384
g14
(dp385
I0
I1
sI1
I1
sI-1
I1
sssI-1
(dp386
g14
(dp387
I0
I-1
sI1
I-1
sI-1
I-1
ssssssa(dp388
g2
F0.9146011333559156
sg9
(dp389
I0
(dp390
g14
(dp391
I0
(dp392
g3
(dp393
I0
I-1
sI1
I1
sI-1
I-1
sssI1
(dp394
g6
(dp395
I0
I1
sI1
I1
sI-1
I-1
sssI-1
(dp396
g3
(dp397
I0
I-1
sI1
I1
sI-1
I-1
sssssI1
(dp398
g17
(dp399
I0
(dp400
g14
(dp401
I0
I1
sI1
I1
sI-1
I1
sssI1
(dp402
g3
(dp403
I0
I-1
sI1
I1
sI-1
I-1
sssI-1
(dp404
g188
(dp405
I1
I1
sI-1
I1
sssssI-1
(dp406
g3
(dp407
I0
I-1
sI1
(dp408
g14
(dp409
I0
I1
sI1
I1
sI-1
I1
sssI-1
(dp410
g14
(dp411
I0
I-1
sI1
I-1
sI-1
I-1
ssssssa(dp412
g2
F0.9146011333559156
sg9
(dp413
I0
(dp414
g14
(dp415
I0
(dp416
g3
(dp417
I0
I-1
sI1
I1
sI-1
I-1
sssI1
(dp418
g6
(dp419
I0
I1
sI1
I1
sI-1
I-1
sssI-1
(dp420
g3
(dp421
I0
I-1
sI1
I1
sI-1
I-1
sssssI1
(dp422
g17
(dp423
I0
(dp424
g14
(dp425
I0
I1
sI1
I1
sI-1
I1
sssI1
(dp426
g3
(dp427
I0
I-1
sI1
I1
sI-1
I-1
sssI-1
(dp428
g188
(dp429
I1
I1
sI-1
I1
sssssI-1
(dp430
g3
(dp431
I0
I-1
sI1
(dp432
g14
(dp433
I0
I1
sI1
I1
sI-1
I1
sssI-1
(dp434
g14
(dp435
I0
I-1
sI1
I-1
sI-1
I-1
ssssssa(dp436
g2
F0.9146011333559156
sg9
(dp437
I0
(dp438
g14
(dp439
I0
(dp440
g3
(dp441
I0
I-1
sI1
I1
sI-1
I-1
sssI1
(dp442
g6
(dp443
I0
I1
sI1
I1
sI-1
I-1
sssI-1
(dp444
g3
(dp445
I0
I-1
sI1
I1
sI-1
I-1
sssssI1
(dp446
g17
(dp447
I0
(dp448
g14
(dp449
I0
I1
sI1
I1
sI-1
I1
sssI1
(dp450
g3
(dp451
I0
I-1
sI1
I1
sI-1
I-1
sssI-1
(dp452
g188
(dp453
I1
I1
sI-1
I1
sssssI-1
(dp454
g3
(dp455
I0
I-1
sI1
(dp456
g14
(dp457
I0
I1
sI1
I1
sI-1
I1
sssI-1
(dp458
g14
(dp459
I0
I-1
sI1
I-1
sI-1
I-1
ssssssa(dp460
g2
F0.9146011333559156
sg9
(dp461
I0
(dp462
g14
(dp463
I0
(dp464
g3
(dp465
I0
I-1
sI1
I1
sI-1
I-1
sssI1
(dp466
g6
(dp467
I0
I1
sI1
I1
sI-1
I-1
sssI-1
(dp468
g3
(dp469
I0
I-1
sI1
I1
sI-1
I-1
sssssI1
(dp470
g17
(dp471
I0
(dp472
g14
(dp473
I0
I1
sI1
I1
sI-1
I1
sssI1
(dp474
g3
(dp475
I0
I-1
sI1
I1
sI-1
I-1
sssI-1
(dp476
g188
(dp477
I1
I1
sI-1
I1
sssssI-1
(dp478
g3
(dp479
I0
I-1
sI1
(dp480
g14
(dp481
I0
I1
sI1
I1
sI-1
I1
sssI-1
(dp482
g14
(dp483
I0
I-1
sI1
I-1
sI-1
I-1
ssssssa(dp484
g2
F0.9146011333559156
sg9
(dp485
I0
(dp486
g14
(dp487
I0
(dp488
g3
(dp489
I0
I-1
sI1
I1
sI-1
I-1
sssI1
(dp490
g6
(dp491
I0
I1
sI1
I1
sI-1
I-1
sssI-1
(dp492
g3
(dp493
I0
I-1
sI1
I1
sI-1
I-1
sssssI1
(dp494
g17
(dp495
I0
(dp496
g14
(dp497
I0
I1
sI1
I1
sI-1
I1
sssI1
(dp498
g3
(dp499
I0
I-1
sI1
I1
sI-1
I-1
sssI-1
(dp500
g188
(dp501
I1
I1
sI-1
I1
sssssI-1
(dp502
g3
(dp503
I0
I-1
sI1
(dp504
g14
(dp505
I0
I1
sI1
I1
sI-1
I1
sssI-1
(dp506
g14
(dp507
I0
I-1
sI1
I-1
sI-1
I-1
ssssssa(dp508
g2
F0.9146011333559156
sg9
(dp509
I0
(dp510
g14
(dp511
I0
(dp512
g3
(dp513
I0
I-1
sI1
I1
sI-1
I-1
sssI1
(dp514
g6
(dp515
I0
I1
sI1
I1
sI-1
I-1
sssI-1
(dp516
g3
(dp517
I0
I-1
sI1
I1
sI-1
I-1
sssssI1
(dp518
g17
(dp519
I0
(dp520
g14
(dp521
I0
I1
sI1
I1
sI-1
I1
sssI1
(dp522
g3
(dp523
I0
I-1
sI1
I1
sI-1
I-1
sssI-1
(dp524
g188
(dp525
I1
I1
sI-1
I1
sssssI-1
(dp526
g3
(dp527
I0
I-1
sI1
(dp528
g14
(dp529
I0
I1
sI1
I1
sI-1
I1
sssI-1
(dp530
g14
(dp531
I0
I-1
sI1
I-1
sI-1
I-1
ssssssa(dp532
g2
F0.9146011333559156
sg9
(dp533
I0
(dp534
g14
(dp535
I0
(dp536
g3
(dp537
I0
I-1
sI1
I1
sI-1
I-1
sssI1
(dp538
g6
(dp539
I0
I1
sI1
I1
sI-1
I-1
sssI-1
(dp540
g3
(dp541
I0
I-1
sI1
I1
sI-1
I-1
sssssI1
(dp542
g17
(dp543
I0
(dp544
g14
(dp545
I0
I1
sI1
I1
sI-1
I1
sssI1
(dp546
g3
(dp547
I0
I-1
sI1
I1
sI-1
I-1
sssI-1
(dp548
g188
(dp549
I1
I1
sI-1
I1
sssssI-1
(dp550
g3
(dp551
I0
I-1
sI1
(dp552
g14
(dp553
I0
I1
sI1
I1
sI-1
I1
sssI-1
(dp554
g14
(dp555
I0
I-1
sI1
I-1
sI-1
I-1
ssssssa(dp556
g2
F0.9146011333559156
sg9
(dp557
I0
(dp558
g14
(dp559
I0
(dp560
g3
(dp561
I0
I-1
sI1
I1
sI-1
I-1
sssI1
(dp562
g6
(dp563
I0
I1
sI1
I1
sI-1
I-1
sssI-1
(dp564
g3
(dp565
I0
I-1
sI1
I1
sI-1
I-1
sssssI1
(dp566
g17
(dp567
I0
(dp568
g14
(dp569
I0
I1
sI1
I1
sI-1
I1
sssI1
(dp570
g3
(dp571
I0
I-1
sI1
I1
sI-1
I-1
sssI-1
(dp572
g188
(dp573
I1
I1
sI-1
I1
sssssI-1
(dp574
g3
(dp575
I0
I-1
sI1
(dp576
g14
(dp577
I0
I1
sI1
I1
sI-1
I1
sssI-1
(dp578
g14
(dp579
I0
I-1
sI1
I-1
sI-1
I-1
ssssssa(dp580
g2
F0.9146011333559156
sg9
(dp581
I0
(dp582
g14
(dp583
I0
(dp584
g3
(dp585
I0
I-1
sI1
I1
sI-1
I-1
sssI1
(dp586
g6
(dp587
I0
I1
sI1
I1
sI-1
I-1
sssI-1
(dp588
g3
(dp589
I0
I-1
sI1
I1
sI-1
I-1
sssssI1
(dp590
g17
(dp591
I0
(dp592
g14
(dp593
I0
I1
sI1
I1
sI-1
I1
sssI1
(dp594
g3
(dp595
I0
I-1
sI1
I1
sI-1
I-1
sssI-1
(dp596
g188
(dp597
I1
I1
sI-1
I1
sssssI-1
(dp598
g3
(dp599
I0
I-1
sI1
(dp600
g14
(dp601
I0
I1
sI1
I1
sI-1
I1
sssI-1
(dp602
g14
(dp603
I0
I-1
sI1
I-1
sI-1
I-1
ssssssa(dp604
g2
F0.9146011333559156
sg9
(dp605
I0
(dp606
g14
(dp607
I0
(dp608
g3
(dp609
I0
I-1
sI1
I1
sI-1
I-1
sssI1
(dp610
g6
(dp611
I0
I1
sI1
I1
sI-1
I-1
sssI-1
(dp612
g3
(dp613
I0
I-1
sI1
I1
sI-1
I-1
sssssI1
(dp614
g17
(dp615
I0
(dp616
g14
(dp617
I0
I1
sI1
I1
sI-1
I1
sssI1
(dp618
g3
(dp619
I0
I-1
sI1
I1
sI-1
I-1
sssI-1
(dp620
g188
(dp621
I1
I1
sI-1
I1
sssssI-1
(dp622
g3
(dp623
I0
I-1
sI1
(dp624
g14
(dp625
I0
I1
sI1
I1
sI-1
I1
sssI-1
(dp626
g14
(dp627
I0
I-1
sI1
I-1
sI-1
I-1
ssssssa(dp628
g2
F0.9146011333559156
sg9
(dp629
I0
(dp630
g14
(dp631
I0
(dp632
g3
(dp633
I0
I-1
sI1
I1
sI-1
I-1
sssI1
(dp634
g6
(dp635
I0
I1
sI1
I1
sI-1
I-1
sssI-1
(dp636
g3
(dp637
I0
I-1
sI1
I1
sI-1
I-1
sssssI1
(dp638
g17
(dp639
I0
(dp640
g14
(dp641
I0
I1
sI1
I1
sI-1
I1
sssI1
(dp642
g3
(dp643
I0
I-1
sI1
I1
sI-1
I-1
sssI-1
(dp644
g188
(dp645
I1
I1
sI-1
I1
sssssI-1
(dp646
g3
(dp647
I0
I-1
sI1
(dp648
g14
(dp649
I0
I1
sI1
I1
sI-1
I1
sssI-1
(dp650
g14
(dp651
I0
I-1
sI1
I-1
sI-1
I-1
ssssssa(dp652
g2
F0.9146011333559156
sg9
(dp653
I0
(dp654
g14
(dp655
I0
(dp656
g3
(dp657
I0
I-1
sI1
I1
sI-1
I-1
sssI1
(dp658
g6
(dp659
I0
I1
sI1
I1
sI-1
I-1
sssI-1
(dp660
g3
(dp661
I0
I-1
sI1
I1
sI-1
I-1
sssssI1
(dp662
g17
(dp663
I0
(dp664
g14
(dp665
I0
I1
sI1
I1
sI-1
I1
sssI1
(dp666
g3
(dp667
I0
I-1
sI1
I1
sI-1
I-1
sssI-1
(dp668
g188
(dp669
I1
I1
sI-1
I1
sssssI-1
(dp670
g3
(dp671
I0
I-1
sI1
(dp672
g14
(dp673
I0
I1
sI1
I1
sI-1
I1
sssI-1
(dp674
g14
(dp675
I0
I-1
sI1
I-1
sI-1
I-1
ssssssa(dp676
g2
F0.9146011333559156
sg9
(dp677
I0
(dp678
g14
(dp679
I0
(dp680
g3
(dp681
I0
I-1
sI1
I1
sI-1
I-1
sssI1
(dp682
g6
(dp683
I0
I1
sI1
I1
sI-1
I-1
sssI-1
(dp684
g3
(dp685
I0
I-1
sI1
I1
sI-1
I-1
sssssI1
(dp686
g17
(dp687
I0
(dp688
g14
(dp689
I0
I1
sI1
I1
sI-1
I1
sssI1
(dp690
g3
(dp691
I0
I-1
sI1
I1
sI-1
I-1
sssI-1
(dp692
g188
(dp693
I1
I1
sI-1
I1
sssssI-1
(dp694
g3
(dp695
I0
I-1
sI1
(dp696
g14
(dp697
I0
I1
sI1
I1
sI-1
I1
sssI-1
(dp698
g14
(dp699
I0
I-1
sI1
I-1
sI-1
I-1
ssssssa(dp700
g2
F0.9146011333559156
sg9
(dp701
I0
(dp702
g14
(dp703
I0
(dp704
g3
(dp705
I0
I-1
sI1
I1
sI-1
I-1
sssI1
(dp706
g6
(dp707
I0
I1
sI1
I1
sI-1
I-1
sssI-1
(dp708
g3
(dp709
I0
I-1
sI1
I1
sI-1
I-1
sssssI1
(dp710
g17
(dp711
I0
(dp712
g14
(dp713
I0
I1
sI1
I1
sI-1
I1
sssI1
(dp714
g3
(dp715
I0
I-1
sI1
I1
sI-1
I-1
sssI-1
(dp716
g188
(dp717
I1
I1
sI-1
I1
sssssI-1
(dp718
g3
(dp719
I0
I-1
sI1
(dp720
g14
(dp721
I0
I1
sI1
I1
sI-1
I1
sssI-1
(dp722
g14
(dp723
I0
I-1
sI1
I-1
sI-1
I-1
ssssssa.