(lp0
(dp1
S'alpha'
p2
F1.1193230806931167
sS'SSLfinal_State'
p3
(dp4
I0
(dp5
S'URL_of_Anchor'
p6
(dp7
I0
(dp8
S'Links_pointing_to_page'
p9
(dp10
I0
I-1
sI1
I-1
sI-1
I1
sssI1
I-1
sI-1
I-1
sssI1
(dp11
S'having_Sub_Domain'
p12
(dp13
I0
(dp14
S'Links_in_tags'
p15
(dp16
I0
I1
sI1
I1
sI-1
I1
sssI1
(dp17
S'web_traffic'
p18
(dp19
I0
I1
sI1
I1
sI-1
I1
sssI-1
(dp20
g15
(dp21
I0
I1
sI1
I1
sI-1
I1
sssssI-1
(dp22
g6
(dp23
I0
(dp24
g12
(dp25
I0
I-1
sI1
I-1
sI-1
I-1
sssI1
(dp26
g12
(dp27
I0
I1
sI1
I1
sI-1
I-1
sssI-1
I-1
ssssa(dp28
g2
F1.0986122886681098
sg3
(dp29
I0
(dp30
g6
(dp31
I0
(dp32
g9
(dp33
I0
I-1
sI1
I-1
sI-1
I1
sssI1
I-1
sI-1
I-1
sssI1
(dp34
g12
(dp35
I0
(dp36
g18
(dp37
I0
I-1
sI1
I1
sI-1
I1
sssI1
(dp38
g18
(dp39
I0
I1
sI1
I1
sI-1
I1
sssI-1
(dp40
g18
(dp41
I0
I-1
sI1
I1
sI-1
I1
sssssI-1
(dp42
g12
(dp43
I0
(dp44
g6
(dp45
I0
I-1
sI1
I1
sI-1
I-1
sssI1
(dp46
g15
(dp47
I0
I-1
sI1
I-1
sI-1
I-1
sssI-1
(dp48
g6
(dp49
I0
I-1
sI1
I-1
sI-1
I-1
ssssssa(dp50
g2
F0.96688749912049
sg12
(dp51
I0
(dp52
g6
(dp53
I0
(dp54
g15
(dp55
I0
I1
sI1
I1
sI-1
I-1
sssI1
(dp56
g18
(dp57
I0
I1
sI1
I1
sI-1
I-1
sssI-1
I-1
sssI1
(dp58
g3
(dp59
I0
(dp60
g9
(dp61
I0
I-1
sI1
I-1
sI-1
I1
sssI1
(dp62
g15
(dp63
I0
I1
sI1
I1
sI-1
I1
sssI-1
(dp64
g15
(dp65
I0
I-1
sI1
I-1
sI-1
I-1
sssssI-1
(dp66
g6
(dp67
I0
(dp68
g15
(dp69
I0
I1
sI1
I1
sI-1
I-1
sssI1
(dp70
g3
(dp71
I0
I-1
sI1
I1
sI-1
I-1
sssI-1
(dp72
S'Request_URL'
p73
(dp74
I1
I-1
sI-1
I-1
ssssssa(dp75
g2
F0.9946386890852216
sg12
(dp76
I0
(dp77
g3
(dp78
I0
I-1
sI1
(dp79
g15
(dp80
I0
I1
sI1
I1
sI-1
I1
sssI-1
(dp81
g15
(dp82
I0
I-1
sI1
I-1
sI-1
I-1
sssssI1
(dp83
g18
(dp84
I0
(dp85
g15
(dp86
I0
I1
sI1
I1
sI-1
I-1
sssI1
(dp87
g3
(dp88
I0
I-1
sI1
I1
sI-1
I-1
sssI-1
(dp89
g6
(dp90
I0
I1
sI1
I1
sI-1
I-1
sssssI-1
(dp91
g3
(dp92
I0
I-1
sI1
(dp93
g15
(dp94
I0
I1
sI1
I1
sI-1
I1
sssI-1
(dp95
g15
(dp96
I0
I-1
sI1
I-1
sI-1
I-1
ssssssa(dp97
g2
F1.031893551736019
sg12
(dp98
I0
(dp99
g3
(dp100
I0
I-1
sI1
(dp101
g15
(dp102
I0
I1
sI1
I1
sI-1
I1
sssI-1
(dp103
g15
(dp104
I0
I-1
sI1
I-1
sI-1
I-1
sssssI1
(dp105
g18
(dp106
I0
(dp107
g15
(dp108
I0
I1
sI1
I1
sI-1
I-1
sssI1
(dp109
g3
(dp110
I0
I-1
sI1
I1
sI-1
I-1
sssI-1
(dp111
g6
(dp112
I0
I1
sI1
I1
sI-1
I-1
sssssI-1
(dp113
g6
(dp114
I0
(dp115
g3
(dp116
I0
I-1
sI1
I1
sI-1
I-1
sssI1
(dp117
g3
(dp118
I0
I-1
sI1
I1
sI-1
I-1
sssI-1
(dp119
g73
(dp120
I1
I-1
sI-1
I-1
ssssssa(dp121
g2
F0.9946386890852216
sg12
(dp122
I0
(dp123
g3
(dp124
I0
I-1
sI1
(dp125
g15
(dp126
I0
I1
sI1
I1
sI-1
I1
sssI-1
(dp127
g15
(dp128
I0
I-1
sI1
I-1
sI-1
I-1
sssssI1
(dp129
g18
(dp130
I0
(dp131
g15
(dp132
I0
I1
sI1
I1
sI-1
I-1
sssI1
(dp133
g3
(dp134
I0
I-1
sI1
I1
sI-1
I-1
sssI-1
(dp135
g6
(dp136
I0
I1
sI1
I1
sI-1
I-1
sssssI-1
(dp137
g3
(dp138
I0
I-1
sI1
(dp139
g15
(dp140
I0
I1
sI1
I1
sI-1
I1
sssI-1
(dp141
g15
(dp142
I0
I-1
sI1
I-1
sI-1
I-1
ssssssa(dp143
g2
F0.9914971760442179
sg12
(dp144
I0
(dp145
g3
(dp146
I0
I-1
sI1
(dp147
g15
(dp148
I0
I1
sI1
I1
sI-1
I1
sssI-1
(dp149
g15
(dp150
I0
I-1
sI1
I-1
sI-1
I-1
sssssI1
(dp151
g18
(dp152
I0
(dp153
g15
(dp154
I0
I1
sI1
I1
sI-1
I-1
sssI1
(dp155
g3
(dp156
I0
I-1
sI1
I1
sI-1
I-1
sssI-1
(dp157
g3
(dp158
I0
I-1
sI1
I1
sI-1
I-1
sssssI-1
(dp159
g3
(dp160
I0
I-1
sI1
(dp161
g15
(dp162
I0
I1
sI1
I1
sI-1
I1
sssI-1
(dp163
g15
(dp164
I0
I-1
sI1
I-1
sI-1
I-1
ssssssa(dp165
g2
F0.9946386890852216
sg12
(dp166
I0
(dp167
g3
(dp168
I0
I-1
sI1
(dp169
g15
(dp170
I0
I1
sI1
I1
sI-1
I1
sssI-1
(dp171
g15
(dp172
I0
I-1
sI1
I-1
sI-1
I-1
sssssI1
(dp173
g18
(dp174
I0
(dp175
g15
(dp176
I0
I1
sI1
I1
sI-1
I-1
sssI1
(dp177
g3
(dp178
I0
I-1
sI1
I1
sI-1
I-1
sssI-1
(dp179
g6
(dp180
I0
I1
sI1
I1
sI-1
I-1
sssssI-1
(dp181
g3
(dp182
I0
I-1
sI1
(dp183
g15
(dp184
I0
I1
sI1
I1
sI-1
I1
sssI-1
(dp185
g15
(dp186
I0
I-1
sI1
I-1
sI-1
I-1
ssssssa(dp187
g2
F0.9914971760442179
sg12
(dp188
I0
(dp189
g3
(dp190
I0
I-1
sI1
(dp191
g15
(dp192
I0
I1
sI1
I1
sI-1
I1
sssI-1
(dp193
g15
(dp194
I0
I-1
sI1
I-1
sI-1
I-1
sssssI1
(dp195
g18
(dp196
I0
(dp197
g15
(dp198
I0
I1
sI1
I1
sI-1
I-1
sssI1
(dp199
g3
(dp200
I0
I-1
sI1
I1
sI-1
I-1
sssI-1
(dp201
g3
(dp202
I0
I-1
sI1
I1
sI-1
I-1
sssssI-1
(dp203
g3
(dp204
I0
I-1
sI1
(dp205
g15
(dp206
I0
I1
sI1
I1
sI-1
I1
sssI-1
(dp207
g15
(dp208
I0
I-1
sI1
I-1
sI-1
I-1
ssssssa(dp209
g2
F0.9946386890852216
sg12
(dp210
I0
(dp211
g3
(dp212
I0
I-1
sI1
(dp213
g15
(dp214
I0
I1
sI1
I1
sI-1
I1
sssI-1
(dp215
g15
(dp216
I0
I-1
sI1
I-1
sI-1
I-1
sssssI1
(dp217
g18
(dp218
I0
(dp219
g15
(dp220
I0
I1
sI1
I1
sI-1
I-1
sssI1
(dp221
g3
(dp222
I0
I-1
sI1
I1
sI-1
I-1
sssI-1
(dp223
g6
(dp224
I0
I1
sI1
I1
sI-1
I-1
sssssI-1
(dp225
g3
(dp226
I0
I-1
sI1
(dp227
g15
(dp228
I0
I1
sI1
I1
sI-1
I1
sssI-1
(dp229
g15
(dp230
I0
I-1
sI1
I-1
sI-1
I-1
ssssssa(dp231
g2
F0.9914971760442179
sg12
(dp232
I0
(dp233
g3
(dp234
I0
I-1
sI1
(dp235
g15
(dp236
I0
I1
sI1
I1
sI-1
I1
sssI-1
(dp237
g15
(dp238
I0
I-1
sI1
I-1
sI-1
I-1
sssssI1
(dp239
g18
(dp240
I0
(dp241
g15
(dp242
I0
I1
sI1
I1
sI-1
I-1
sssI1
(dp243
g3
(dp244
I0
I-1
sI1
I1
sI-1
I-1
sssI-1
(dp245
g3
(dp246
I0
I-1
sI1
I1
sI-1
I-1
sssssI-1
(dp247
g3
(dp248
I0
I-1
sI1
(dp249
g15
(dp250
I0
I1
sI1
I1
sI-1
I1
sssI-1
(dp251
g15
(dp252
I0
I-1
sI1
I-1
sI-1
I-1
ssssssa(dp253
g2
F0.9946386890852216
sg12
(dp254
I0
(dp255
g3
(dp256
I0
I-1
sI1
(dp257
g15
(dp258
I0
I1
sI1
I1
sI-1
I1
sssI-1
(dp259
g15
(dp260
I0
I-1
sI1
I-1
sI-1
I-1
sssssI1
(dp261
g18
(dp262
I0
(dp263
g15
(dp264
I0
I1
sI1
I1
sI-1
I-1
sssI1
(dp265
g3
(dp266
I0
I-1
sI1
I1
sI-1
I-1
sssI-1
(dp267
g6
(dp268
I0
I1
sI1
I1
sI-1
I-1
sssssI-1
(dp269
g3
(dp270
I0
I-1
sI1
(dp271
g15
(dp272
I0
I1
sI1
I1
sI-1
I1
sssI-1
(dp273
g15
(dp274
I0
I-1
sI1
I-1
sI-1
I-1
ssssssa(dp275
g2
F0.9914971760442179
sg12
(dp276
I0
(dp277
g3
(dp278
I0
I-1
sI1
(dp279
g15
(dp280
I0
I1
sI1
I1
sI-1
I1
sssI-1
(dp281
g15
(dp282
I0
I-1
sI1
I-1
sI-1
I-1
sssssI1
(dp283
g18
(dp284
I0
(dp285
g15
(dp286
I0
I1
sI1
I1
sI-1
I-1
sssI1
(dp287
g3
(dp288
I0
I-1
sI1
I1
sI-1
I-1
sssI-1
(dp289
g3
(dp290
I0
I-1
sI1
I1
sI-1
I-1
sssssI-1
(dp291
g3
(dp292
I0
I-1
sI1
(dp293
g15
(dp294
I0
I1
sI1
I1
sI-1
I1
sssI-1
(dp295
g15
(dp296
I0
I-1
sI1
I-1
sI-1
I-1
ssssssa(dp297
g2
F0.9946386890852216
sg12
(dp298
I0
(dp299
g3
(dp300
I0
I-1
sI1
(dp301
g15
(dp302
I0
I1
sI1
I1
sI-1
I1
sssI-1
(dp303
g15
(dp304
I0
I-1
sI1
I-1
sI-1
I-1
sssssI1
(dp305
g18
(dp306
I0
(dp307
g15
(dp308
I0
I1
sI1
I1
sI-1
I-1
sssI1
(dp309
g3
(dp310
I0
I-1
sI1
I1
sI-1
I-1
sssI-1
(dp311
g6
(dp312
I0
I1
sI1
I1
sI-1
I-1
sssssI-1
(dp313
g3
(dp314
I0
I-1
sI1
(dp315
g15
(dp316
I0
I1
sI1
I1
sI-1
I1
sssI-1
(dp317
g15
(dp318
I0
I-1
sI1
I-1
sI-1
I-1
ssssssa(dp319
g2
F0.9914971760442179
sg12
(dp320
I0
(dp321
g3
(dp322
I0
I-1
sI1
(dp323
g15
(dp324
I0
I1
sI1
I1
sI-1
I1
sssI-1
(dp325
g15
(dp326
I0
I-1
sI1
I-1
sI-1
I-1
sssssI1
(dp327
g18
(dp328
I0
(dp329
g15
(dp330
I0
I1
sI1
I1
sI-1
I-1
sssI1
(dp331
g3
(dp332
I0
I-1
sI1
I1
sI-1
I-1
sssI-1
(dp333
g3
(dp334
I0
I-1
sI1
I1
sI-1
I-1
sssssI-1
(dp335
g3
(dp336
I0
I-1
sI1
(dp337
g15
(dp338
I0
I1
sI1
I1
sI-1
I1
sssI-1
(dp339
g15
(dp340
I0
I-1
sI1
I-1
sI-1
I-1
ssssssa(dp341
g2
F0.9946386890852216
sg12
(dp342
I0
(dp343
g3
(dp344
I0
I-1
sI1
(dp345
g15
(dp346
I0
I1
sI1
I1
sI-1
I1
sssI-1
(dp347
g15
(dp348
I0
I-1
sI1
I-1
sI-1
I-1
sssssI1
(dp349
g18
(dp350
I0
(dp351
g15
(dp352
I0
I1
sI1
I1
sI-1
I-1
sssI1
(dp353
g3
(dp354
I0
I-1
sI1
I1
sI-1
I-1
sssI-1
(dp355
g6
(dp356
I0
I1
sI1
I1
sI-1
I-1
sssssI-1
(dp357
g3
(dp358
I0
I-1
sI1
(dp359
g15
(dp360
I0
I1
sI1
I1
sI-1
I1
sssI-1
(dp361
g15
(dp362
I0
I-1
sI1
I-1
sI-1
I-1
ssssssa(dp363
g2
F0.9914971760442179
sg12
(dp364
I0
(dp365
g3
(dp366
I0
I-1
sI1
(dp367
g15
(dp368
I0
I1
sI1
I1
sI-1
I1
sssI-1
(dp369
g15
(dp370
I0
I-1
sI1
I-1
sI-1
I-1
sssssI1
(dp371
g18
(dp372
I0
(dp373
g15
(dp374
I0
I1
sI1
I1
sI-1
I-1
sssI1
(dp375
g3
(dp376
I0
I-1
sI1
I1
sI-1
I-1
sssI-1
(dp377
g3
(dp378
I0
I-1
sI1
I1
sI-1
I-1
sssssI-1
(dp379
g3
(dp380
I0
I-1
sI1
(dp381
g15
(dp382
I0
I1
sI1
I1
sI-1
I1
sssI-1
(dp383
g15
(dp384
I0
I-1
sI1
I-1
sI-1
I-1
ssssssa(dp385
g2
F0.9946386890852216
sg12
(dp386
I0
(dp387
g3
(dp388
I0
I-1
sI1
(dp389
g15
(dp390
I0
I1
sI1
I1
sI-1
I1
sssI-1
(dp391
g15
(dp392
I0
I-1
sI1
I-1
sI-1
I-1
sssssI1
(dp393
g18
(dp394
I0
(dp395
g15
(dp396
I0
I1
sI1
I1
sI-1
I-1
sssI1
(dp397
g3
(dp398
I0
I-1
sI1
I1
sI-1
I-1
sssI-1
(dp399
g6
(dp400
I0
I1
sI1
I1
sI-1
I-1
sssssI-1
(dp401
g3
(dp402
I0
I-1
sI1
(dp403
g15
(dp404
I0
I1
sI1
I1
sI-1
I1
sssI-1
(dp405
g15
(dp406
I0
I-1
sI1
I-1
sI-1
I-1
ssssssa(dp407
g2
F0.9914971760442179
sg12
(dp408
I0
(dp409
g3
(dp410
I0
I-1
sI1
(dp411
g15
(dp412
I0
I1
sI1
I1
sI-1
I1
sssI-1
(dp413
g15
(dp414
I0
I-1
sI1
I-1
sI-1
I-1
sssssI1
(dp415
g18
(dp416
I0
(dp417
g15
(dp418
I0
I1
sI1
I1
sI-1
I-1
sssI1
(dp419
g3
(dp420
I0
I-1
sI1
I1
sI-1
I-1
sssI-1
(dp421
g3
(dp422
I0
I-1
sI1
I1
sI-1
I-1
sssssI-1
(dp423
g3
(dp424
I0
I-1
sI1
(dp425
g15
(dp426
I0
I1
sI1
I1
sI-1
I1
sssI-1
(dp427
g15
(dp428
I0
I-1
sI1
I-1
sI-1
I-1
ssssssa(dp429
g2
F0.9946386890852216
sg12
(dp430
I0
(dp431
g3
(dp432
I0
I-1
sI1
(dp433
g15
(dp434
I0
I1
sI1
I1
sI-1
I1
sssI-1
(dp435
g15
(dp436
I0
I-1
sI1
I-1
sI-1
I-1
sssssI1
(dp437
g18
(dp438
I0
(dp439
g15
(dp440
I0
I1
sI1
I1
sI-1
I-1
sssI1
(dp441
g3
(dp442
I0
I-1
sI1
I1
sI-1
I-1
sssI-1
(dp443
g6
(dp444
I0
I1
sI1
I1
sI-1
I-1
sssssI-1
(dp445
g3
(dp446
I0
I-1
sI1
(dp447
g15
(dp448
I0
I1
sI1
I1
sI-1
I1
sssI-1
(dp449
g15
(dp450
I0
I-1
sI1
I-1
sI-1
I-1
ssssssa(dp451
g2
F0.9914971760442179
sg12
(dp452
I0
(dp453
g3
(dp454
I0
I-1
sI1
(dp455
g15
(dp456
I0
I1
sI1
I1
sI-1
I1
sssI-1
(dp457
g15
(dp458
I0
I-1
sI1
I-1
sI-1
I-1
sssssI1
(dp459
g18
(dp460
I0
(dp461
g15
(dp462
I0
I1
sI1
I1
sI-1
I-1
sssI1
(dp463
g3
(dp464
I0
I-1
sI1
I1
sI-1
I-1
sssI-1
(dp465
g3
(dp466
I0
I-1
sI1
I1
sI-1
I-1
sssssI-1
(dp467
g3
(dp468
I0
I-1
sI1
(dp469
g15
(dp470
I0
I1
sI1
I1
sI-1
I1
sssI-1
(dp471
g15
(dp472
I0
I-1
sI1
I-1
sI-1
I-1
ssssssa(dp473
g2
F0.9946386890852216
sg12
(dp474
I0
(dp475
g3
(dp476
I0
I-1
sI1
(dp477
g15
(dp478
I0
I1
sI1
I1
sI-1
I1
sssI-1
(dp479
g15
(dp480
I0
I-1
sI1
I-1
sI-1
I-1
sssssI1
(dp481
g18
(dp482
I0
(dp483
g15
(dp484
I0
I1
sI1
I1
sI-1
I-1
sssI1
(dp485
g3
(dp486
I0
I-1
sI1
I1
sI-1
I-1
sssI-1
(dp487
g6
(dp488
I0
I1
sI1
I1
sI-1
I-1
sssssI-1
(dp489
g3
(dp490
I0
I-1
sI1
(dp491
g15
(dp492
I0
I1
sI1
I1
sI-1
I1
sssI-1
(dp493
g15
(dp494
I0
I-1
sI1
I-1
sI-1
I-1
ssssssa(dp495
g2
F0.9914971760442179
sg12
(dp496
I0
(dp497
g3
(dp498
I0
I-1
sI1
(dp499
g15
(dp500
I0
I1
sI1
I1
sI-1
I1
sssI-1
(dp501
g15
(dp502
I0
I-1
sI1
I-1
sI-1
I-1
sssssI1
(dp503
g18
(dp504
I0
(dp505
g15
(dp506
I0
I1
sI1
I1
sI-1
I-1
sssI1
(dp507
g3
(dp508
I0
I-1
sI1
I1
sI-1
I-1
sssI-1
(dp509
g3
(dp510
I0
I-1
sI1
I1
sI-1
I-1
sssssI-1
(dp511
g3
(dp512
I0
I-1
sI1
(dp513
g15
(dp514
I0
I1
sI1
I1
sI-1
I1
sssI-1
(dp515
g15
(dp516
I0
I-1
sI1
I-1
sI-1
I-1
ssssssa(dp517
g2
F0.9946386890852216
sg12
(dp518
I0
(dp519
g3
(dp520
I0
I-1
sI1
(dp521
g15
(dp522
I0
I1
sI1
I1
sI-1
I1
sssI-1
(dp523
g15
(dp524
I0
I-1
sI1
I-1
sI-1
I-1
sssssI1
(dp525
g18
(dp526
I0
(dp527
g15
(dp528
I0
I1
sI1
I1
sI-1
I-1
sssI1
(dp529
g3
(dp530
I0
I-1
sI1
I1
sI-1
I-1
sssI-1
(dp531
g6
(dp532
I0
I1
sI1
I1
sI-1
I-1
sssssI-1
(dp533
g3
(dp534
I0
I-1
sI1
(dp535
g15
(dp536
I0
I1
sI1
I1
sI-1
I1
sssI-1
(dp537
g15
(dp538
I0
I-1
sI1
I-1
sI-1
I-1
ssssssa(dp539
g2
F0.9914971760442179
sg12
(dp540
I0
(dp541
g3
(dp542
I0
I-1
sI1
(dp543
g15
(dp544
I0
I1
sI1
I1
sI-1
I1
sssI-1
(dp545
g15
(dp546
I0
I-1
sI1
I-1
sI-1
I-1
sssssI1
(dp547
g18
(dp548
I0
(dp549
g15
(dp550
I0
I1
sI1
I1
sI-1
I-1
sssI1
(dp551
g3
(dp552
I0
I-1
sI1
I1
sI-1
I-1
sssI-1
(dp553
g3
(dp554
I0
I-1
sI1
I1
sI-1
I-1
sssssI-1
(dp555
g3
(dp556
I0
I-1
sI1
(dp557
g15
(dp558
I0
I1
sI1
I1
sI-1
I1
sssI-1
(dp559
g15
(dp560
I0
I-1
sI1
I-1
sI-1
I-1
ssssssa(dp561
g2
F0.9946386890852216
sg12
(dp562
I0
(dp563
g3
(dp564
I0
I-1
sI1
(dp565
g15
(dp566
I0
I1
sI1
I1
sI-1
I1
sssI-1
(dp567
g15
(dp568
I0
I-1
sI1
I-1
sI-1
I-1
sssssI1
(dp569
g18
(dp570
I0
(dp571
g15
(dp572
I0
I1
sI1
I1
sI-1
I-1
sssI1
(dp573
g3
(dp574
I0
I-1
sI1
I1
sI-1
I-1
sssI-1
(dp575
g6
(dp576
I0
I1
sI1
I1
sI-1
I-1
sssssI-1
(dp577
g3
(dp578
I0
I-1
sI1
(dp579
g15
(dp580
I0
I1
sI1
I1
sI-1
I1
sssI-1
(dp581
g15
(dp582
I0
I-1
sI1
I-1
sI-1
I-1
ssssssa(dp583
g2
F0.9914971760442179
sg12
(dp584
I0
(dp585
g3
(dp586
I0
I-1
sI1
(dp587
g15
(dp588
I0
I1
sI1
I1
sI-1
I1
sssI-1
(dp589
g15
(dp590
I0
I-1
sI1
I-1
sI-1
I-1
sssssI1
(dp591
g18
(dp592
I0
(dp593
g15
(dp594
I0
I1
sI1
I1
sI-1
I-1
sssI1
(dp595
g3
(dp596
I0
I-1
sI1
I1
sI-1
I-1
sssI-1
(dp597
g3
(dp598
I0
I-1
sI1
I1
sI-1
I-1
sssssI-1
(dp599
g3
(dp600
I0
I-1
sI1
(dp601
g15
(dp602
I0
I1
sI1
I1
sI-1
I1
sssI-1
(dp603
g15
(dp604
I0
I-1
sI1
I-1
sI-1
I-1
ssssssa(dp605
g2
F0.9946386890852216
sg12
(dp606
I0
(dp607
g3
(dp608
I0
I-1
sI1
(dp609
g15
(dp610
I0
I1
sI1
I1
sI-1
I1
sssI-1
(dp611
g15
(dp612
I0
I-1
sI1
I-1
sI-1
I-1
sssssI1
(dp613
g18
(dp614
I0
(dp615
g15
(dp616
I0
I1
sI1
I1
sI-1
I-1
sssI1
(dp617
g3
(dp618
I0
I-1
sI1
I1
sI-1
I-1
sssI-1
(dp619
g6
(dp620
I0
I1
sI1
I1
sI-1
I-1
sssssI-1
(dp621
g3
(dp622
I0
I-1
sI1
(dp623
g15
(dp624
I0
I1
sI1
I1
sI-1
I1
sssI-1
(dp625
g15
(dp626
I0
I-1
sI1
I-1
sI-1
I-1
ssssssa(dp627
g2
F0.9914971760442179
sg12
(dp628
I0
(dp629
g3
(dp630
I0
I-1
sI1
(dp631
g15
(dp632
I0
I1
sI1
I1
sI-1
I1
sssI-1
(dp633
g15
(dp634
I0
I-1
sI1
I-1
sI-1
I-1
sssssI1
(dp635
g18
(dp636
I0
(dp637
g15
(dp638
I0
I1
sI1
I1
sI-1
I-1
sssI1
(dp639
g3
(dp640
I0
I-1
sI1
I1
sI-1
I-1
sssI-1
(dp641
g3
(dp642
I0
I-1
sI1
I1
sI-1
I-1
sssssI-1
(dp643
g3
(dp644
I0
I-1
sI1
(dp645
g15
(dp646
I0
I1
sI1
I1
sI-1
I1
sssI-1
(dp647
g15
(dp648
I0
I-1
sI1
I-1
sI-1
I-1
ssssssa(dp649
g2
F0.9946386890852216
sg12
(dp650
I0
(dp651
g3
(dp652
I0
I-1
sI1
(dp653
g15
(dp654
I0
I1
sI1
I1
sI-1
I1
sssI-1
(dp655
g15
(dp656
I0
I-1
sI1
I-1
sI-1
I-1
sssssI1
(dp657
g18
(dp658
I0
(dp659
g15
(dp660
I0
I1
sI1
I1
sI-1
I-1
sssI1
(dp661
g3
(dp662
I0
I-1
sI1
I1
sI-1
I-1
sssI-1
(dp663
g6
(dp664
I0
I1
sI1
I1
sI-1
I-1
sssssI-1
(dp665
g3
(dp666
I0
I-1
sI1
(dp667
g15
(dp668
I0
I1
sI1
I1
sI-1
I1
sssI-1
(dp669
g15
(dp670
I0
I-1
sI1
I-1
sI-1
I-1
ssssssa.