(lp0
(dp1
S'alpha'
p2
F1.160901120089912
sS'SSLfinal_State'
p3
(dp4
I0
(dp5
S'URL_of_Anchor'
p6
(dp7
I0
(dp8
S'Links_pointing_to_page'
p9
(dp10
I0
I-1
sI1
I-1
sI-1
I1
sssI1
I-1
sI-1
I-1
sssI1
(dp11
S'web_traffic'
p12
(dp13
I0
(dp14
S'having_Sub_Domain'
p15
(dp16
I0
I-1
sI1
I1
sI-1
I-1
sssI1
(dp17
g15
(dp18
I0
I1
sI1
I1
sI-1
I1
sssI-1
(dp19
g6
(dp20
I0
I1
sI1
I1
sI-1
I-1
sssssI-1
(dp21
g6
(dp22
I0
(dp23
g15
(dp24
I0
I-1
sI1
I-1
sI-1
I-1
sssI1
(dp25
S'Links_in_tags'
p26
(dp27
I0
I1
sI1
I1
sI-1
I-1
sssI-1
I-1
ssssa(dp28
g2
F1.1098235206960259
sg3
(dp29
I0
(dp30
g9
(dp31
I0
(dp32
g6
(dp33
I0
I-1
sI1
I-1
sI-1
I-1
sssI1
I-1
sI-1
(dp34
g6
(dp35
I0
I1
sI-1
I-1
sssssI1
(dp36
g12
(dp37
I0
(dp38
g15
(dp39
I0
I-1
sI1
I1
sI-1
I-1
sssI1
(dp40
g15
(dp41
I0
I1
sI1
I1
sI-1
I1
sssI-1
(dp42
g15
(dp43
I0
I1
sI1
I1
sI-1
I1
sssssI-1
(dp44
g15
(dp45
I0
(dp46
g6
(dp47
I0
I-1
sI1
I1
sI-1
I-1
sssI1
(dp48
g26
(dp49
I0
I1
sI1
I-1
sI-1
I-1
sssI-1
(dp50
g6
(dp51
I0
I-1
sI1
I-1
sI-1
I-1
ssssssa(dp52
g2
F1.0252592511052927
sg3
(dp53
I0
(dp54
g9
(dp55
I0
(dp56
g6
(dp57
I0
I-1
sI1
I-1
sI-1
I-1
sssI1
I-1
sI-1
(dp58
g6
(dp59
I0
I1
sI-1
I-1
sssssI1
(dp60
g15
(dp61
I0
(dp62
g26
(dp63
I0
I1
sI1
I1
sI-1
I1
sssI1
(dp64
g12
(dp65
I0
I1
sI1
I1
sI-1
I1
sssI-1
(dp66
g26
(dp67
I0
I1
sI1
I1
sI-1
I1
sssssI-1
(dp68
g15
(dp69
I0
(dp70
g26
(dp71
I0
I-1
sI1
I-1
sI-1
I-1
sssI1
(dp72
g26
(dp73
I0
I1
sI1
I-1
sI-1
I-1
sssI-1
(dp74
g26
(dp75
I0
I-1
sI1
I-1
sI-1
I-1
ssssssa(dp76
g2
F0.9534330753865242
sg15
(dp77
I0
(dp78
g26
(dp79
I0
(dp80
g6
(dp81
I0
I1
sI1
I1
sI-1
I-1
sssI1
(dp82
g6
(dp83
I0
I1
sI1
I1
sI-1
I-1
sssI-1
(dp84
g12
(dp85
I0
I-1
sI1
I-1
sI-1
I-1
sssssI1
(dp86
g12
(dp87
I0
(dp88
g26
(dp89
I0
I1
sI1
I1
sI-1
I-1
sssI1
(dp90
g3
(dp91
I0
I-1
sI1
I1
sI-1
I-1
sssI-1
(dp92
g3
(dp93
I0
I-1
sI1
I1
sI-1
I-1
sssssI-1
(dp94
g3
(dp95
I0
I-1
sI1
(dp96
g26
(dp97
I0
I1
sI1
I1
sI-1
I1
sssI-1
(dp98
g26
(dp99
I0
I-1
sI1
I-1
sI-1
I-1
ssssssa(dp100
g2
F0.9315878248580327
sg15
(dp101
I0
(dp102
g26
(dp103
I0
(dp104
g3
(dp105
I0
I-1
sI1
I1
sI-1
I-1
sssI1
(dp106
g6
(dp107
I0
I1
sI1
I1
sI-1
I-1
sssI-1
(dp108
g3
(dp109
I0
I-1
sI1
I1
sI-1
I-1
sssssI1
(dp110
g12
(dp111
I0
(dp112
g26
(dp113
I0
I1
sI1
I1
sI-1
I-1
sssI1
(dp114
g3
(dp115
I0
I-1
sI1
I1
sI-1
I-1
sssI-1
(dp116
g3
(dp117
I0
I-1
sI1
I1
sI-1
I-1
sssssI-1
(dp118
g26
(dp119
I0
(dp120
g3
(dp121
I0
I-1
sI1
I1
sI-1
I-1
sssI1
(dp122
g6
(dp123
I0
I1
sI1
I1
sI-1
I-1
sssI-1
(dp124
S'Request_URL'
p125
(dp126
I1
I-1
sI-1
I-1
ssssssa(dp127
g2
F0.8939379846008287
sg15
(dp128
I0
(dp129
g26
(dp130
I0
(dp131
g3
(dp132
I0
I-1
sI1
I1
sI-1
I-1
sssI1
(dp133
S'age_of_domain'
p134
(dp135
I1
I-1
sI-1
I1
sssI-1
(dp136
g3
(dp137
I0
I-1
sI1
I1
sI-1
I-1
sssssI1
(dp138
g12
(dp139
I0
(dp140
g26
(dp141
I0
I1
sI1
I1
sI-1
I-1
sssI1
(dp142
g3
(dp143
I0
I-1
sI1
I1
sI-1
I-1
sssI-1
(dp144
g3
(dp145
I0
I-1
sI1
I1
sI-1
I-1
sssssI-1
(dp146
g3
(dp147
I0
I-1
sI1
(dp148
g26
(dp149
I0
I1
sI1
I1
sI-1
I1
sssI-1
(dp150
g26
(dp151
I0
I-1
sI1
I-1
sI-1
I-1
ssssssa(dp152
g2
F0.9623726689316351
sg15
(dp153
I0
(dp154
g3
(dp155
I0
I-1
sI1
(dp156
g26
(dp157
I0
I1
sI1
I1
sI-1
I1
sssI-1
(dp158
g26
(dp159
I0
I-1
sI1
I-1
sI-1
I-1
sssssI1
(dp160
g12
(dp161
I0
(dp162
g26
(dp163
I0
I1
sI1
I1
sI-1
I-1
sssI1
(dp164
g3
(dp165
I0
I-1
sI1
I1
sI-1
I-1
sssI-1
(dp166
g3
(dp167
I0
I-1
sI1
I1
sI-1
I-1
sssssI-1
(dp168
g3
(dp169
I0
I-1
sI1
(dp170
g26
(dp171
I0
I1
sI1
I1
sI-1
I1
sssI-1
(dp172
g26
(dp173
I0
I-1
sI1
I-1
sI-1
I-1
ssssssa(dp174
g2
F0.9623726689316351
sg15
(dp175
I0
(dp176
g3
(dp177
I0
I-1
sI1
(dp178
g26
(dp179
I0
I1
sI1
I1
sI-1
I1
sssI-1
(dp180
g26
(dp181
I0
I-1
sI1
I-1
sI-1
I-1
sssssI1
(dp182
g12
(dp183
I0
(dp184
g26
(dp185
I0
I1
sI1
I1
sI-1
I-1
sssI1
(dp186
g3
(dp187
I0
I-1
sI1
I1
sI-1
I-1
sssI-1
(dp188
g3
(dp189
I0
I-1
sI1
I1
sI-1
I-1
sssssI-1
(dp190
g3
(dp191
I0
I-1
sI1
(dp192
g26
(dp193
I0
I1
sI1
I1
sI-1
I1
sssI-1
(dp194
g26
(dp195
I0
I-1
sI1
I-1
sI-1
I-1
ssssssa(dp196
g2
F0.9623726689316351
sg15
(dp197
I0
(dp198
g3
(dp199
I0
I-1
sI1
(dp200
g26
(dp201
I0
I1
sI1
I1
sI-1
I1
sssI-1
(dp202
g26
(dp203
I0
I-1
sI1
I-1
sI-1
I-1
sssssI1
(dp204
g12
(dp205
I0
(dp206
g26
(dp207
I0
I1
sI1
I1
sI-1
I-1
sssI1
(dp208
g3
(dp209
I0
I-1
sI1
I1
sI-1
I-1
sssI-1
(dp210
g3
(dp211
I0
I-1
sI1
I1
sI-1
I-1
sssssI-1
(dp212
g3
(dp213
I0
I-1
sI1
(dp214
g26
(dp215
I0
I1
sI1
I1
sI-1
I1
sssI-1
(dp216
g26
(dp217
I0
I-1
sI1
I-1
sI-1
I-1
ssssssa(dp218
g2
F0.9623726689316351
sg15
(dp219
I0
(dp220
g3
(dp221
I0
I-1
sI1
(dp222
g26
(dp223
I0
I1
sI1
I1
sI-1
I1
sssI-1
(dp224
g26
(dp225
I0
I-1
sI1
I-1
sI-1
I-1
sssssI1
(dp226
g12
(dp227
I0
(dp228
g26
(dp229
I0
I1
sI1
I1
sI-1
I-1
sssI1
(dp230
g3
(dp231
I0
I-1
sI1
I1
sI-1
I-1
sssI-1
(dp232
g3
(dp233
I0
I-1
sI1
I1
sI-1
I-1
sssssI-1
(dp234
g3
(dp235
I0
I-1
sI1
(dp236
g26
(dp237
I0
I1
sI1
I1
sI-1
I1
sssI-1
(dp238
g26
(dp239
I0
I-1
sI1
I-1
sI-1
I-1
ssssssa(dp240
g2
F0.9623726689316351
sg15
(dp241
I0
(dp242
g3
(dp243
I0
I-1
sI1
(dp244
g26
(dp245
I0
I1
sI1
I1
sI-1
I1
sssI-1
(dp246
g26
(dp247
I0
I-1
sI1
I-1
sI-1
I-1
sssssI1
(dp248
g12
(dp249
I0
(dp250
g26
(dp251
I0
I1
sI1
I1
sI-1
I-1
sssI1
(dp252
g3
(dp253
I0
I-1
sI1
I1
sI-1
I-1
sssI-1
(dp254
g3
(dp255
I0
I-1
sI1
I1
sI-1
I-1
sssssI-1
(dp256
g3
(dp257
I0
I-1
sI1
(dp258
g26
(dp259
I0
I1
sI1
I1
sI-1
I1
sssI-1
(dp260
g26
(dp261
I0
I-1
sI1
I-1
sI-1
I-1
ssssssa(dp262
g2
F0.9623726689316351
sg15
(dp263
I0
(dp264
g3
(dp265
I0
I-1
sI1
(dp266
g26
(dp267
I0
I1
sI1
I1
sI-1
I1
sssI-1
(dp268
g26
(dp269
I0
I-1
sI1
I-1
sI-1
I-1
sssssI1
(dp270
g12
(dp271
I0
(dp272
g26
(dp273
I0
I1
sI1
I1
sI-1
I-1
sssI1
(dp274
g3
(dp275
I0
I-1
sI1
I1
sI-1
I-1
sssI-1
(dp276
g3
(dp277
I0
I-1
sI1
I1
sI-1
I-1
sssssI-1
(dp278
g3
(dp279
I0
I-1
sI1
(dp280
g26
(dp281
I0
I1
sI1
I1
sI-1
I1
sssI-1
(dp282
g26
(dp283
I0
I-1
sI1
I-1
sI-1
I-1
ssssssa(dp284
g2
F0.9623726689316351
sg15
(dp285
I0
(dp286
g3
(dp287
I0
I-1
sI1
(dp288
g26
(dp289
I0
I1
sI1
I1
sI-1
I1
sssI-1
(dp290
g26
(dp291
I0
I-1
sI1
I-1
sI-1
I-1
sssssI1
(dp292
g12
(dp293
I0
(dp294
g26
(dp295
I0
I1
sI1
I1
sI-1
I-1
sssI1
(dp296
g3
(dp297
I0
I-1
sI1
I1
sI-1
I-1
sssI-1
(dp298
g3
(dp299
I0
I-1
sI1
I1
sI-1
I-1
sssssI-1
(dp300
g3
(dp301
I0
I-1
sI1
(dp302
g26
(dp303
I0
I1
sI1
I1
sI-1
I1
sssI-1
(dp304
g26
(dp305
I0
I-1
sI1
I-1
sI-1
I-1
ssssssa(dp306
g2
F0.9623726689316351
sg15
(dp307
I0
(dp308
g3
(dp309
I0
I-1
sI1
(dp310
g26
(dp311
I0
I1
sI1
I1
sI-1
I1
sssI-1
(dp312
g26
(dp313
I0
I-1
sI1
I-1
sI-1
I-1
sssssI1
(dp314
g12
(dp315
I0
(dp316
g26
(dp317
I0
I1
sI1
I1
sI-1
I-1
sssI1
(dp318
g3
(dp319
I0
I-1
sI1
I1
sI-1
I-1
sssI-1
(dp320
g3
(dp321
I0
I-1
sI1
I1
sI-1
I-1
sssssI-1
(dp322
g3
(dp323
I0
I-1
sI1
(dp324
g26
(dp325
I0
I1
sI1
I1
sI-1
I1
sssI-1
(dp326
g26
(dp327
I0
I-1
sI1
I-1
sI-1
I-1
ssssssa(dp328
g2
F0.9623726689316351
sg15
(dp329
I0
(dp330
g3
(dp331
I0
I-1
sI1
(dp332
g26
(dp333
I0
I1
sI1
I1
sI-1
I1
sssI-1
(dp334
g26
(dp335
I0
I-1
sI1
I-1
sI-1
I-1
sssssI1
(dp336
g12
(dp337
I0
(dp338
g26
(dp339
I0
I1
sI1
I1
sI-1
I-1
sssI1
(dp340
g3
(dp341
I0
I-1
sI1
I1
sI-1
I-1
sssI-1
(dp342
g3
(dp343
I0
I-1
sI1
I1
sI-1
I-1
sssssI-1
(dp344
g3
(dp345
I0
I-1
sI1
(dp346
g26
(dp347
I0
I1
sI1
I1
sI-1
I1
sssI-1
(dp348
g26
(dp349
I0
I-1
sI1
I-1
sI-1
I-1
ssssssa(dp350
g2
F0.9623726689316351
sg15
(dp351
I0
(dp352
g3
(dp353
I0
I-1
sI1
(dp354
g26
(dp355
I0
I1
sI1
I1
sI-1
I1
sssI-1
(dp356
g26
(dp357
I0
I-1
sI1
I-1
sI-1
I-1
sssssI1
(dp358
g12
(dp359
I0
(dp360
g26
(dp361
I0
I1
sI1
I1
sI-1
I-1
sssI1
(dp362
g3
(dp363
I0
I-1
sI1
I1
sI-1
I-1
sssI-1
(dp364
g3
(dp365
I0
I-1
sI1
I1
sI-1
I-1
sssssI-1
(dp366
g3
(dp367
I0
I-1
sI1
(dp368
g26
(dp369
I0
I1
sI1
I1
sI-1
I1
sssI-1
(dp370
g26
(dp371
I0
I-1
sI1
I-1
sI-1
I-1
ssssssa(dp372
g2
F0.9623726689316351
sg15
(dp373
I0
(dp374
g3
(dp375
I0
I-1
sI1
(dp376
g26
(dp377
I0
I1
sI1
I1
sI-1
I1
sssI-1
(dp378
g26
(dp379
I0
I-1
sI1
I-1
sI-1
I-1
sssssI1
(dp380
g12
(dp381
I0
(dp382
g26
(dp383
I0
I1
sI1
I1
sI-1
I-1
sssI1
(dp384
g3
(dp385
I0
I-1
sI1
I1
sI-1
I-1
sssI-1
(dp386
g3
(dp387
I0
I-1
sI1
I1
sI-1
I-1
sssssI-1
(dp388
g3
(dp389
I0
I-1
sI1
(dp390
g26
(dp391
I0
I1
sI1
I1
sI-1
I1
sssI-1
(dp392
g26
(dp393
I0
I-1
sI1
I-1
sI-1
I-1
ssssssa(dp394
g2
F0.9623726689316351
sg15
(dp395
I0
(dp396
g3
(dp397
I0
I-1
sI1
(dp398
g26
(dp399
I0
I1
sI1
I1
sI-1
I1
sssI-1
(dp400
g26
(dp401
I0
I-1
sI1
I-1
sI-1
I-1
sssssI1
(dp402
g12
(dp403
I0
(dp404
g26
(dp405
I0
I1
sI1
I1
sI-1
I-1
sssI1
(dp406
g3
(dp407
I0
I-1
sI1
I1
sI-1
I-1
sssI-1
(dp408
g3
(dp409
I0
I-1
sI1
I1
sI-1
I-1
sssssI-1
(dp410
g3
(dp411
I0
I-1
sI1
(dp412
g26
(dp413
I0
I1
sI1
I1
sI-1
I1
sssI-1
(dp414
g26
(dp415
I0
I-1
sI1
I-1
sI-1
I-1
ssssssa(dp416
g2
F0.9623726689316351
sg15
(dp417
I0
(dp418
g3
(dp419
I0
I-1
sI1
(dp420
g26
(dp421
I0
I1
sI1
I1
sI-1
I1
sssI-1
(dp422
g26
(dp423
I0
I-1
sI1
I-1
sI-1
I-1
sssssI1
(dp424
g12
(dp425
I0
(dp426
g26
(dp427
I0
I1
sI1
I1
sI-1
I-1
sssI1
(dp428
g3
(dp429
I0
I-1
sI1
I1
sI-1
I-1
sssI-1
(dp430
g3
(dp431
I0
I-1
sI1
I1
sI-1
I-1
sssssI-1
(dp432
g3
(dp433
I0
I-1
sI1
(dp434
g26
(dp435
I0
I1
sI1
I1
sI-1
I1
sssI-1
(dp436
g26
(dp437
I0
I-1
sI1
I-1
sI-1
I-1
ssssssa(dp438
g2
F0.9623726689316351
sg15
(dp439
I0
(dp440
g3
(dp441
I0
I-1
sI1
(dp442
g26
(dp443
I0
I1
sI1
I1
sI-1
I1
sssI-1
(dp444
g26
(dp445
I0
I-1
sI1
I-1
sI-1
I-1
sssssI1
(dp446
g12
(dp447
I0
(dp448
g26
(dp449
I0
I1
sI1
I1
sI-1
I-1
sssI1
(dp450
g3
(dp451
I0
I-1
sI1
I1
sI-1
I-1
sssI-1
(dp452
g3
(dp453
I0
I-1
sI1
I1
sI-1
I-1
sssssI-1
(dp454
g3
(dp455
I0
I-1
sI1
(dp456
g26
(dp457
I0
I1
sI1
I1
sI-1
I1
sssI-1
(dp458
g26
(dp459
I0
I-1
sI1
I-1
sI-1
I-1
ssssssa(dp460
g2
F0.9623726689316351
sg15
(dp461
I0
(dp462
g3
(dp463
I0
I-1
sI1
(dp464
g26
(dp465
I0
I1
sI1
I1
sI-1
I1
sssI-1
(dp466
g26
(dp467
I0
I-1
sI1
I-1
sI-1
I-1
sssssI1
(dp468
g12
(dp469
I0
(dp470
g26
(dp471
I0
I1
sI1
I1
sI-1
I-1
sssI1
(dp472
g3
(dp473
I0
I-1
sI1
I1
sI-1
I-1
sssI-1
(dp474
g3
(dp475
I0
I-1
sI1
I1
sI-1
I-1
sssssI-1
(dp476
g3
(dp477
I0
I-1
sI1
(dp478
g26
(dp479
I0
I1
sI1
I1
sI-1
I1
sssI-1
(dp480
g26
(dp481
I0
I-1
sI1
I-1
sI-1
I-1
ssssssa(dp482
g2
F0.9623726689316351
sg15
(dp483
I0
(dp484
g3
(dp485
I0
I-1
sI1
(dp486
g26
(dp487
I0
I1
sI1
I1
sI-1
I1
sssI-1
(dp488
g26
(dp489
I0
I-1
sI1
I-1
sI-1
I-1
sssssI1
(dp490
g12
(dp491
I0
(dp492
g26
(dp493
I0
I1
sI1
I1
sI-1
I-1
sssI1
(dp494
g3
(dp495
I0
I-1
sI1
I1
sI-1
I-1
sssI-1
(dp496
g3
(dp497
I0
I-1
sI1
I1
sI-1
I-1
sssssI-1
(dp498
g3
(dp499
I0
I-1
sI1
(dp500
g26
(dp501
I0
I1
sI1
I1
sI-1
I1
sssI-1
(dp502
g26
(dp503
I0
I-1
sI1
I-1
sI-1
I-1
ssssssa(dp504
g2
F0.9623726689316351
sg15
(dp505
I0
(dp506
g3
(dp507
I0
I-1
sI1
(dp508
g26
(dp509
I0
I1
sI1
I1
sI-1
I1
sssI-1
(dp510
g26
(dp511
I0
I-1
sI1
I-1
sI-1
I-1
sssssI1
(dp512
g12
(dp513
I0
(dp514
g26
(dp515
I0
I1
sI1
I1
sI-1
I-1
sssI1
(dp516
g3
(dp517
I0
I-1
sI1
I1
sI-1
I-1
sssI-1
(dp518
g3
(dp519
I0
I-1
sI1
I1
sI-1
I-1
sssssI-1
(dp520
g3
(dp521
I0
I-1
sI1
(dp522
g26
(dp523
I0
I1
sI1
I1
sI-1
I1
sssI-1
(dp524
g26
(dp525
I0
I-1
sI1
I-1
sI-1
I-1
ssssssa(dp526
g2
F0.9623726689316351
sg15
(dp527
I0
(dp528
g3
(dp529
I0
I-1
sI1
(dp530
g26
(dp531
I0
I1
sI1
I1
sI-1
I1
sssI-1
(dp532
g26
(dp533
I0
I-1
sI1
I-1
sI-1
I-1
sssssI1
(dp534
g12
(dp535
I0
(dp536
g26
(dp537
I0
I1
sI1
I1
sI-1
I-1
sssI1
(dp538
g3
(dp539
I0
I-1
sI1
I1
sI-1
I-1
sssI-1
(dp540
g3
(dp541
I0
I-1
sI1
I1
sI-1
I-1
sssssI-1
(dp542
g3
(dp543
I0
I-1
sI1
(dp544
g26
(dp545
I0
I1
sI1
I1
sI-1
I1
sssI-1
(dp546
g26
(dp547
I0
I-1
sI1
I-1
sI-1
I-1
ssssssa(dp548
g2
F0.9623726689316351
sg15
(dp549
I0
(dp550
g3
(dp551
I0
I-1
sI1
(dp552
g26
(dp553
I0
I1
sI1
I1
sI-1
I1
sssI-1
(dp554
g26
(dp555
I0
I-1
sI1
I-1
sI-1
I-1
sssssI1
(dp556
g12
(dp557
I0
(dp558
g26
(dp559
I0
I1
sI1
I1
sI-1
I-1
sssI1
(dp560
g3
(dp561
I0
I-1
sI1
I1
sI-1
I-1
sssI-1
(dp562
g3
(dp563
I0
I-1
sI1
I1
sI-1
I-1
sssssI-1
(dp564
g3
(dp565
I0
I-1
sI1
(dp566
g26
(dp567
I0
I1
sI1
I1
sI-1
I1
sssI-1
(dp568
g26
(dp569
I0
I-1
sI1
I-1
sI-1
I-1
ssssssa(dp570
g2
F0.9623726689316351
sg15
(dp571
I0
(dp572
g3
(dp573
I0
I-1
sI1
(dp574
g26
(dp575
I0
I1
sI1
I1
sI-1
I1
sssI-1
(dp576
g26
(dp577
I0
I-1
sI1
I-1
sI-1
I-1
sssssI1
(dp578
g12
(dp579
I0
(dp580
g26
(dp581
I0
I1
sI1
I1
sI-1
I-1
sssI1
(dp582
g3
(dp583
I0
I-1
sI1
I1
sI-1
I-1
sssI-1
(dp584
g3
(dp585
I0
I-1
sI1
I1
sI-1
I-1
sssssI-1
(dp586
g3
(dp587
I0
I-1
sI1
(dp588
g26
(dp589
I0
I1
sI1
I1
sI-1
I1
sssI-1
(dp590
g26
(dp591
I0
I-1
sI1
I-1
sI-1
I-1
ssssssa(dp592
g2
F0.9623726689316351
sg15
(dp593
I0
(dp594
g3
(dp595
I0
I-1
sI1
(dp596
g26
(dp597
I0
I1
sI1
I1
sI-1
I1
sssI-1
(dp598
g26
(dp599
I0
I-1
sI1
I-1
sI-1
I-1
sssssI1
(dp600
g12
(dp601
I0
(dp602
g26
(dp603
I0
I1
sI1
I1
sI-1
I-1
sssI1
(dp604
g3
(dp605
I0
I-1
sI1
I1
sI-1
I-1
sssI-1
(dp606
g3
(dp607
I0
I-1
sI1
I1
sI-1
I-1
sssssI-1
(dp608
g3
(dp609
I0
I-1
sI1
(dp610
g26
(dp611
I0
I1
sI1
I1
sI-1
I1
sssI-1
(dp612
g26
(dp613
I0
I-1
sI1
I-1
sI-1
I-1
ssssssa(dp614
g2
F0.9623726689316351
sg15
(dp615
I0
(dp616
g3
(dp617
I0
I-1
sI1
(dp618
g26
(dp619
I0
I1
sI1
I1
sI-1
I1
sssI-1
(dp620
g26
(dp621
I0
I-1
sI1
I-1
sI-1
I-1
sssssI1
(dp622
g12
(dp623
I0
(dp624
g26
(dp625
I0
I1
sI1
I1
sI-1
I-1
sssI1
(dp626
g3
(dp627
I0
I-1
sI1
I1
sI-1
I-1
sssI-1
(dp628
g3
(dp629
I0
I-1
sI1
I1
sI-1
I-1
sssssI-1
(dp630
g3
(dp631
I0
I-1
sI1
(dp632
g26
(dp633
I0
I1
sI1
I1
sI-1
I1
sssI-1
(dp634
g26
(dp635
I0
I-1
sI1
I-1
sI-1
I-1
ssssssa(dp636
g2
F0.9623726689316351
sg15
(dp637
I0
(dp638
g3
(dp639
I0
I-1
sI1
(dp640
g26
(dp641
I0
I1
sI1
I1
sI-1
I1
sssI-1
(dp642
g26
(dp643
I0
I-1
sI1
I-1
sI-1
I-1
sssssI1
(dp644
g12
(dp645
I0
(dp646
g26
(dp647
I0
I1
sI1
I1
sI-1
I-1
sssI1
(dp648
g3
(dp649
I0
I-1
sI1
I1
sI-1
I-1
sssI-1
(dp650
g3
(dp651
I0
I-1
sI1
I1
sI-1
I-1
sssssI-1
(dp652
g3
(dp653
I0
I-1
sI1
(dp654
g26
(dp655
I0
I1
sI1
I1
sI-1
I1
sssI-1
(dp656
g26
(dp657
I0
I-1
sI1
I-1
sI-1
I-1
ssssssa(dp658
g2
F0.9623726689316351
sg15
(dp659
I0
(dp660
g3
(dp661
I0
I-1
sI1
(dp662
g26
(dp663
I0
I1
sI1
I1
sI-1
I1
sssI-1
(dp664
g26
(dp665
I0
I-1
sI1
I-1
sI-1
I-1
sssssI1
(dp666
g12
(dp667
I0
(dp668
g26
(dp669
I0
I1
sI1
I1
sI-1
I-1
sssI1
(dp670
g3
(dp671
I0
I-1
sI1
I1
sI-1
I-1
sssI-1
(dp672
g3
(dp673
I0
I-1
sI1
I1
sI-1
I-1
sssssI-1
(dp674
g3
(dp675
I0
I-1
sI1
(dp676
g26
(dp677
I0
I1
sI1
I1
sI-1
I1
sssI-1
(dp678
g26
(dp679
I0
I-1
sI1
I-1
sI-1
I-1
ssssssa.