(lp0
(dp1
S'alpha'
p2
F1.107940917470381
sS'SSLfinal_State'
p3
(dp4
I0
(dp5
S'URL_of_Anchor'
p6
(dp7
I0
(dp8
S'having_Sub_Domain'
p9
(dp10
I0
I-1
sI1
I1
sI-1
I-1
sssI1
I-1
sI-1
I-1
sssI1
(dp11
g9
(dp12
I0
(dp13
S'Links_in_tags'
p14
(dp15
I0
I1
sI1
I1
sI-1
I1
sssI1
(dp16
S'web_traffic'
p17
(dp18
I0
I1
sI1
I1
sI-1
I1
sssI-1
(dp19
g17
(dp20
I0
I-1
sI1
I1
sI-1
I1
sssssI-1
(dp21
g6
(dp22
I0
(dp23
g9
(dp24
I0
I-1
sI1
I-1
sI-1
I-1
sssI1
(dp25
g14
(dp26
I0
I1
sI1
I1
sI-1
I-1
sssI-1
I-1
ssssa(dp27
g2
F1.085781672612201
sg3
(dp28
I0
(dp29
g6
(dp30
I0
(dp31
g17
(dp32
I0
I-1
sI1
I-1
sI-1
I-1
sssI1
I-1
sI-1
I-1
sssI1
(dp33
g9
(dp34
I0
(dp35
g17
(dp36
I0
I-1
sI1
I1
sI-1
I1
sssI1
(dp37
g17
(dp38
I0
I1
sI1
I1
sI-1
I1
sssI-1
(dp39
g14
(dp40
I0
I1
sI1
I1
sI-1
I1
sssssI-1
(dp41
g9
(dp42
I0
(dp43
g6
(dp44
I0
I-1
sI1
I1
sI-1
I-1
sssI1
(dp45
g14
(dp46
I0
I-1
sI1
I-1
sI-1
I-1
sssI-1
(dp47
g14
(dp48
I0
I-1
sI1
I-1
sI-1
I-1
ssssssa(dp49
g2
F0.9160007927532442
sg9
(dp50
I0
(dp51
g6
(dp52
I0
(dp53
g14
(dp54
I0
I1
sI1
I1
sI-1
I-1
sssI1
(dp55
g17
(dp56
I0
I1
sI1
I1
sI-1
I-1
sssI-1
I-1
sssI1
(dp57
g17
(dp58
I0
(dp59
g14
(dp60
I0
I1
sI1
I1
sI-1
I1
sssI1
(dp61
g3
(dp62
I0
I-1
sI1
I1
sI-1
I-1
sssI-1
(dp63
g6
(dp64
I0
I1
sI1
I1
sI-1
I-1
sssssI-1
(dp65
g6
(dp66
I0
(dp67
g14
(dp68
I0
I1
sI1
I1
sI-1
I-1
sssI1
(dp69
g3
(dp70
I0
I-1
sI1
I1
sI-1
I-1
sssI-1
(dp71
S'Links_pointing_to_page'
p72
(dp73
I0
I-1
sI1
I-1
sI-1
I-1
ssssssa(dp74
g2
F0.9160007927532442
sg9
(dp75
I0
(dp76
g3
(dp77
I0
I-1
sI1
(dp78
g14
(dp79
I0
I1
sI1
I1
sI-1
I1
sssI-1
(dp80
g14
(dp81
I0
I-1
sI1
I-1
sI-1
I-1
sssssI1
(dp82
g17
(dp83
I0
(dp84
g14
(dp85
I0
I1
sI1
I1
sI-1
I1
sssI1
(dp86
g3
(dp87
I0
I-1
sI1
I1
sI-1
I-1
sssI-1
(dp88
g6
(dp89
I0
I1
sI1
I1
sI-1
I-1
sssssI-1
(dp90
g6
(dp91
I0
(dp92
g14
(dp93
I0
I1
sI1
I1
sI-1
I-1
sssI1
(dp94
g14
(dp95
I0
I1
sI1
I1
sI-1
I1
sssI-1
(dp96
S'Statistical_report'
p97
(dp98
I1
I-1
sI-1
I-1
ssssssa(dp99
g2
F0.9883705536964855
sg9
(dp100
I0
(dp101
g14
(dp102
I0
(dp103
g3
(dp104
I0
I-1
sI1
I1
sI-1
I-1
sssI1
(dp105
g6
(dp106
I0
I1
sI1
I1
sI-1
I-1
sssI-1
(dp107
g3
(dp108
I0
I-1
sI1
I1
sI-1
I-1
sssssI1
(dp109
g17
(dp110
I0
(dp111
g14
(dp112
I0
I1
sI1
I1
sI-1
I1
sssI1
(dp113
g3
(dp114
I0
I-1
sI1
I1
sI-1
I-1
sssI-1
(dp115
g3
(dp116
I0
I-1
sI1
I1
sI-1
I-1
sssssI-1
(dp117
g3
(dp118
I0
I-1
sI1
(dp119
g14
(dp120
I0
I1
sI1
I1
sI-1
I1
sssI-1
(dp121
g14
(dp122
I0
I-1
sI1
I-1
sI-1
I-1
ssssssa(dp123
g2
F0.9883705536964855
sg9
(dp124
I0
(dp125
g14
(dp126
I0
(dp127
g3
(dp128
I0
I-1
sI1
I1
sI-1
I-1
sssI1
(dp129
g6
(dp130
I0
I1
sI1
I1
sI-1
I-1
sssI-1
(dp131
g3
(dp132
I0
I-1
sI1
I1
sI-1
I-1
sssssI1
(dp133
g17
(dp134
I0
(dp135
g14
(dp136
I0
I1
sI1
I1
sI-1
I1
sssI1
(dp137
g3
(dp138
I0
I-1
sI1
I1
sI-1
I-1
sssI-1
(dp139
g6
(dp140
I0
I1
sI1
I1
sI-1
I-1
sssssI-1
(dp141
g3
(dp142
I0
I-1
sI1
(dp143
g14
(dp144
I0
I1
sI1
I1
sI-1
I1
sssI-1
(dp145
g14
(dp146
I0
I-1
sI1
I-1
sI-1
I-1
ssssssa(dp147
g2
F0.9883705536964855
sg9
(dp148
I0
(dp149
g14
(dp150
I0
(dp151
g3
(dp152
I0
I-1
sI1
I1
sI-1
I-1
sssI1
(dp153
g6
(dp154
I0
I1
sI1
I1
sI-1
I-1
sssI-1
(dp155
g3
(dp156
I0
I-1
sI1
I1
sI-1
I-1
sssssI1
(dp157
g17
(dp158
I0
(dp159
g14
(dp160
I0
I1
sI1
I1
sI-1
I1
sssI1
(dp161
g3
(dp162
I0
I-1
sI1
I1
sI-1
I-1
sssI-1
(dp163
g6
(dp164
I0
I1
sI1
I1
sI-1
I-1
sssssI-1
(dp165
g3
(dp166
I0
I-1
sI1
(dp167
g14
(dp168
I0
I1
sI1
I1
sI-1
I1
sssI-1
(dp169
g14
(dp170
I0
I-1
sI1
I-1
sI-1
I-1
ssssssa(dp171
g2
F0.9146011333559156
sg9
(dp172
I0
(dp173
g14
(dp174
I0
(dp175
g3
(dp176
I0
I-1
sI1
I1
sI-1
I-1
sssI1
(dp177
g6
(dp178
I0
I1
sI1
I1
sI-1
I-1
sssI-1
(dp179
g3
(dp180
I0
I-1
sI1
I1
sI-1
I-1
sssssI1
(dp181
g17
(dp182
I0
(dp183
g14
(dp184
I0
I1
sI1
I1
sI-1
I1
sssI1
(dp185
g3
(dp186
I0
I-1
sI1
I1
sI-1
I-1
sssI-1
(dp187
S'double_slash_redirecting'
p188
(dp189
I1
I1
sI-1
I1
sssssI-1
(dp190
g3
(dp191
I0
I-1
sI1
(dp192
g14
(dp193
I0
I1
sI1
I1
sI-1
I1
sssI-1
(dp194
g14
(dp195
I0
I-1
sI1
I-1
sI-1
I-1
ssssssa(dp196
g2
F0.9146011333559156
sg9
(dp197
I0
(dp198
g14
(dp199
I0
(dp200
g3
(dp201
I0
I-1
sI1
I1
sI-1
I-1
sssI1
(dp202
g6
(dp203
I0
I1
sI1
I1
sI-1
I-1
sssI-1
(dp204
g3
(dp205
I0
I-1
sI1
I1
sI-1
I-1
sssssI1
(dp206
g17
(dp207
I0
(dp208
g14
(dp209
I0
I1
sI1
I1
sI-1
I1
sssI1
(dp210
g3
(dp211
I0
I-1
sI1
I1
sI-1
I-1
sssI-1
(dp212
g188
(dp213
I1
I1
sI-1
I1
sssssI-1
(dp214
g3
(dp215
I0
I-1
sI1
(dp216
g14
(dp217
I0
I1
sI1
I1
sI-1
I1
sssI-1
(dp218
g14
(dp219
I0
I-1
sI1
I-1
sI-1
I-1
ssssssa(dp220
g2
F0.9146011333559156
sg9
(dp221
I0
(dp222
g14
(dp223
I0
(dp224
g3
(dp225
I0
I-1
sI1
I1
sI-1
I-1
sssI1
(dp226
g6
(dp227
I0
I1
sI1
I1
sI-1
I-1
sssI-1
(dp228
g3
(dp229
I0
I-1
sI1
I1
sI-1
I-1
sssssI1
(dp230
g17
(dp231
I0
(dp232
g14
(dp233
I0
I1
sI1
I1
sI-1
I1
sssI1
(dp234
g3
(dp235
I0
I-1
sI1
I1
sI-1
I-1
sssI-1
(dp236
g188
(dp237
I1
I1
sI-1
I1
sssssI-1
(dp238
g3
(dp239
I0
I-1
sI1
(dp240
g14
(dp241
I0
I1
sI1
I1
sI-1
I1
sssI-1
(dp242
g14
(dp243
I0
I-1
sI1
I-1
sI-1
I-1
ssssssa.