(lp0
(dp1
S'alpha'
p2
F1.160901120089912
sS'SSLfinal_State'
p3
(dp4
I0
(dp5
S'URL_of_Anchor'
p6
(dp7
I0
(dp8
S'Links_pointing_to_page'
p9
(dp10
I0
I-1
sI1
I-1
sI-1
I1
sssI1
I-1
sI-1
I-1
sssI1
(dp11
S'web_traffic'
p12
(dp13
I0
(dp14
S'having_Sub_Domain'
p15
(dp16
I0
I-1
sI1
I1
sI-1
I-1
sssI1
(dp17
g15
(dp18
I0
I1
sI1
I1
sI-1
I1
sssI-1
(dp19
g6
(dp20
I0
I1
sI1
I1
sI-1
I-1
sssssI-1
(dp21
g6
(dp22
I0
(dp23
g15
(dp24
I0
I-1
sI1
I-1
sI-1
I-1
sssI1
(dp25
S'Links_in_tags'
p26
(dp27
I0
I1
sI1
I1
sI-1
I-1
sssI-1
I-1
ssssa(dp28
g2
F1.1098235206960259
sg3
(dp29
I0
(dp30
g9
(dp31
I0
(dp32
g6
(dp33
I0
I-1
sI1
I-1
sI-1
I-1
sssI1
I-1
sI-1
(dp34
g6
(dp35
I0
I1
sI-1
I-1
sssssI1
(dp36
g12
(dp37
I0
(dp38
g15
(dp39
I0
I-1
sI1
I1
sI-1
I-1
sssI1
(dp40
g15
(dp41
I0
I1
sI1
I1
sI-1
I1
sssI-1
(dp42
g15
(dp43
I0
I1
sI1
I1
sI-1
I1
sssssI-1
(dp44
g15
(dp45
I0
(dp46
g6
(dp47
I0
I-1
sI1
I1
sI-1
I-1
sssI1
(dp48
g26
(dp49
I0
I1
sI1
I-1
sI-1
I-1
sssI-1
(dp50
g6
(dp51
I0
I-1
sI1
I-1
sI-1
I-1
ssssssa(dp52
g2
F1.0252592511052927
sg3
(dp53
I0
(dp54
g9
(dp55
I0
(dp56
g6
(dp57
I0
I-1
sI1
I-1
sI-1
I-1
sssI1
I-1
sI-1
(dp58
g6
(dp59
I0
I1
sI-1
I-1
sssssI1
(dp60
g15
(dp61
I0
(dp62
g26
(dp63
I0
I1
sI1
I1
sI-1
I1
sssI1
(dp64
g12
(dp65
I0
I1
sI1
I1
sI-1
I1
sssI-1
(dp66
g26
(dp67
I0
I1
sI1
I1
sI-1
I1
sssssI-1
(dp68
g15
(dp69
I0
(dp70
g26
(dp71
I0
I-1
sI1
I-1
sI-1
I-1
sssI1
(dp72
g26
(dp73
I0
I1
sI1
I-1
sI-1
I-1
sssI-1
(dp74
g26
(dp75
I0
I-1
sI1
I-1
sI-1
I-1
ssssssa(dp76
g2
F0.9534330753865242
sg15
(dp77
I0
(dp78
g26
(dp79
I0
(dp80
g6
(dp81
I0
I1
sI1
I1
sI-1
I-1
sssI1
(dp82
g6
(dp83
I0
I1
sI1
I1
sI-1
I-1
sssI-1
(dp84
g12
(dp85
I0
I-1
sI1
I-1
sI-1
I-1
sssssI1
(dp86
g12
(dp87
I0
(dp88
g26
(dp89
I0
I1
sI1
I1
sI-1
I-1
sssI1
(dp90
g3
(dp91
I0
I-1
sI1
I1
sI-1
I-1
sssI-1
(dp92
g3
(dp93
I0
I-1
sI1
I1
sI-1
I-1
sssssI-1
(dp94
g3
(dp95
I0
I-1
sI1
(dp96
g26
(dp97
I0
I1
sI1
I1
sI-1
I1
sssI-1
(dp98
g26
(dp99
I0
I-1
sI1
I-1
sI-1
I-1
ssssssa(dp100
g2
F0.9315878248580327
sg15
(dp101
I0
(dp102
g26
(dp103
I0
(dp104
g3
(dp105
I0
I-1
sI1
I1
sI-1
I-1
sssI1
(dp106
g6
(dp107
I0
I1
sI1
I1
sI-1
I-1
sssI-1
(dp108
g3
(dp109
I0
I-1
sI1
I1
sI-1
I-1
sssssI1
(dp110
g12
(dp111
I0
(dp112
g26
(dp113
I0
I1
sI1
I1
sI-1
I-1
sssI1
(dp114
g3
(dp115
I0
I-1
sI1
I1
sI-1
I-1
sssI-1
(dp116
g3
(dp117
I0
I-1
sI1
I1
sI-1
I-1
sssssI-1
(dp118
g26
(dp119
I0
(dp120
g3
(dp121
I0
I-1
sI1
I1
sI-1
I-1
sssI1
(dp122
g6
(dp123
I0
I1
sI1
I1
sI-1
I-1
sssI-1
(dp124
S'Request_URL'
p125
(dp126
I1
I-1
sI-1
I-1
ssssssa(dp127
g2
F0.8939379846008287
sg15
(dp128
I0
(dp129
g26
(dp130
I0
(dp131
g3
(dp132
I0
I-1
sI1
I1
sI-1
I-1
sssI1
(dp133
S'age_of_domain'
p134
(dp135
I1
I-1
sI-1
I1
sssI-1
(dp136
g3
(dp137
I0
I-1
sI1
I1
sI-1
I-1
sssssI1
(dp138
g12
(dp139
I0
(dp140
g26
(dp141
I0
I1
sI1
I1
sI-1
I-1
sssI1
(dp142
g3
(dp143
I0
I-1
sI1
I1
sI-1
I-1
sssI-1
(dp144
g3
(dp145
I0
I-1
sI1
I1
sI-1
I-1
sssssI-1
(dp146
g3
(dp147
I0
I-1
sI1
(dp148
g26
(dp149
I0
I1
sI1
I1
sI-1
I1
sssI-1
(dp150
g26
(dp151
I0
I-1
sI1
I-1
sI-1
I-1
ssssssa(dp152
g2
F0.9623726689316351
sg15
(dp153
I0
(dp154
g3
(dp155
I0
I-1
sI1
(dp156
g26
(dp157
I0
I1
sI1
I1
sI-1
I1
sssI-1
(dp158
g26
(dp159
I0
I-1
sI1
I-1
sI-1
I-1
sssssI1
(dp160
g12
(dp161
I0
(dp162
g26
(dp163
I0
I1
sI1
I1
sI-1
I-1
sssI1
(dp164
g3
(dp165
I0
I-1
sI1
I1
sI-1
I-1
sssI-1
(dp166
g3
(dp167
I0
I-1
sI1
I1
sI-1
I-1
sssssI-1
(dp168
g3
(dp169
I0
I-1
sI1
(dp170
g26
(dp171
I0
I1
sI1
I1
sI-1
I1
sssI-1
(dp172
g26
(dp173
I0
I-1
sI1
I-1
sI-1
I-1
ssssssa(dp174
g2
F0.9623726689316351
sg15
(dp175
I0
(dp176
g3
(dp177
I0
I-1
sI1
(dp178
g26
(dp179
I0
I1
sI1
I1
sI-1
I1
sssI-1
(dp180
g26
(dp181
I0
I-1
sI1
I-1
sI-1
I-1
sssssI1
(dp182
g12
(dp183
I0
(dp184
g26
(dp185
I0
I1
sI1
I1
sI-1
I-1
sssI1
(dp186
g3
(dp187
I0
I-1
sI1
I1
sI-1
I-1
sssI-1
(dp188
g3
(dp189
I0
I-1
sI1
I1
sI-1
I-1
sssssI-1
(dp190
g3
(dp191
I0
I-1
sI1
(dp192
g26
(dp193
I0
I1
sI1
I1
sI-1
I1
sssI-1
(dp194
g26
(dp195
I0
I-1
sI1
I-1
sI-1
I-1
ssssssa(dp196
g2
F0.9623726689316351
sg15
(dp197
I0
(dp198
g3
(dp199
I0
I-1
sI1
(dp200
g26
(dp201
I0
I1
sI1
I1
sI-1
I1
sssI-1
(dp202
g26
(dp203
I0
I-1
sI1
I-1
sI-1
I-1
sssssI1
(dp204
g12
(dp205
I0
(dp206
g26
(dp207
I0
I1
sI1
I1
sI-1
I-1
sssI1
(dp208
g3
(dp209
I0
I-1
sI1
I1
sI-1
I-1
sssI-1
(dp210
g3
(dp211
I0
I-1
sI1
I1
sI-1
I-1
sssssI-1
(dp212
g3
(dp213
I0
I-1
sI1
(dp214
g26
(dp215
I0
I1
sI1
I1
sI-1
I1
sssI-1
(dp216
g26
(dp217
I0
I-1
sI1
I-1
sI-1
I-1
ssssssa(dp218
g2
F0.9623726689316351
sg15
(dp219
I0
(dp220
g3
(dp221
I0
I-1
sI1
(dp222
g26
(dp223
I0
I1
sI1
I1
sI-1
I1
sssI-1
(dp224
g26
(dp225
I0
I-1
sI1
I-1
sI-1
I-1
sssssI1
(dp226
g12
(dp227
I0
(dp228
g26
(dp229
I0
I1
sI1
I1
sI-1
I-1
sssI1
(dp230
g3
(dp231
I0
I-1
sI1
I1
sI-1
I-1
sssI-1
(dp232
g3
(dp233
I0
I-1
sI1
I1
sI-1
I-1
sssssI-1
(dp234
g3
(dp235
I0
I-1
sI1
(dp236
g26
(dp237
I0
I1
sI1
I1
sI-1
I1
sssI-1
(dp238
g26
(dp239
I0
I-1
sI1
I-1
sI-1
I-1
ssssssa.