(lp0
(dp1
S'index'
p2
I15
sS'right'
p3
(dp4
g2
I6
sg3
(dp5
g2
I12
sg3
(dp6
g2
I13
sg3
(dp7
g2
I22
sg3
I1
sS'value'
p8
I1
sS'left'
p9
I1
ssg8
I1
sg9
(dp10
g2
I25
sg3
I1
sg8
I1
sg9
I1
sssg8
I1
sg9
(dp11
g2
I2
sg3
I1
sg8
I-1
sg9
I1
sssg8
I1
sg9
(dp12
g2
I7
sg3
(dp13
g2
I16
sg3
(dp14
g2
I9
sg3
I1
sg8
I1
sg9
I1
ssg8
I1
sg9
(dp15
g2
I27
sg3
I1
sg8
I1
sg9
I1
sssg8
I1
sg9
(dp16
g2
I25
sg3
(dp17
g2
I13
sg3
I1
sg8
I0
sg9
I-1
ssg8
I1
sg9
(dp18
g2
I17
sg3
I-1
sg8
I1
sg9
I-1
sssssg8
I1
sg9
(dp19
g2
I25
sg3
(dp20
g2
I5
sg3
(dp21
g2
I29
sg3
I1
sg8
I-1
sg9
I1
ssg8
I1
sg9
(dp22
g2
I7
sg3
(dp23
g2
I13
sg3
I1
sg8
I0
sg9
I-1
ssg8
I1
sg9
(dp24
g2
I13
sg3
I-1
sg8
I0
sg9
I-1
ssssg8
I1
sg9
(dp25
g2
I7
sg3
(dp26
g2
I6
sg3
(dp27
g2
I0
sg3
I1
sg8
I1
sg9
I1
ssg8
I1
sg9
(dp28
g2
I22
sg3
I1
sg8
I1
sg9
I1
sssg8
I1
sg9
(dp29
g2
I24
sg3
(dp30
g2
I21
sg3
I-1
sg8
I1
sg9
I-1
ssg8
I1
sg9
(dp31
g2
I17
sg3
I-1
sg8
I1
sg9
I-1
sssssa(dp32
g2
I15
sg3
(dp33
g2
I24
sg3
(dp34
g2
I12
sg3
(dp35
g2
I13
sg3
(dp36
g2
I7
sg3
I1
sg8
I1
sg9
I1
ssg8
I0
sg9
(dp37
g2
I25
sg3
I1
sg8
I1
sg9
I-1
sssg8
I1
sg9
(dp38
g2
I13
sg3
(dp39
g2
I8
sg3
I1
sg8
I1
sg9
I1
ssg8
I0
sg9
(dp40
g2
I0
sg3
I-1
sg8
I-1
sg9
I-1
ssssg8
I1
sg9
(dp41
g2
I7
sg3
(dp42
g2
I6
sg3
(dp43
g2
I0
sg3
I1
sg8
I1
sg9
I1
ssg8
I0
sg9
(dp44
g2
I25
sg3
I1
sg8
I1
sg9
I-1
sssg8
I1
sg9
(dp45
g2
I13
sg3
(dp46
g2
I13
sg3
I1
sg8
I1
sg9
I1
ssg8
I0
sg9
(dp47
g2
I14
sg3
I-1
sg8
I-1
sg9
I-1
sssssg8
I1
sg9
(dp48
g2
I26
sg3
(dp49
g2
I25
sg3
(dp50
g2
I7
sg3
(dp51
g2
I6
sg3
I1
sg8
I1
sg9
I1
ssg8
I1
sg9
(dp52
g2
I14
sg3
I-1
sg8
I0
sg9
I-1
sssg8
I1
sg9
(dp53
g2
I6
sg3
(dp54
g2
I13
sg3
I1
sg8
I0
sg9
I-1
ssg8
I1
sg9
(dp55
g2
I5
sg3
I1
sg8
I1
sg9
I-1
ssssg8
I1
sg9
(dp56
g2
I14
sg3
(dp57
g2
I6
sg3
(dp58
g2
I25
sg3
I1
sg8
I1
sg9
I1
ssg8
I1
sg9
(dp59
g2
I25
sg3
I1
sg8
I1
sg9
I-1
sssg8
I0
sg9
(dp60
g2
I9
sg3
(dp61
g2
I7
sg3
I1
sg8
I1
sg9
I-1
ssg8
I1
sg9
(dp62
g2
I13
sg3
I1
sg8
I0
sg9
I-1
sssssa(dp63
g2
I7
sg3
(dp64
g2
I15
sg3
(dp65
g2
I1
sg3
(dp66
g2
I17
sg3
(dp67
g2
I18
sg3
I-1
sg8
I1
sg9
I1
ssg8
I1
sg9
(dp68
g2
I16
sg3
I1
sg8
I1
sg9
I1
sssg8
I1
sg9
(dp69
g2
I14
sg3
(dp70
g2
I27
sg3
I1
sg8
I1
sg9
I1
ssg8
I0
sg9
(dp71
g2
I6
sg3
I1
sg8
I1
sg9
I1
ssssg8
I0
sg9
(dp72
g2
I13
sg3
(dp73
g2
I14
sg3
(dp74
g2
I13
sg3
I1
sg8
I1
sg9
I1
ssg8
I0
sg9
(dp75
g2
I13
sg3
I1
sg8
I1
sg9
I1
sssg8
I0
sg9
(dp76
g2
I12
sg3
(dp77
g2
I8
sg3
I-1
sg8
I1
sg9
I-1
ssg8
I1
sg9
(dp78
g2
I0
sg3
I-1
sg8
I1
sg9
I-1
sssssg8
I1
sg9
(dp79
g2
I6
sg3
(dp80
g2
I16
sg3
(dp81
g2
I23
sg3
(dp82
g2
I5
sg3
I1
sg8
I1
sg9
I-1
ssg8
I1
sg9
(dp83
g2
I14
sg3
I-1
sg8
I0
sg9
I-1
sssg8
I1
sg9
(dp84
g2
I8
sg3
(dp85
g2
I3
sg3
I-1
sg8
I-1
sg9
I-1
ssg8
I1
sg9
(dp86
g2
I12
sg3
I-1
sg8
I1
sg9
I-1
ssssg8
I1
sg9
(dp87
g2
I5
sg3
(dp88
g2
I1
sg3
(dp89
g2
I0
sg3
I1
sg8
I-1
sg9
I1
ssg8
I1
sg9
(dp90
g2
I24
sg3
I1
sg8
I1
sg9
I1
sssg8
I1
sg9
(dp91
g2
I21
sg3
(dp92
g2
I25
sg3
I-1
sg8
I1
sg9
I-1
ssg8
I1
sg9
(dp93
g2
I13
sg3
I-1
sg8
I0
sg9
I-1
sssssa(dp94
g2
I6
sg3
(dp95
g2
I13
sg3
(dp96
g2
I25
sg3
(dp97
g2
I2
sg3
(dp98
g2
I5
sg3
I1
sg8
I1
sg9
I1
ssg8
I1
sg9
(dp99
g2
I19
sg3
I1
sg8
I1
sg9
I-1
sssg8
I1
sg9
(dp100
g2
I13
sg3
(dp101
g2
I29
sg3
I1
sg8
I1
sg9
I1
ssg8
I1
sg9
(dp102
g2
I7
sg3
I1
sg8
I1
sg9
I-1
ssssg8
I0
sg9
(dp103
g2
I12
sg3
(dp104
g2
I25
sg3
(dp105
g2
I18
sg3
I-1
sg8
I1
sg9
I-1
ssg8
I1
sg9
(dp106
g2
I23
sg3
I-1
sg8
I1
sg9
I-1
sssg8
I1
sg9
(dp107
g2
I26
sg3
I-1
sg8
I-1
sg9
I-1
ssssg8
I1
sg9
(dp108
g2
I8
sg3
(dp109
g2
I14
sg3
(dp110
g2
I1
sg3
(dp111
g2
I17
sg3
I-1
sg8
I1
sg9
I-1
ssg8
I0
sg9
(dp112
g2
I25
sg3
I1
sg8
I1
sg9
I-1
sssg8
I0
sg9
(dp113
g2
I11
sg3
(dp114
g2
I25
sg3
I-1
sg8
I1
sg9
I-1
ssg8
I1
sg9
(dp115
g2
I17
sg3
I-1
sg8
I1
sg9
I1
ssssg8
I1
sg9
(dp116
g2
I15
sg3
(dp117
g2
I6
sg3
(dp118
g2
I26
sg3
I1
sg8
I1
sg9
I1
ssg8
I0
sg9
(dp119
g2
I23
sg3
I1
sg8
I1
sg9
I-1
sssg8
I1
sg9
(dp120
g2
I17
sg3
(dp121
g2
I22
sg3
I-1
sg8
I1
sg9
I1
ssg8
I1
sg9
(dp122
g2
I10
sg3
I1
sg8
I1
sg9
I-1
sssssa(dp123
g2
I5
sg3
(dp124
g2
I1
sg3
I1
sg8
I-1
sg9
I1
ssg8
I1
sg9
(dp125
g2
I8
sg3
(dp126
g2
I10
sg3
(dp127
g2
I9
sg3
(dp128
g2
I13
sg3
I1
sg8
I0
sg9
I-1
ssg8
I1
sg9
(dp129
g2
I7
sg3
I1
sg8
I1
sg9
I-1
sssg8
I1
sg9
(dp130
g2
I6
sg3
(dp131
g2
I23
sg3
I1
sg8
I1
sg9
I-1
ssg8
I1
sg9
(dp132
g2
I18
sg3
I-1
sg8
I1
sg9
I-1
ssssg8
I1
sg9
(dp133
g2
I0
sg3
(dp134
g2
I13
sg3
(dp135
g2
I15
sg3
I1
sg8
I0
sg9
I1
ssg8
I0
sg9
(dp136
g2
I7
sg3
I-1
sg8
I1
sg9
I-1
sssg8
I1
sg9
(dp137
g2
I13
sg3
(dp138
g2
I7
sg3
I1
sg8
I1
sg9
I-1
ssg8
I0
sg9
(dp139
g2
I19
sg3
I-1
sg8
I1
sg9
I-1
sssssa(dp140
g2
I13
sg3
(dp141
g2
I6
sg3
(dp142
g2
I14
sg3
(dp143
g2
I18
sg3
(dp144
g2
I2
sg3
I-1
sg8
I1
sg9
I1
ssg8
I1
sg9
(dp145
g2
I7
sg3
I1
sg8
I1
sg9
I1
sssg8
I0
sg9
(dp146
g2
I13
sg3
(dp147
g2
I8
sg3
I1
sg8
I1
sg9
I1
ssg8
I1
sg9
(dp148
g2
I28
sg3
I1
sg8
I1
sg9
I1
ssssg8
I1
sg9
(dp149
g2
I12
sg3
(dp150
g2
I7
sg3
(dp151
g2
I15
sg3
I1
sg8
I0
sg9
I1
ssg8
I1
sg9
(dp152
g2
I3
sg3
I-1
sg8
I1
sg9
I-1
sssg8
I1
sg9
(dp153
g2
I11
sg3
(dp154
g2
I13
sg3
I1
sg8
I1
sg9
I-1
ssg8
I1
sg9
(dp155
g2
I13
sg3
I1
sg8
I1
sg9
I1
sssssg8
I0
sg9
(dp156
g2
I8
sg3
(dp157
g2
I9
sg3
(dp158
g2
I19
sg3
(dp159
g2
I13
sg3
I-1
sg8
I-1
sg9
I-1
ssg8
I1
sg9
(dp160
g2
I10
sg3
I-1
sg8
I1
sg9
I-1
sssg8
I1
sg9
(dp161
g2
I9
sg3
I-1
sg8
I-1
sg9
I-1
sssg8
I1
sg9
(dp162
g2
I25
sg3
(dp163
g2
I6
sg3
(dp164
g2
I28
sg3
I-1
sg8
I1
sg9
I-1
ssg8
I1
sg9
(dp165
g2
I28
sg3
I-1
sg8
I1
sg9
I-1
sssg8
I1
sg9
(dp166
g2
I5
sg3
I-1
sg8
I-1
sg9
I-1
ssssa(dp167
g2
I13
sg3
(dp168
g2
I13
sg3
(dp169
g2
I5
sg3
(dp170
g2
I1
sg3
I1
sg8
I-1
sg9
I1
ssg8
I1
sg9
(dp171
g2
I25
sg3
(dp172
g2
I7
sg3
I1
sg8
I1
sg9
I1
ssg8
I0
sg9
(dp173
g2
I7
sg3
I1
sg8
I1
sg9
I-1
ssssg8
I1
sg9
(dp174
g2
I23
sg3
(dp175
g2
I6
sg3
(dp176
g2
I7
sg3
I1
sg8
I1
sg9
I1
ssg8
I1
sg9
(dp177
g2
I25
sg3
I1
sg8
I1
sg9
I-1
sssg8
I1
sg9
(dp178
g2
I14
sg3
(dp179
g2
I28
sg3
I1
sg8
I1
sg9
I1
ssg8
I0
sg9
(dp180
g2
I9
sg3
I-1
sg8
I1
sg9
I1
sssssg8
I0
sg9
(dp181
g2
I26
sg3
(dp182
g2
I27
sg3
(dp183
g2
I6
sg3
(dp184
g2
I7
sg3
I-1
sg8
I-1
sg9
I-1
ssg8
I0
sg9
(dp185
g2
I19
sg3
I-1
sg8
I1
sg9
I-1
sssg8
I1
sg9
(dp186
g2
I3
sg3
(dp187
g2
I27
sg3
I-1
sg8
I-1
sg9
I-1
ssg8
I1
sg9
(dp188
g2
I28
sg3
I-1
sg8
I0
sg9
I-1
ssssg8
I1
sg9
(dp189
g2
I5
sg3
(dp190
g2
I22
sg3
I1
sg8
I1
sg9
I1
ssg8
I1
sg9
(dp191
g2
I2
sg3
(dp192
g2
I19
sg3
I-1
sg8
I1
sg9
I-1
ssg8
I1
sg9
(dp193
g2
I16
sg3
I-1
sg8
I-1
sg9
I-1
sssssa(dp194
g2
I6
sg3
(dp195
g2
I25
sg3
(dp196
g2
I8
sg3
(dp197
g2
I26
sg3
(dp198
g2
I4
sg3
I1
sg8
I1
sg9
I1
ssg8
I1
sg9
(dp199
g2
I5
sg3
I1
sg8
I1
sg9
I1
sssg8
I1
sg9
(dp200
g2
I15
sg3
(dp201
g2
I18
sg3
I1
sg8
I1
sg9
I1
ssg8
I0
sg9
(dp202
g2
I13
sg3
I1
sg8
I0
sg9
I-1
ssssg8
I1
sg9
(dp203
g2
I12
sg3
(dp204
g2
I13
sg3
(dp205
g2
I7
sg3
I1
sg8
I1
sg9
I1
ssg8
I0
sg9
(dp206
g2
I6
sg3
I-1
sg8
I1
sg9
I-1
sssg8
I1
sg9
(dp207
g2
I7
sg3
(dp208
g2
I9
sg3
I1
sg8
I1
sg9
I1
ssg8
I1
sg9
(dp209
g2
I7
sg3
I-1
sg8
I0
sg9
I-1
sssssg8
I1
sg9
(dp210
g2
I12
sg3
(dp211
g2
I13
sg3
(dp212
g2
I8
sg3
(dp213
g2
I14
sg3
I1
sg8
I1
sg9
I-1
ssg8
I1
sg9
(dp214
g2
I19
sg3
I1
sg8
I1
sg9
I1
sssg8
I0
sg9
(dp215
g2
I5
sg3
(dp216
g2
I22
sg3
I1
sg8
I1
sg9
I1
ssg8
I1
sg9
(dp217
g2
I22
sg3
I-1
sg8
I1
sg9
I-1
ssssg8
I1
sg9
(dp218
g2
I13
sg3
(dp219
g2
I14
sg3
(dp220
g2
I25
sg3
I1
sg8
I1
sg9
I1
ssg8
I0
sg9
(dp221
g2
I7
sg3
I1
sg8
I1
sg9
I-1
sssg8
I0
sg9
(dp222
g2
I3
sg3
(dp223
g2
I0
sg3
I-1
sg8
I1
sg9
I-1
ssg8
I1
sg9
(dp224
g2
I10
sg3
I-1
sg8
I-1
sg9
I-1
sssssa(dp225
g2
I17
sg3
(dp226
g2
I6
sg3
(dp227
g2
I14
sg3
(dp228
g2
I14
sg3
(dp229
g2
I4
sg3
I1
sg8
I1
sg9
I1
ssg8
I1
sg9
(dp230
g2
I28
sg3
I1
sg8
I1
sg9
I1
sssg8
I0
sg9
(dp231
g2
I24
sg3
(dp232
g2
I13
sg3
I1
sg8
I0
sg9
I-1
ssg8
I1
sg9
(dp233
g2
I25
sg3
I1
sg8
I1
sg9
I1
ssssg8
I1
sg9
(dp234
g2
I7
sg3
(dp235
g2
I28
sg3
(dp236
g2
I27
sg3
I1
sg8
I1
sg9
I1
ssg8
I1
sg9
(dp237
g2
I14
sg3
I1
sg8
I0
sg9
I-1
sssg8
I1
sg9
(dp238
g2
I25
sg3
(dp239
g2
I1
sg3
I-1
sg8
I1
sg9
I-1
ssg8
I1
sg9
(dp240
g2
I11
sg3
I-1
sg8
I1
sg9
I-1
sssssg8
I1
sg9
(dp241
g2
I9
sg3
(dp242
g2
I13
sg3
(dp243
g2
I4
sg3
(dp244
g2
I1
sg3
I1
sg8
I0
sg9
I1
ssg8
I1
sg9
(dp245
g2
I6
sg3
I1
sg8
I0
sg9
I1
sssg8
I0
sg9
(dp246
g2
I13
sg3
I-1
sg8
I-1
sg9
I-1
sssg8
I1
sg9
(dp247
g2
I22
sg3
(dp248
g2
I14
sg3
(dp249
g2
I0
sg3
I1
sg8
I1
sg9
I-1
ssg8
I1
sg9
(dp250
g2
I27
sg3
I-1
sg8
I1
sg9
I1
sssg8
I1
sg9
(dp251
g2
I2
sg3
(dp252
g2
I20
sg3
I1
sg8
I1
sg9
I1
ssg8
I1
sg9
(dp253
g2
I3
sg3
I-1
sg8
I-1
sg9
I-1
sssssa(dp254
g2
I7
sg3
(dp255
g2
I8
sg3
(dp256
g2
I13
sg3
(dp257
g2
I26
sg3
(dp258
g2
I28
sg3
I1
sg8
I1
sg9
I1
ssg8
I1
sg9
(dp259
g2
I5
sg3
I1
sg8
I1
sg9
I1
sssg8
I0
sg9
(dp260
g2
I15
sg3
(dp261
g2
I1
sg3
I-1
sg8
I-1
sg9
I-1
ssg8
I0
sg9
(dp262
g2
I5
sg3
I-1
sg8
I-1
sg9
I-1
ssssg8
I1
sg9
(dp263
g2
I16
sg3
(dp264
g2
I25
sg3
(dp265
g2
I13
sg3
I1
sg8
I0
sg9
I-1
ssg8
I1
sg9
(dp266
g2
I6
sg3
I1
sg8
I1
sg9
I-1
sssg8
I1
sg9
(dp267
g2
I29
sg3
(dp268
g2
I13
sg3
I1
sg8
I0
sg9
I1
ssg8
I1
sg9
(dp269
g2
I2
sg3
I1
sg8
I1
sg9
I-1
sssssg8
I1
sg9
(dp270
g2
I6
sg3
(dp271
g2
I8
sg3
(dp272
g2
I21
sg3
(dp273
g2
I15
sg3
I-1
sg8
I0
sg9
I-1
ssg8
I1
sg9
(dp274
g2
I2
sg3
I-1
sg8
I-1
sg9
I-1
sssg8
I1
sg9
(dp275
g2
I13
sg3
(dp276
g2
I17
sg3
I-1
sg8
I1
sg9
I1
ssg8
I0
sg9
(dp277
g2
I0
sg3
I-1
sg8
I-1
sg9
I-1
ssssg8
I1
sg9
(dp278
g2
I6
sg3
(dp279
g2
I13
sg3
(dp280
g2
I5
sg3
I1
sg8
I1
sg9
I-1
ssg8
I0
sg9
(dp281
g2
I2
sg3
I-1
sg8
I-1
sg9
I-1
sssg8
I0
sg9
(dp282
g2
I26
sg3
(dp283
g2
I19
sg3
I-1
sg8
I-1
sg9
I-1
ssg8
I1
sg9
(dp284
g2
I7
sg3
I-1
sg8
I0
sg9
I-1
sssssa.