(lp0
(dp1
S'index'
p2
I15
sS'right'
p3
(dp4
g2
I25
sg3
(dp5
g2
I13
sg3
(dp6
g2
I25
sg3
(dp7
g2
I27
sg3
I1
sS'value'
p8
I1
sS'left'
p9
I1
ssg8
I1
sg9
(dp10
g2
I2
sg3
I1
sg8
I1
sg9
I-1
sssg8
I0
sg9
(dp11
g2
I2
sg3
(dp12
g2
I23
sg3
I-1
sg8
I1
sg9
I-1
ssg8
I1
sg9
(dp13
g2
I22
sg3
I-1
sg8
I-1
sg9
I-1
ssssg8
I0
sg9
(dp14
g2
I7
sg3
(dp15
g2
I9
sg3
(dp16
g2
I2
sg3
I1
sg8
I1
sg9
I1
ssg8
I1
sg9
(dp17
g2
I3
sg3
I1
sg8
I-1
sg9
I1
sssg8
I1
sg9
(dp18
g2
I9
sg3
(dp19
g2
I27
sg3
I-1
sg8
I1
sg9
I-1
ssg8
I1
sg9
(dp20
g2
I16
sg3
I-1
sg8
I-1
sg9
I-1
sssssg8
I1
sg9
(dp21
g2
I25
sg3
(dp22
g2
I5
sg3
(dp23
g2
I29
sg3
(dp24
g2
I26
sg3
I1
sg8
I-1
sg9
I1
ssg8
I1
sg9
(dp25
g2
I4
sg3
I1
sg8
I1
sg9
I1
sssg8
I1
sg9
(dp26
g2
I7
sg3
(dp27
g2
I13
sg3
I1
sg8
I0
sg9
I-1
ssg8
I1
sg9
(dp28
g2
I13
sg3
I-1
sg8
I0
sg9
I-1
ssssg8
I1
sg9
(dp29
g2
I7
sg3
(dp30
g2
I6
sg3
(dp31
g2
I0
sg3
I1
sg8
I1
sg9
I1
ssg8
I1
sg9
(dp32
g2
I27
sg3
I1
sg8
I1
sg9
I-1
sssg8
I1
sg9
(dp33
g2
I24
sg3
(dp34
g2
I21
sg3
I-1
sg8
I1
sg9
I-1
ssg8
I1
sg9
(dp35
g2
I5
sg3
I1
sg8
I1
sg9
I-1
sssssa(dp36
g2
I13
sg3
(dp37
g2
I14
sg3
(dp38
g2
I13
sg3
(dp39
g2
I3
sg3
(dp40
g2
I1
sg3
I1
sg8
I1
sg9
I1
ssg8
I1
sg9
(dp41
g2
I10
sg3
I1
sg8
I1
sg9
I1
sssg8
I1
sg9
(dp42
g2
I25
sg3
(dp43
g2
I6
sg3
I1
sg8
I1
sg9
I1
ssg8
I1
sg9
(dp44
g2
I22
sg3
I1
sg8
I1
sg9
I1
ssssg8
I0
sg9
(dp45
g2
I7
sg3
(dp46
g2
I15
sg3
(dp47
g2
I24
sg3
I1
sg8
I1
sg9
I1
ssg8
I0
sg9
(dp48
g2
I13
sg3
I1
sg8
I1
sg9
I1
sssg8
I1
sg9
(dp49
g2
I25
sg3
(dp50
g2
I11
sg3
I-1
sg8
I1
sg9
I-1
ssg8
I1
sg9
(dp51
g2
I24
sg3
I-1
sg8
I1
sg9
I-1
sssssg8
I0
sg9
(dp52
g2
I8
sg3
(dp53
g2
I15
sg3
I-1
sg8
I-1
sg9
I-1
ssg8
I1
sg9
(dp54
g2
I7
sg3
(dp55
g2
I11
sg3
(dp56
g2
I5
sg3
I1
sg8
I1
sg9
I-1
ssg8
I1
sg9
(dp57
g2
I1
sg3
I-1
sg8
I-1
sg9
I-1
sssg8
I1
sg9
(dp58
g2
I10
sg3
(dp59
g2
I0
sg3
I-1
sg8
I-1
sg9
I-1
ssg8
I1
sg9
(dp60
g2
I6
sg3
I-1
sg8
I0
sg9
I-1
sssssa(dp61
g2
I29
sg3
(dp62
g2
I4
sg3
(dp63
g2
I13
sg3
(dp64
g2
I14
sg3
(dp65
g2
I13
sg3
I1
sg8
I1
sg9
I1
ssg8
I0
sg9
(dp66
g2
I19
sg3
I1
sg8
I1
sg9
I1
sssg8
I0
sg9
(dp67
g2
I12
sg3
(dp68
g2
I1
sg3
I-1
sg8
I1
sg9
I-1
ssg8
I1
sg9
(dp69
g2
I0
sg3
I-1
sg8
I1
sg9
I-1
ssssg8
I1
sg9
(dp70
g2
I21
sg3
(dp71
g2
I17
sg3
(dp72
g2
I15
sg3
I1
sg8
I1
sg9
I-1
ssg8
I1
sg9
(dp73
g2
I5
sg3
I1
sg8
I1
sg9
I1
sssg8
I1
sg9
(dp74
g2
I2
sg3
(dp75
g2
I0
sg3
I1
sg8
I1
sg9
I1
ssg8
I1
sg9
(dp76
g2
I13
sg3
I1
sg8
I0
sg9
I-1
sssssg8
I1
sg9
(dp77
g2
I3
sg3
(dp78
g2
I8
sg3
(dp79
g2
I7
sg3
(dp80
g2
I15
sg3
I1
sg8
I0
sg9
I1
ssg8
I1
sg9
(dp81
g2
I6
sg3
I-1
sg8
I1
sg9
I-1
sssg8
I1
sg9
(dp82
g2
I5
sg3
(dp83
g2
I17
sg3
I1
sg8
I1
sg9
I1
ssg8
I1
sg9
(dp84
g2
I13
sg3
I1
sg8
I0
sg9
I-1
ssssg8
I1
sg9
(dp85
g2
I13
sg3
I1
sg8
I1
sg9
(dp86
g2
I12
sg3
I-1
sg8
I-1
sg9
I-1
ssssa(dp87
g2
I12
sg3
(dp88
g2
I14
sg3
(dp89
g2
I8
sg3
(dp90
g2
I21
sg3
(dp91
g2
I13
sg3
I1
sg8
I0
sg9
I-1
ssg8
I1
sg9
(dp92
g2
I25
sg3
I-1
sg8
I0
sg9
I-1
sssg8
I1
sg9
(dp93
g2
I26
sg3
(dp94
g2
I15
sg3
I1
sg8
I1
sg9
I1
ssg8
I1
sg9
(dp95
g2
I25
sg3
I1
sg8
I1
sg9
I1
ssssg8
I0
sg9
(dp96
g2
I23
sg3
(dp97
g2
I25
sg3
(dp98
g2
I13
sg3
I1
sg8
I0
sg9
I-1
ssg8
I1
sg9
(dp99
g2
I1
sg3
I-1
sg8
I1
sg9
I1
sssg8
I1
sg9
(dp100
g2
I5
sg3
(dp101
g2
I16
sg3
I1
sg8
I1
sg9
I1
ssg8
I1
sg9
(dp102
g2
I25
sg3
I1
sg8
I1
sg9
I-1
sssssg8
I1
sg9
(dp103
g2
I6
sg3
(dp104
g2
I15
sg3
(dp105
g2
I21
sg3
(dp106
g2
I26
sg3
I1
sg8
I1
sg9
I1
ssg8
I1
sg9
(dp107
g2
I23
sg3
I1
sg8
I1
sg9
I1
sssg8
I1
sg9
(dp108
g2
I1
sg3
(dp109
g2
I24
sg3
I-1
sg8
I1
sg9
I1
ssg8
I0
sg9
(dp110
g2
I14
sg3
I1
sg8
I0
sg9
I1
ssssg8
I1
sg9
(dp111
g2
I28
sg3
(dp112
g2
I5
sg3
(dp113
g2
I23
sg3
I1
sg8
I1
sg9
I1
ssg8
I1
sg9
(dp114
g2
I6
sg3
I-1
sg8
I0
sg9
I-1
sssg8
I1
sg9
(dp115
g2
I27
sg3
(dp116
g2
I5
sg3
I1
sg8
I1
sg9
I-1
ssg8
I1
sg9
(dp117
g2
I15
sg3
I1
sg8
I1
sg9
I-1
sssssa(dp118
g2
I7
sg3
(dp119
g2
I15
sg3
(dp120
g2
I4
sg3
(dp121
g2
I13
sg3
(dp122
g2
I28
sg3
I1
sg8
I1
sg9
I1
ssg8
I0
sg9
(dp123
g2
I6
sg3
I-1
sg8
I0
sg9
I1
sssg8
I1
sg9
(dp124
g2
I3
sg3
(dp125
g2
I1
sg3
I1
sg8
I1
sg9
I1
ssg8
I1
sg9
(dp126
g2
I24
sg3
I1
sg8
I-1
sg9
I1
ssssg8
I0
sg9
(dp127
g2
I13
sg3
(dp128
g2
I6
sg3
(dp129
g2
I25
sg3
I1
sg8
I1
sg9
I1
ssg8
I1
sg9
(dp130
g2
I21
sg3
I1
sg8
I1
sg9
I1
sssg8
I0
sg9
(dp131
g2
I29
sg3
(dp132
g2
I28
sg3
I-1
sg8
I1
sg9
I-1
ssg8
I1
sg9
(dp133
g2
I6
sg3
I-1
sg8
I0
sg9
I1
sssssg8
I1
sg9
(dp134
g2
I5
sg3
(dp135
g2
I15
sg3
I1
sg8
I-1
sg9
I1
ssg8
I1
sg9
(dp136
g2
I13
sg3
(dp137
g2
I16
sg3
(dp138
g2
I15
sg3
I-1
sg8
I0
sg9
I-1
ssg8
I1
sg9
(dp139
g2
I0
sg3
I-1
sg8
I1
sg9
I-1
sssg8
I0
sg9
(dp140
g2
I3
sg3
(dp141
g2
I15
sg3
I-1
sg8
I0
sg9
I-1
ssg8
I1
sg9
(dp142
g2
I14
sg3
I-1
sg8
I-1
sg9
I-1
sssssa(dp143
g2
I25
sg3
(dp144
g2
I14
sg3
(dp145
g2
I22
sg3
(dp146
g2
I7
sg3
(dp147
g2
I5
sg3
I1
sg8
I1
sg9
I1
ssg8
I1
sg9
(dp148
g2
I9
sg3
I-1
sg8
I1
sg9
I-1
sssg8
I1
sg9
(dp149
g2
I12
sg3
(dp150
g2
I6
sg3
I1
sg8
I1
sg9
I1
ssg8
I1
sg9
(dp151
g2
I7
sg3
I1
sg8
I1
sg9
I-1
ssssg8
I0
sg9
(dp152
g2
I15
sg3
(dp153
g2
I8
sg3
(dp154
g2
I6
sg3
I1
sg8
I1
sg9
I-1
ssg8
I1
sg9
(dp155
g2
I7
sg3
I1
sg8
I1
sg9
I-1
sssg8
I0
sg9
(dp156
g2
I13
sg3
(dp157
g2
I8
sg3
I-1
sg8
I1
sg9
I1
ssg8
I0
sg9
(dp158
g2
I28
sg3
I-1
sg8
I1
sg9
I-1
sssssg8
I1
sg9
(dp159
g2
I6
sg3
(dp160
g2
I24
sg3
(dp161
g2
I13
sg3
(dp162
g2
I3
sg3
I1
sg8
I1
sg9
I1
ssg8
I0
sg9
(dp163
g2
I7
sg3
I1
sg8
I1
sg9
I-1
sssg8
I1
sg9
(dp164
g2
I12
sg3
(dp165
g2
I13
sg3
I1
sg8
I1
sg9
I-1
ssg8
I1
sg9
(dp166
g2
I9
sg3
I-1
sg8
I1
sg9
I1
ssssg8
I1
sg9
(dp167
g2
I24
sg3
(dp168
g2
I12
sg3
(dp169
g2
I13
sg3
I1
sg8
I0
sg9
I-1
ssg8
I1
sg9
(dp170
g2
I0
sg3
I-1
sg8
I1
sg9
I-1
sssg8
I1
sg9
(dp171
g2
I28
sg3
(dp172
g2
I7
sg3
I1
sg8
I1
sg9
I-1
ssg8
I1
sg9
(dp173
g2
I9
sg3
I-1
sg8
I1
sg9
I-1
sssssa(dp174
g2
I25
sg3
(dp175
g2
I3
sg3
(dp176
g2
I21
sg3
(dp177
g2
I15
sg3
(dp178
g2
I7
sg3
I1
sg8
I1
sg9
I-1
ssg8
I1
sg9
(dp179
g2
I0
sg3
I1
sg8
I1
sg9
I1
sssg8
I1
sg9
(dp180
g2
I13
sg3
(dp181
g2
I28
sg3
I1
sg8
I0
sg9
I1
ssg8
I0
sg9
(dp182
g2
I0
sg3
I-1
sg8
I1
sg9
I-1
ssssg8
I1
sg9
(dp183
g2
I7
sg3
(dp184
g2
I4
sg3
(dp185
g2
I28
sg3
I1
sg8
I1
sg9
I1
ssg8
I1
sg9
(dp186
g2
I15
sg3
I1
sg8
I0
sg9
I1
sssg8
I1
sg9
(dp187
g2
I12
sg3
(dp188
g2
I5
sg3
I1
sg8
I1
sg9
I-1
ssg8
I1
sg9
(dp189
g2
I1
sg3
I-1
sg8
I-1
sg9
I-1
sssssg8
I1
sg9
(dp190
g2
I19
sg3
(dp191
g2
I14
sg3
(dp192
g2
I0
sg3
(dp193
g2
I6
sg3
I1
sg8
I1
sg9
I-1
ssg8
I1
sg9
(dp194
g2
I7
sg3
I1
sg8
I1
sg9
I-1
sssg8
I0
sg9
(dp195
g2
I13
sg3
(dp196
g2
I5
sg3
I1
sg8
I1
sg9
I-1
ssg8
I0
sg9
(dp197
g2
I19
sg3
I-1
sg8
I1
sg9
I-1
ssssg8
I1
sg9
(dp198
g2
I1
sg3
(dp199
g2
I13
sg3
(dp200
g2
I0
sg3
I1
sg8
I1
sg9
I1
ssg8
I0
sg9
(dp201
g2
I10
sg3
I-1
sg8
I1
sg9
I-1
sssg8
I1
sg9
(dp202
g2
I29
sg3
(dp203
g2
I13
sg3
I1
sg8
I0
sg9
I-1
ssg8
I1
sg9
(dp204
g2
I6
sg3
I-1
sg8
I1
sg9
I-1
sssssa(dp205
g2
I26
sg3
(dp206
g2
I12
sg3
(dp207
g2
I7
sg3
(dp208
g2
I13
sg3
(dp209
g2
I18
sg3
I1
sg8
I1
sg9
I1
ssg8
I0
sg9
(dp210
g2
I25
sg3
I-1
sg8
I0
sg9
I1
sssg8
I1
sg9
(dp211
g2
I1
sg3
(dp212
g2
I3
sg3
I-1
sg8
I1
sg9
I-1
ssg8
I1
sg9
(dp213
g2
I13
sg3
I1
sg8
I0
sg9
I-1
ssssg8
I1
sg9
(dp214
g2
I25
sg3
(dp215
g2
I6
sg3
(dp216
g2
I19
sg3
I1
sg8
I-1
sg9
I1
ssg8
I1
sg9
(dp217
g2
I27
sg3
I1
sg8
I1
sg9
I1
sssg8
I1
sg9
(dp218
g2
I15
sg3
(dp219
g2
I14
sg3
I1
sg8
I0
sg9
I1
ssg8
I1
sg9
(dp220
g2
I7
sg3
I-1
sg8
I1
sg9
I-1
sssssg8
I1
sg9
(dp221
g2
I8
sg3
(dp222
g2
I13
sg3
(dp223
g2
I15
sg3
(dp224
g2
I1
sg3
I1
sg8
I1
sg9
I1
ssg8
I0
sg9
(dp225
g2
I13
sg3
I1
sg8
I1
sg9
I-1
sssg8
I0
sg9
(dp226
g2
I6
sg3
(dp227
g2
I6
sg3
I-1
sg8
I1
sg9
I-1
ssg8
I1
sg9
(dp228
g2
I3
sg3
I-1
sg8
I1
sg9
I-1
ssssg8
I1
sg9
(dp229
g2
I12
sg3
(dp230
g2
I7
sg3
(dp231
g2
I6
sg3
I1
sg8
I1
sg9
I1
ssg8
I1
sg9
(dp232
g2
I17
sg3
I-1
sg8
I1
sg9
I-1
sssg8
I1
sg9
(dp233
g2
I21
sg3
(dp234
g2
I25
sg3
I1
sg8
I1
sg9
I-1
ssg8
I1
sg9
(dp235
g2
I25
sg3
I-1
sg8
I1
sg9
I-1
sssssa(dp236
g2
I13
sg3
(dp237
g2
I14
sg3
(dp238
g2
I7
sg3
(dp239
g2
I15
sg3
(dp240
g2
I14
sg3
I1
sg8
I1
sg9
I1
ssg8
I0
sg9
(dp241
g2
I25
sg3
I1
sg8
I1
sg9
I1
sssg8
I1
sg9
(dp242
g2
I5
sg3
(dp243
g2
I20
sg3
I1
sg8
I1
sg9
I1
ssg8
I1
sg9
(dp244
g2
I7
sg3
I-1
sg8
I0
sg9
I1
ssssg8
I0
sg9
(dp245
g2
I1
sg3
(dp246
g2
I7
sg3
(dp247
g2
I4
sg3
I1
sg8
I1
sg9
I1
ssg8
I1
sg9
(dp248
g2
I25
sg3
I1
sg8
I1
sg9
I-1
sssg8
I1
sg9
(dp249
g2
I16
sg3
(dp250
g2
I15
sg3
I1
sg8
I0
sg9
I-1
ssg8
I1
sg9
(dp251
g2
I5
sg3
I1
sg8
I1
sg9
I1
sssssg8
I0
sg9
(dp252
g2
I23
sg3
(dp253
g2
I28
sg3
(dp254
g2
I1
sg3
(dp255
g2
I14
sg3
I-1
sg8
I1
sg9
I-1
ssg8
I1
sg9
(dp256
g2
I25
sg3
I-1
sg8
I1
sg9
I-1
sssg8
I1
sg9
(dp257
g2
I24
sg3
(dp258
g2
I5
sg3
I-1
sg8
I-1
sg9
I-1
ssg8
I1
sg9
(dp259
g2
I10
sg3
I-1
sg8
I1
sg9
I-1
ssssg8
I1
sg9
(dp260
g2
I6
sg3
(dp261
g2
I6
sg3
I-1
sg8
I0
sg9
I-1
ssg8
I0
sg9
(dp262
g2
I1
sg3
(dp263
g2
I17
sg3
I-1
sg8
I1
sg9
I-1
ssg8
I1
sg9
(dp264
g2
I17
sg3
I-1
sg8
I1
sg9
I-1
sssssa(dp265
g2
I25
sg3
(dp266
g2
I7
sg3
(dp267
g2
I1
sg3
(dp268
g2
I27
sg3
(dp269
g2
I18
sg3
I1
sg8
I1
sg9
I1
ssg8
I1
sg9
(dp270
g2
I19
sg3
I1
sg8
I1
sg9
I1
sssg8
I0
sg9
(dp271
g2
I5
sg3
(dp272
g2
I27
sg3
I1
sg8
I1
sg9
I1
ssg8
I1
sg9
(dp273
g2
I0
sg3
I1
sg8
I1
sg9
I1
ssssg8
I1
sg9
(dp274
g2
I5
sg3
(dp275
g2
I19
sg3
I1
sg8
I1
sg9
I1
ssg8
I1
sg9
(dp276
g2
I22
sg3
(dp277
g2
I14
sg3
I-1
sg8
I0
sg9
I-1
ssg8
I1
sg9
(dp278
g2
I26
sg3
I-1
sg8
I-1
sg9
I-1
sssssg8
I1
sg9
(dp279
g2
I8
sg3
(dp280
g2
I19
sg3
(dp281
g2
I13
sg3
(dp282
g2
I14
sg3
I1
sg8
I0
sg9
I-1
ssg8
I0
sg9
(dp283
g2
I5
sg3
I-1
sg8
I-1
sg9
I-1
sssg8
I1
sg9
(dp284
g2
I6
sg3
(dp285
g2
I13
sg3
I1
sg8
I0
sg9
I-1
ssg8
I1
sg9
(dp286
g2
I19
sg3
I-1
sg8
I-1
sg9
I-1
ssssg8
I1
sg9
(dp287
g2
I14
sg3
(dp288
g2
I29
sg3
(dp289
g2
I13
sg3
I1
sg8
I0
sg9
I-1
ssg8
I1
sg9
(dp290
g2
I15
sg3
I-1
sg8
I1
sg9
I-1
sssg8
I0
sg9
(dp291
g2
I24
sg3
(dp292
g2
I7
sg3
I1
sg8
I1
sg9
I-1
ssg8
I1
sg9
(dp293
g2
I7
sg3
I1
sg8
I1
sg9
I-1
sssssa.