(lp0
(dp1
S'alpha'
p2
F1.3249108481012084
sS'SSLfinal_State'
p3
(dp4
I0
(dp5
S'URL_of_Anchor'
p6
(dp7
I0
(dp8
S'Links_pointing_to_page'
p9
(dp10
I0
(dp11
S'web_traffic'
p12
(dp13
I0
I-1
sI1
(dp14
S'having_Sub_Domain'
p15
(dp16
I0
I-1
sI1
I1
sI-1
I-1
sssI-1
I-1
sssI1
I-1
sI-1
I1
sssI1
I-1
sI-1
I-1
sssI1
(dp17
g15
(dp18
I0
(dp19
S'Links_in_tags'
p20
(dp21
I0
(dp22
g12
(dp23
I0
(dp24
g9
(dp25
I0
I1
sI1
I1
sI-1
I1
sssI1
(dp26
S'age_of_domain'
p27
(dp28
I1
I1
sI-1
I1
sssI-1
(dp29
g9
(dp30
I0
I1
sI1
I1
sssssI1
(dp31
g12
(dp32
I0
(dp33
S'Prefix_Suffix'
p34
(dp35
I1
I1
sI-1
I-1
sssI1
(dp36
g27
(dp37
I1
I1
sI-1
I1
sssI-1
(dp38
S'having_IP_Address'
p39
(dp40
I1
I1
sI-1
I-1
sssssI-1
(dp41
g12
(dp42
I0
(dp43
g6
(dp44
I0
I-1
sI1
I1
sI-1
I-1
sssI1
(dp45
g27
(dp46
I1
I1
sI-1
I1
sssI-1
(dp47
g6
(dp48
I0
I1
sI1
I1
sI-1
I-1
sssssssI1
(dp49
g12
(dp50
I0
(dp51
g20
(dp52
I0
(dp53
S'DNSRecord'
p54
(dp55
I1
I1
sI-1
I1
sssI1
(dp56
g9
(dp57
I0
I1
sI1
I1
sI-1
I1
sssI-1
(dp58
g54
(dp59
I1
I1
sI-1
I1
sssssI1
(dp60
g20
(dp61
I0
(dp62
S'Google_Index'
p63
(dp64
I1
I1
sI-1
I1
sssI1
(dp65
S'Domain_registeration_length'
p66
(dp67
I1
I1
sI-1
I1
sssI-1
(dp68
g6
(dp69
I0
I1
sI1
I1
sI-1
I-1
sssssI-1
(dp70
g6
(dp71
I0
I1
sI1
I1
sI-1
I-1
sssssI-1
(dp72
g20
(dp73
I0
(dp74
g12
(dp75
I0
(dp76
g54
(dp77
I1
I1
sI-1
I-1
sssI1
I1
sI-1
(dp78
g6
(dp79
I0
I1
sI1
I1
sI-1
I-1
sssssI1
(dp80
g6
(dp81
I0
(dp82
g12
(dp83
I0
I-1
sI1
I1
sI-1
I1
sssI1
(dp84
g66
(dp85
I1
I1
sI-1
I1
sssI-1
(dp86
g39
(dp87
I1
I1
sI-1
I-1
sssssI-1
(dp88
g9
(dp89
I0
(dp90
g12
(dp91
I0
I-1
sI1
I1
sI-1
I-1
sssI1
(dp92
g12
(dp93
I0
I1
sI1
I1
sI-1
I1
sssI-1
(dp94
S'Iframe'
p95
(dp96
I1
I1
sI-1
I-1
sssssssssI-1
(dp97
g6
(dp98
I0
(dp99
g15
(dp100
I0
(dp101
g20
(dp102
I0
(dp103
g39
(dp104
I1
I1
sI-1
I-1
sssI1
(dp105
g9
(dp106
I0
I1
sI1
I-1
sssI-1
(dp107
g12
(dp108
I0
I-1
sI1
I-1
sI-1
I-1
sssssI1
(dp109
g12
(dp110
I0
(dp111
g20
(dp112
I0
I1
sI1
I1
sI-1
I-1
sssI1
(dp113
g9
(dp114
I0
I-1
sI1
I1
sI-1
I-1
sssI-1
(dp115
g20
(dp116
I0
I1
sI1
I1
sI-1
I1
sssssI-1
(dp117
g20
(dp118
I0
(dp119
g9
(dp120
I0
I-1
sI1
I-1
sI-1
I1
sssI1
(dp121
g9
(dp122
I0
I1
sI1
I-1
sssI-1
(dp123
g12
(dp124
I0
I-1
sI1
I-1
sI-1
I-1
sssssssI1
(dp125
g15
(dp126
I0
(dp127
g66
(dp128
I1
I-1
sI-1
I1
sssI1
(dp129
g20
(dp130
I0
I1
sI1
(dp131
S'on_mouseover'
p132
(dp133
I1
I1
sI-1
I-1
sssI-1
I-1
sssI-1
(dp134
g34
(dp135
I1
I1
sI-1
(dp136
g20
(dp137
I0
I-1
sI-1
I-1
sssssssI-1
I-1
ssssa(dp138
g2
F1.3497742779234447
sg3
(dp139
I0
(dp140
g6
(dp141
I0
(dp142
g9
(dp143
I0
(dp144
g20
(dp145
I0
I-1
sI1
I-1
sI-1
(dp146
g27
(dp147
I1
I-1
sI-1
I-1
sssssI1
I-1
sI-1
I1
sssI1
I-1
sI-1
I-1
sssI1
(dp148
g15
(dp149
I0
(dp150
g20
(dp151
I0
(dp152
g12
(dp153
I0
(dp154
S'Page_Rank'
p155
(dp156
I1
I1
sI-1
I1
sssI1
(dp157
g6
(dp158
I0
I1
sI1
I1
sI-1
I-1
sssI-1
(dp159
g9
(dp160
I0
I1
sI1
I1
sssssI1
(dp161
g12
(dp162
I0
(dp163
g34
(dp164
I1
I1
sI-1
I-1
sssI1
(dp165
g6
(dp166
I0
I1
sI1
I1
sI-1
I-1
sssI-1
(dp167
g39
(dp168
I1
I1
sI-1
I-1
sssssI-1
(dp169
g12
(dp170
I0
(dp171
g6
(dp172
I0
I-1
sI1
I1
sI-1
I-1
sssI1
(dp173
g27
(dp174
I1
I1
sI-1
I1
sssI-1
(dp175
g39
(dp176
I1
I1
sI-1
I-1
sssssssI1
(dp177
g20
(dp178
I0
(dp179
g12
(dp180
I0
(dp181
g54
(dp182
I1
I1
sI-1
I1
sssI1
(dp183
g63
(dp184
I1
I1
sI-1
I1
sssI-1
(dp185
g6
(dp186
I0
I1
sI1
I1
sI-1
I-1
sssssI1
(dp187
g12
(dp188
I0
(dp189
g9
(dp190
I0
I1
sI1
I1
sI-1
I1
sssI1
(dp191
g66
(dp192
I1
I1
sI-1
I1
sssI-1
I1
sssI-1
(dp193
g12
(dp194
I0
(dp195
g54
(dp196
I1
I1
sI-1
I1
sssI1
(dp197
g6
(dp198
I0
I1
sI1
I1
sI-1
I-1
sssI-1
(dp199
g6
(dp200
I0
I1
sI1
I1
sI-1
I-1
sssssssI-1
(dp201
g12
(dp202
I0
(dp203
g20
(dp204
I0
(dp205
g54
(dp206
I1
I1
sI-1
I-1
sssI1
(dp207
g9
(dp208
I0
I-1
sI1
I1
sI-1
I-1
sssI-1
(dp209
g27
(dp210
I1
I1
sI-1
I-1
sssssI1
(dp211
g20
(dp212
I0
I1
sI1
(dp213
g6
(dp214
I0
I1
sI1
I1
sI-1
I1
sssI-1
(dp215
g9
(dp216
I0
I1
sI1
I1
sI-1
I1
sssssI-1
(dp217
g6
(dp218
I0
(dp219
S'Request_URL'
p220
(dp221
I1
I1
sI-1
I1
sssI1
I1
sI-1
I-1
sssssssI-1
(dp222
g15
(dp223
I0
(dp224
g6
(dp225
I0
(dp226
g20
(dp227
I0
(dp228
g9
(dp229
I0
I-1
sI1
I1
sI-1
I1
sssI1
(dp230
g12
(dp231
I0
I-1
sI1
I1
sI-1
I1
sssI-1
(dp232
g9
(dp233
I0
I-1
sI1
I-1
sI-1
I-1
sssssI1
(dp234
g66
(dp235
I1
I-1
sI-1
I1
sssI-1
I-1
sssI1
(dp236
g20
(dp237
I0
(dp238
g12
(dp239
I0
(dp240
S'Submitting_to_email'
p241
(dp242
I1
I1
sI-1
I-1
sssI1
(dp243
S'HTTPS_token'
p244
(dp245
I1
I-1
sI-1
I1
sssI-1
(dp246
g6
(dp247
I0
I1
sI1
I1
sI-1
I-1
sssssI1
(dp248
g6
(dp249
I0
(dp250
g12
(dp251
I0
I1
sI1
I-1
sI-1
I1
sssI1
(dp252
g132
(dp253
I1
I1
sI-1
I-1
sssI-1
I-1
sssI-1
(dp254
g12
(dp255
I0
(dp256
S'having_At_Symbol'
p257
(dp258
I1
I-1
sI-1
I-1
sssI1
(dp259
g9
(dp260
I0
I-1
sI1
I1
sI-1
I-1
sssI-1
(dp261
g6
(dp262
I0
I1
sI1
I-1
sI-1
I-1
sssssssI-1
(dp263
g20
(dp264
I0
(dp265
g6
(dp266
I0
(dp267
g39
(dp268
I1
I-1
sI-1
I1
sssI1
(dp269
g63
(dp270
I1
I-1
sI-1
I-1
sssI-1
I-1
sssI1
(dp271
g6
(dp272
I0
(dp273
g9
(dp274
I0
I1
sI1
I-1
sssI1
I1
sI-1
I-1
sssI-1
(dp275
g12
(dp276
I0
(dp277
g63
(dp278
I1
I-1
sI-1
I-1
sssI1
(dp279
g9
(dp280
I0
I-1
sI1
I-1
sI-1
I-1
sssI-1
I-1
ssssssssa(dp281
g2
F1.2959104907857555
sg3
(dp282
I0
(dp283
g9
(dp284
I0
(dp285
g6
(dp286
I0
(dp287
g12
(dp288
I0
I-1
sI1
(dp289
g20
(dp290
I1
I-1
sI-1
I-1
sssI-1
I-1
sssI1
I-1
sI-1
I-1
sssI1
I-1
sI-1
(dp291
g6
(dp292
I0
I1
sI-1
I-1
sssssI1
(dp293
g15
(dp294
I0
(dp295
g20
(dp296
I0
(dp297
g12
(dp298
I0
(dp299
g155
(dp300
I1
I1
sI-1
I1
sssI1
(dp301
g9
(dp302
I0
I1
sI1
I1
sI-1
I1
sssI-1
(dp303
g9
(dp304
I0
I1
sI1
I1
sssssI1
(dp305
g27
(dp306
I1
(dp307
g9
(dp308
I0
I-1
sI1
I1
sI-1
I1
sssI-1
(dp309
g12
(dp310
I0
I-1
sI1
I1
sI-1
I1
sssssI-1
(dp311
g27
(dp312
I1
(dp313
g6
(dp314
I0
I1
sI1
I1
sI-1
I-1
sssI-1
(dp315
g220
(dp316
I1
I1
sI-1
I1
sssssssI1
(dp317
g20
(dp318
I0
(dp319
g12
(dp320
I0
(dp321
g54
(dp322
I1
I1
sI-1
I1
sssI1
(dp323
g63
(dp324
I1
I1
sI-1
I1
sssI-1
(dp325
g6
(dp326
I0
I1
sI1
I1
sI-1
I-1
sssssI1
(dp327
g12
(dp328
I0
(dp329
g9
(dp330
I0
I1
sI1
I1
sI-1
I1
sssI1
(dp331
g95
(dp332
I1
I1
sI-1
I1
sssI-1
I1
sssI-1
(dp333
g12
(dp334
I0
(dp335
g54
(dp336
I1
I1
sI-1
I1
sssI1
(dp337
g6
(dp338
I0
I1
sI1
I1
sI-1
I-1
sssI-1
(dp339
g6
(dp340
I0
I1
sI1
I1
sI-1
I-1
sssssssI-1
(dp341
g20
(dp342
I0
(dp343
g12
(dp344
I0
(dp345
g54
(dp346
I1
I1
sI-1
I-1
sssI1
I1
sI-1
(dp347
g6
(dp348
I0
I1
sI1
I1
sI-1
I-1
sssssI1
(dp349
g6
(dp350
I0
(dp351
g27
(dp352
I1
I1
sI-1
I1
sssI1
(dp353
g66
(dp354
I1
I1
sI-1
I1
sssI-1
(dp355
g39
(dp356
I1
I1
sI-1
I-1
sssssI-1
(dp357
g9
(dp358
I0
(dp359
g6
(dp360
I0
I-1
sI1
I1
sI-1
I-1
sssI1
(dp361
g220
(dp362
I1
I1
sI-1
I1
sssI-1
(dp363
g95
(dp364
I1
I1
sI-1
I-1
sssssssssI-1
(dp365
g15
(dp366
I0
(dp367
g20
(dp368
I0
(dp369
g6
(dp370
I0
(dp371
g39
(dp372
I1
I1
sI-1
I-1
sssI1
I1
sI-1
I-1
sssI1
(dp373
g6
(dp374
I0
(dp375
g9
(dp376
I0
I1
sI1
I-1
sssI1
I1
sI-1
I-1
sssI-1
(dp377
g12
(dp378
I0
(dp379
g34
(dp380
I1
I1
sI-1
I-1
sssI1
(dp381
g9
(dp382
I0
I-1
sI1
I-1
sI-1
I-1
sssI-1
(dp383
g34
(dp384
I1
I1
sI-1
I-1
sssssssI1
(dp385
g20
(dp386
I0
(dp387
g12
(dp388
I0
(dp389
g9
(dp390
I0
I1
sI1
I1
sI-1
I1
sssI1
(dp391
g39
(dp392
I1
I-1
sI-1
I1
sssI-1
(dp393
g6
(dp394
I0
I1
sI1
I1
sI-1
I-1
sssssI1
(dp395
g6
(dp396
I0
(dp397
g12
(dp398
I0
I1
sI1
I-1
sI-1
I1
sssI1
(dp399
g132
(dp400
I1
I1
sI-1
I-1
sssI-1
I-1
sssI-1
(dp401
g12
(dp402
I0
(dp403
g257
(dp404
I1
I-1
sI-1
I-1
sssI1
(dp405
g39
(dp406
I1
I-1
sI-1
I-1
sssI-1
(dp407
g220
(dp408
I1
I-1
sI-1
I-1
sssssssI-1
(dp409
g20
(dp410
I0
(dp411
g6
(dp412
I0
(dp413
g27
(dp414
I1
I-1
sI-1
I-1
sssI1
(dp415
g63
(dp416
I1
I-1
sI-1
I-1
sssI-1
I-1
sssI1
(dp417
g6
(dp418
I0
(dp419
g9
(dp420
I0
I1
sI1
I-1
sssI1
I1
sI-1
I-1
sssI-1
(dp421
g12
(dp422
I0
(dp423
g63
(dp424
I1
I-1
sI-1
I-1
sssI1
(dp425
g9
(dp426
I0
I-1
sI1
I-1
sI-1
I-1
sssI-1
I-1
ssssssssa(dp427
g2
F1.301076386339904
sg15
(dp428
I0
(dp429
g20
(dp430
I0
(dp431
g3
(dp432
I0
I-1
sI1
(dp433
g12
(dp434
I0
(dp435
g155
(dp436
I1
I1
sI-1
I1
sssI1
(dp437
g9
(dp438
I0
I1
sI1
I1
sI-1
I1
sssI-1
(dp439
g9
(dp440
I0
I1
sI1
I1
sssssI-1
(dp441
g6
(dp442
I0
(dp443
g9
(dp444
I0
I-1
sI1
I1
sI-1
I1
sssI1
I1
sI-1
I-1
sssssI1
(dp445
g9
(dp446
I0
(dp447
g27
(dp448
I1
(dp449
g6
(dp450
I0
I-1
sI1
I1
sI-1
I-1
sssI-1
(dp451
g12
(dp452
I0
I-1
sI1
I1
sI-1
I-1
sssssI1
(dp453
g6
(dp454
I0
(dp455
g3
(dp456
I1
I1
sI-1
I-1
sssI1
(dp457
g3
(dp458
I0
I-1
sI1
I1
sI-1
I1
sssI-1
I-1
sssI-1
(dp459
g257
(dp460
I1
(dp461
g39
(dp462
I1
I1
sI-1
I-1
sssI-1
I-1
sssssI-1
(dp463
g3
(dp464
I0
I-1
sI1
(dp465
g39
(dp466
I1
(dp467
g12
(dp468
I0
I1
sI1
I1
sI-1
I1
sssI-1
(dp469
g9
(dp470
I0
I-1
sI1
I1
sI-1
I1
sssssI-1
(dp471
g12
(dp472
I0
(dp473
g34
(dp474
I1
I1
sI-1
I-1
sssI1
(dp475
g9
(dp476
I0
I-1
sI1
I-1
sI-1
I-1
sssI-1
(dp477
g63
(dp478
I1
I-1
sI-1
I-1
sssssssssI1
(dp479
g12
(dp480
I0
(dp481
g20
(dp482
I0
(dp483
g54
(dp484
I1
(dp485
g3
(dp486
I0
I-1
sI1
I1
sI-1
I1
sssI-1
(dp487
S'URL_Length'
p488
(dp489
I1
I-1
sI-1
I1
sssssI1
(dp490
g9
(dp491
I0
(dp492
g27
(dp493
I1
I1
sI-1
I1
sssI1
(dp494
g39
(dp495
I1
I1
sI-1
I1
sssI-1
(dp496
g244
(dp497
I1
I-1
sI-1
I1
sssssI-1
(dp498
g54
(dp499
I1
(dp500
g3
(dp501
I0
I-1
sI1
I1
sI-1
I-1
sssI-1
(dp502
S'double_slash_redirecting'
p503
(dp504
I1
I-1
sI-1
I1
sssssssI1
(dp505
g3
(dp506
I0
(dp507
g9
(dp508
I0
(dp509
g20
(dp510
I0
I-1
sI1
I-1
sI-1
I1
sssI1
I-1
sI-1
(dp511
g39
(dp512
I1
I1
sI-1
I-1
sssssI1
(dp513
g20
(dp514
I0
(dp515
g9
(dp516
I0
I1
sI1
I1
sI-1
I1
sssI1
(dp517
g95
(dp518
I1
I1
sI-1
I1
sssI-1
(dp519
g6
(dp520
I0
I1
sI1
I1
sI-1
I-1
sssssI-1
(dp521
g9
(dp522
I0
(dp523
g66
(dp524
I1
I-1
sI-1
I-1
sssI1
(dp525
g20
(dp526
I0
I1
sI1
I1
sI-1
I1
sssI-1
I-1
sssssI-1
(dp527
g3
(dp528
I0
I-1
sI1
(dp529
g6
(dp530
I0
I1
sI1
I1
sI-1
I-1
sssI-1
(dp531
g6
(dp532
I0
(dp533
g20
(dp534
I0
I1
sI1
I1
sI-1
I1
sssI1
(dp535
g34
(dp536
I1
I1
sI-1
I-1
sssI-1
I-1
sssssssI-1
(dp537
g3
(dp538
I0
I-1
sI1
(dp539
g12
(dp540
I0
(dp541
g20
(dp542
I0
(dp543
g54
(dp544
I1
I1
sI-1
I-1
sssI1
(dp545
g9
(dp546
I0
I-1
sI1
I1
sI-1
I-1
sssI-1
(dp547
S'Statistical_report'
p548
(dp549
I1
I-1
sI-1
I-1
sssssI1
(dp550
g6
(dp551
I0
(dp552
g9
(dp553
I0
I1
sI1
I1
sI-1
I1
sssI1
(dp554
g20
(dp555
I0
I1
sI1
I1
sI-1
I1
sssI-1
(dp556
g220
(dp557
I1
I1
sI-1
I-1
sssssI-1
(dp558
g27
(dp559
I1
(dp560
g63
(dp561
I1
I1
sI-1
I1
sssI-1
(dp562
g20
(dp563
I0
I1
sI1
I1
sI-1
I-1
sssssssI-1
(dp564
g20
(dp565
I0
(dp566
g6
(dp567
I0
(dp568
g27
(dp569
I1
I-1
sI-1
I-1
sssI1
(dp570
g63
(dp571
I1
I-1
sI-1
I-1
sssI-1
I-1
sssI1
(dp572
g6
(dp573
I0
(dp574
g9
(dp575
I0
I1
sI1
I-1
sssI1
I1
sI-1
I-1
sssI-1
(dp576
g12
(dp577
I0
(dp578
g63
(dp579
I1
I-1
sI-1
I-1
sssI1
(dp580
g9
(dp581
I0
I-1
sI1
I-1
sI-1
I-1
sssI-1
I-1
ssssssssa(dp582
g2
F1.2466207706543693
sg15
(dp583
I0
(dp584
g3
(dp585
I0
I-1
sI1
(dp586
g20
(dp587
I0
(dp588
g12
(dp589
I0
(dp590
g155
(dp591
I1
I1
sI-1
I1
sssI1
(dp592
g9
(dp593
I0
I1
sI1
I1
sI-1
I1
sssI-1
(dp594
g9
(dp595
I0
I1
sI1
I1
sssssI1
(dp596
g9
(dp597
I0
(dp598
g27
(dp599
I1
I-1
sI-1
I1
sssI1
(dp600
g6
(dp601
I0
I1
sI1
I1
sI-1
I-1
sssI-1
(dp602
g257
(dp603
I1
I1
sI-1
I-1
sssssI-1
(dp604
g27
(dp605
I1
(dp606
g63
(dp607
I1
I1
sI-1
I-1
sssI-1
(dp608
g12
(dp609
I0
I-1
sI1
I1
sI-1
I1
sssssssI-1
(dp610
g20
(dp611
I0
(dp612
g6
(dp613
I0
(dp614
g39
(dp615
I1
I1
sI-1
I-1
sssI1
I1
sI-1
I-1
sssI1
(dp616
g6
(dp617
I0
(dp618
S'popUpWidnow'
p619
(dp620
I1
I1
sI-1
I1
sssI1
I1
sI-1
I-1
sssI-1
(dp621
g12
(dp622
I0
(dp623
g34
(dp624
I1
I1
sI-1
I-1
sssI1
(dp625
g9
(dp626
I0
I-1
sI1
I-1
sI-1
I-1
sssI-1
(dp627
g63
(dp628
I1
I-1
sI-1
I-1
sssssssssI1
(dp629
g3
(dp630
I0
(dp631
g9
(dp632
I0
(dp633
g12
(dp634
I0
I-1
sI1
(dp635
g20
(dp636
I0
I-1
sI1
I-1
sI-1
I1
sssI-1
I-1
sssI1
I-1
sI-1
(dp637
g39
(dp638
I1
I1
sI-1
I-1
sssssI1
(dp639
g20
(dp640
I0
(dp641
g12
(dp642
I0
(dp643
g54
(dp644
I1
I1
sI-1
I1
sssI1
(dp645
g9
(dp646
I0
I1
sI1
I1
sI-1
I1
sssI-1
(dp647
g6
(dp648
I0
I1
sI1
I1
sI-1
I-1
sssssI1
(dp649
g12
(dp650
I0
(dp651
g9
(dp652
I0
I1
sI1
I1
sI-1
I1
sssI1
(dp653
g95
(dp654
I1
I1
sI-1
I1
sssI-1
I1
sssI-1
(dp655
g12
(dp656
I0
(dp657
g27
(dp658
I1
I1
sI-1
I1
sssI1
(dp659
g6
(dp660
I0
I1
sI1
I1
sI-1
I-1
sssI-1
(dp661
g6
(dp662
I0
I1
sI1
I1
sI-1
I-1
sssssssI-1
(dp663
g12
(dp664
I0
(dp665
g20
(dp666
I0
(dp667
g9
(dp668
I0
I1
sI1
I1
sI-1
I1
sssI1
(dp669
g6
(dp670
I0
I1
sI1
I1
sI-1
I-1
sssI-1
(dp671
g257
(dp672
I1
I-1
sI-1
I-1
sssssI1
(dp673
g9
(dp674
I0
(dp675
g66
(dp676
I1
I-1
sI-1
I-1
sssI1
(dp677
g20
(dp678
I0
I1
sI1
I1
sI-1
I1
sssI-1
I-1
sssI-1
(dp679
g6
(dp680
I0
(dp681
g20
(dp682
I0
I1
sI1
I1
sI-1
I1
sssI1
(dp683
g34
(dp684
I1
I1
sI-1
I-1
sssI-1
I-1
sssssssI-1
(dp685
g3
(dp686
I0
I-1
sI1
(dp687
g20
(dp688
I0
(dp689
g12
(dp690
I0
(dp691
g54
(dp692
I1
I1
sI-1
I-1
sssI1
I1
sI-1
(dp693
g6
(dp694
I0
I1
sI1
I1
sI-1
I-1
sssssI1
(dp695
g6
(dp696
I0
(dp697
g27
(dp698
I1
I1
sI-1
I1
sssI1
(dp699
g66
(dp700
I1
I1
sI-1
I1
sssI-1
(dp701
g39
(dp702
I1
I1
sI-1
I-1
sssssI-1
(dp703
g66
(dp704
I1
(dp705
g27
(dp706
I1
I1
sI-1
I-1
sssI-1
(dp707
g12
(dp708
I0
I-1
sI1
I1
sI-1
I1
sssssssI-1
(dp709
g20
(dp710
I0
(dp711
g6
(dp712
I0
(dp713
g27
(dp714
I1
I-1
sI-1
I-1
sssI1
(dp715
g63
(dp716
I1
I-1
sI-1
I-1
sssI-1
I-1
sssI1
(dp717
g6
(dp718
I0
(dp719
g9
(dp720
I0
I1
sI1
I-1
sssI1
I1
sI-1
I-1
sssI-1
(dp721
g12
(dp722
I0
(dp723
g63
(dp724
I1
I-1
sI-1
I-1
sssI1
(dp725
g9
(dp726
I0
I-1
sI1
I-1
sI-1
I-1
sssI-1
I-1
ssssssssa(dp727
g2
F1.1712318384314573
sg12
(dp728
I0
(dp729
g15
(dp730
I0
(dp731
g20
(dp732
I0
(dp733
g9
(dp734
I0
(dp735
g155
(dp736
I1
I-1
sI-1
I-1
sssI1
(dp737
g54
(dp738
I1
I-1
sI-1
I-1
sssI-1
I1
sssI1
(dp739
g34
(dp740
I1
I1
sI-1
I-1
sssI-1
(dp741
g34
(dp742
I1
I1
sI-1
(dp743
g6
(dp744
I0
I-1
sI1
I1
sI-1
I-1
sssssssI1
(dp745
g20
(dp746
I0
(dp747
g9
(dp748
I0
(dp749
g54
(dp750
I1
I1
sI-1
I-1
sssI1
(dp751
g488
(dp752
I1
I-1
sI-1
I1
sssI-1
(dp753
S'Favicon'
p754
(dp755
I1
I1
sI-1
I-1
sssssI1
(dp756
g9
(dp757
I0
(dp758
g27
(dp759
I1
I1
sI-1
I1
sssI1
(dp760
g39
(dp761
I1
I1
sI-1
I1
sssI-1
(dp762
g244
(dp763
I1
I-1
sI-1
I1
sssssI-1
(dp764
g27
(dp765
I1
(dp766
g244
(dp767
I1
I1
sI-1
I-1
sssI-1
(dp768
g9
(dp769
I0
I-1
sI1
I1
sI-1
I-1
sssssssI-1
(dp770
g3
(dp771
I0
I-1
sI1
(dp772
g20
(dp773
I0
(dp774
g54
(dp775
I1
I1
sI-1
I-1
sssI1
(dp776
g27
(dp777
I1
I1
sI-1
I-1
sssI-1
(dp778
g34
(dp779
I1
I1
sI-1
I-1
sssssI-1
(dp780
g63
(dp781
I1
(dp782
g6
(dp783
I0
I-1
sI1
I1
sI-1
I-1
sssI-1
(dp784
g244
(dp785
I1
I-1
sI-1
I-1
sssssssssI1
(dp786
g15
(dp787
I0
(dp788
g3
(dp789
I0
I-1
sI1
(dp790
g20
(dp791
I0
(dp792
g9
(dp793
I0
I1
sI1
I1
sI-1
I1
sssI1
(dp794
g9
(dp795
I0
I1
sI1
I1
sI-1
I1
sssI-1
(dp796
g9
(dp797
I0
I1
sI1
I1
sI-1
I1
sssssI-1
(dp798
g20
(dp799
I0
(dp800
g9
(dp801
I0
I-1
sI1
I1
sI-1
I-1
sssI1
(dp802
g9
(dp803
I0
I1
sI1
I-1
sssI-1
(dp804
g9
(dp805
I0
I-1
sI1
I-1
sI-1
I-1
sssssssI1
(dp806
g3
(dp807
I0
(dp808
g9
(dp809
I0
(dp810
g20
(dp811
I0
I-1
sI1
I-1
sI-1
I1
sssI1
I-1
sI-1
(dp812
g39
(dp813
I1
I1
sI-1
I-1
sssssI1
(dp814
g20
(dp815
I0
(dp816
g9
(dp817
I0
I1
sI1
I1
sI-1
I1
sssI1
(dp818
g95
(dp819
I1
I1
sI-1
I1
sssI-1
(dp820
g6
(dp821
I0
I1
sI1
I1
sI-1
I-1
sssssI-1
(dp822
g9
(dp823
I0
(dp824
g66
(dp825
I1
I-1
sI-1
I-1
sssI1
(dp826
g20
(dp827
I0
I1
sI1
I1
sI-1
I1
sssI-1
I-1
sssssI-1
(dp828
g3
(dp829
I0
I-1
sI1
(dp830
g6
(dp831
I0
(dp832
g27
(dp833
I1
I1
sI-1
I1
sssI1
(dp834
g20
(dp835
I0
I1
sI1
I1
sI-1
I1
sssI-1
(dp836
g220
(dp837
I1
I1
sI-1
I-1
sssssI-1
(dp838
g20
(dp839
I0
(dp840
g6
(dp841
I0
I-1
sI1
I-1
sI-1
I-1
sssI1
(dp842
g6
(dp843
I0
I1
sI1
I1
sI-1
I-1
sssI-1
(dp844
g9
(dp845
I0
I-1
sI1
I-1
sI-1
I-1
sssssssssI-1
(dp846
g3
(dp847
I0
I-1
sI1
(dp848
g15
(dp849
I0
(dp850
g20
(dp851
I0
(dp852
g9
(dp853
I0
I1
sI1
I1
sssI1
(dp854
g39
(dp855
I1
I1
sI-1
I-1
sssI-1
(dp856
g6
(dp857
I0
I1
sI1
I1
sI-1
I-1
sssssI1
(dp858
g6
(dp859
I0
I1
sI1
I1
sI-1
I-1
sssI-1
(dp860
g63
(dp861
I1
(dp862
g6
(dp863
I0
I1
sI1
I1
sI-1
I-1
sssI-1
(dp864
g20
(dp865
I1
I1
sI-1
I-1
sssssssI-1
(dp866
g20
(dp867
I0
(dp868
g39
(dp869
I1
(dp870
g257
(dp871
I1
I-1
sI-1
I-1
sssI-1
(dp872
g220
(dp873
I1
I-1
sI-1
I-1
sssssI1
(dp874
g6
(dp875
I0
(dp876
S'Shortining_Service'
p877
(dp878
I1
I1
sI-1
I-1
sssI1
I1
sI-1
I-1
sssI-1
(dp879
g63
(dp880
I1
(dp881
g34
(dp882
I1
I1
sI-1
I-1
sssI-1
(dp883
g6
(dp884
I0
I1
sI1
I-1
sI-1
I-1
ssssssssssa(dp885
g2
F1.2609773579233403
sg15
(dp886
I0
(dp887
g3
(dp888
I0
I-1
sI1
(dp889
g20
(dp890
I0
(dp891
g12
(dp892
I0
(dp893
g155
(dp894
I1
I1
sI-1
I1
sssI1
(dp895
g9
(dp896
I0
I1
sI1
I1
sI-1
I1
sssI-1
(dp897
g9
(dp898
I0
I1
sI1
I1
sssssI1
(dp899
g9
(dp900
I0
(dp901
g27
(dp902
I1
I-1
sI-1
I1
sssI1
(dp903
g6
(dp904
I0
I1
sI1
I1
sI-1
I-1
sssI-1
(dp905
g257
(dp906
I1
I1
sI-1
I-1
sssssI-1
(dp907
g9
(dp908
I0
(dp909
g12
(dp910
I0
I-1
sI1
I1
sI-1
I1
sssI1
(dp911
g12
(dp912
I0
I-1
sI1
I1
sI-1
I1
sssI-1
I1
sssssI-1
(dp913
g20
(dp914
I0
(dp915
g6
(dp916
I0
(dp917
g39
(dp918
I1
I1
sI-1
I-1
sssI1
I1
sI-1
I-1
sssI1
(dp919
g6
(dp920
I0
(dp921
g12
(dp922
I0
I-1
sI1
I1
sI-1
I1
sssI1
I1
sI-1
I-1
sssI-1
(dp923
g39
(dp924
I1
(dp925
g12
(dp926
I0
I-1
sI1
I-1
sI-1
I-1
sssI-1
(dp927
g12
(dp928
I0
I-1
sI1
I-1
sI-1
I-1
sssssssssI1
(dp929
g20
(dp930
I0
(dp931
g3
(dp932
I0
(dp933
g9
(dp934
I0
I-1
sI1
I-1
sI-1
(dp935
g39
(dp936
I1
I1
sI-1
I-1
sssssI1
(dp937
g12
(dp938
I0
(dp939
g66
(dp940
I1
I1
sI-1
I1
sssI1
(dp941
g9
(dp942
I0
I1
sI1
I1
sI-1
I1
sssI-1
(dp943
g6
(dp944
I0
I1
sI1
I1
sI-1
I-1
sssssI-1
(dp945
g12
(dp946
I0
(dp947
g9
(dp948
I0
I1
sI1
I1
sI-1
I1
sssI1
(dp949
g6
(dp950
I0
I-1
sI1
I1
sI-1
I-1
sssI-1
(dp951
g6
(dp952
I0
I1
sI1
I1
sI-1
I-1
sssssssI1
(dp953
g12
(dp954
I0
(dp955
g9
(dp956
I0
(dp957
g27
(dp958
I1
I1
sI-1
I1
sssI1
(dp959
g39
(dp960
I1
I1
sI-1
I1
sssI-1
(dp961
g244
(dp962
I1
I-1
sI-1
I1
sssssI1
(dp963
g3
(dp964
I0
I-1
sI1
(dp965
g95
(dp966
I1
I1
sI-1
I1
sssI-1
(dp967
g6
(dp968
I0
I-1
sI1
I1
sI-1
I-1
sssssI-1
(dp969
g6
(dp970
I0
I1
sI1
I1
sI-1
I-1
sssssI-1
(dp971
g3
(dp972
I0
(dp973
g6
(dp974
I0
(dp975
g27
(dp976
I1
I1
sI-1
I-1
sssI1
I-1
sI-1
I-1
sssI1
(dp977
g12
(dp978
I0
(dp979
g27
(dp980
I1
I1
sI-1
I1
sssI1
(dp981
g6
(dp982
I0
I1
sI1
I1
sI-1
I-1
sssI-1
(dp983
g6
(dp984
I0
I1
sI1
I1
sI-1
I-1
sssssI-1
(dp985
g220
(dp986
I1
(dp987
g66
(dp988
I1
I-1
sI-1
I-1
sssI-1
(dp989
g12
(dp990
I0
I-1
sI1
I-1
sI-1
I-1
sssssssssI-1
(dp991
g3
(dp992
I0
I-1
sI1
(dp993
g20
(dp994
I0
(dp995
g12
(dp996
I0
(dp997
g54
(dp998
I1
I1
sI-1
I-1
sssI1
I1
sI-1
(dp999
g6
(dp1000
I0
I1
sI1
I1
sI-1
I-1
sssssI1
(dp1001
g6
(dp1002
I0
(dp1003
g27
(dp1004
I1
I1
sI-1
I1
sssI1
(dp1005
g66
(dp1006
I1
I1
sI-1
I1
sssI-1
(dp1007
g548
(dp1008
I1
I-1
sI-1
I1
sssssI-1
(dp1009
g6
(dp1010
I0
(dp1011
g12
(dp1012
I0
I-1
sI1
I1
sI-1
I1
sssI1
(dp1013
g66
(dp1014
I1
I1
sI-1
I1
sssI-1
(dp1015
g34
(dp1016
I1
I1
sI-1
I-1
sssssssI-1
(dp1017
g20
(dp1018
I0
(dp1019
g6
(dp1020
I0
(dp1021
g27
(dp1022
I1
I-1
sI-1
I-1
sssI1
(dp1023
g63
(dp1024
I1
I-1
sI-1
I-1
sssI-1
I-1
sssI1
(dp1025
g6
(dp1026
I0
(dp1027
g9
(dp1028
I0
I1
sI1
I-1
sssI1
I1
sI-1
I-1
sssI-1
(dp1029
g12
(dp1030
I0
(dp1031
g63
(dp1032
I1
I-1
sI-1
I-1
sssI1
(dp1033
g9
(dp1034
I0
I-1
sI1
I-1
sI-1
I-1
sssI-1
I-1
ssssssssa(dp1035
g2
F1.2634045707210049
sg15
(dp1036
I0
(dp1037
g3
(dp1038
I0
I-1
sI1
(dp1039
g20
(dp1040
I0
(dp1041
g12
(dp1042
I0
(dp1043
g155
(dp1044
I1
I1
sI-1
I1
sssI1
(dp1045
g9
(dp1046
I0
I1
sI1
I1
sI-1
I1
sssI-1
(dp1047
g9
(dp1048
I0
I1
sI1
I1
sssssI1
(dp1049
g9
(dp1050
I0
(dp1051
g12
(dp1052
I0
I-1
sI1
I1
sI-1
I-1
sssI1
(dp1053
g12
(dp1054
I0
I-1
sI1
I1
sI-1
I1
sssI-1
(dp1055
g257
(dp1056
I1
I1
sI-1
I-1
sssssI-1
(dp1057
g9
(dp1058
I0
(dp1059
g12
(dp1060
I0
I-1
sI1
I1
sI-1
I1
sssI1
(dp1061
g12
(dp1062
I0
I-1
sI1
I1
sI-1
I1
sssI-1
I1
sssssI-1
(dp1063
g20
(dp1064
I0
(dp1065
g6
(dp1066
I0
(dp1067
g9
(dp1068
I0
I-1
sI1
I1
sI-1
I1
sssI1
I1
sI-1
I-1
sssI1
(dp1069
g6
(dp1070
I0
(dp1071
g9
(dp1072
I0
I1
sI1
I-1
sssI1
I1
sI-1
I-1
sssI-1
(dp1073
g39
(dp1074
I1
(dp1075
g12
(dp1076
I0
I-1
sI1
I-1
sI-1
I-1
sssI-1
(dp1077
g12
(dp1078
I0
I-1
sI1
I-1
sI-1
I-1
sssssssssI1
(dp1079
g20
(dp1080
I0
(dp1081
g3
(dp1082
I0
(dp1083
g9
(dp1084
I0
I-1
sI1
I-1
sI-1
(dp1085
g39
(dp1086
I1
I1
sI-1
I-1
sssssI1
(dp1087
g12
(dp1088
I0
(dp1089
g66
(dp1090
I1
I1
sI-1
I1
sssI1
(dp1091
g9
(dp1092
I0
I1
sI1
I1
sI-1
I1
sssI-1
(dp1093
g6
(dp1094
I0
I1
sI1
I1
sI-1
I-1
sssssI-1
(dp1095
g12
(dp1096
I0
(dp1097
g9
(dp1098
I0
I1
sI1
I1
sI-1
I1
sssI1
(dp1099
g6
(dp1100
I0
I-1
sI1
I1
sI-1
I-1
sssI-1
(dp1101
g6
(dp1102
I0
I1
sI1
I1
sI-1
I-1
sssssssI1
(dp1103
g12
(dp1104
I0
(dp1105
g9
(dp1106
I0
(dp1107
g27
(dp1108
I1
I1
sI-1
I1
sssI1
(dp1109
g39
(dp1110
I1
I1
sI-1
I1
sssI-1
(dp1111
g244
(dp1112
I1
I-1
sI-1
I1
sssssI1
(dp1113
g3
(dp1114
I0
I-1
sI1
(dp1115
g95
(dp1116
I1
I1
sI-1
I1
sssI-1
(dp1117
g6
(dp1118
I0
I-1
sI1
I1
sI-1
I-1
sssssI-1
(dp1119
g6
(dp1120
I0
I1
sI1
I1
sI-1
I-1
sssssI-1
(dp1121
g3
(dp1122
I0
(dp1123
g6
(dp1124
I0
(dp1125
g12
(dp1126
I0
I-1
sI1
I1
sI-1
I-1
sssI1
I-1
sI-1
I-1
sssI1
(dp1127
g12
(dp1128
I0
(dp1129
g27
(dp1130
I1
I1
sI-1
I1
sssI1
(dp1131
g6
(dp1132
I0
I1
sI1
I1
sI-1
I-1
sssI-1
(dp1133
g6
(dp1134
I0
I1
sI1
I1
sI-1
I-1
sssssI-1
(dp1135
g220
(dp1136
I1
(dp1137
g66
(dp1138
I1
I-1
sI-1
I-1
sssI-1
(dp1139
g12
(dp1140
I0
I-1
sI1
I-1
sI-1
I-1
sssssssssI-1
(dp1141
g3
(dp1142
I0
I-1
sI1
(dp1143
g20
(dp1144
I0
(dp1145
g12
(dp1146
I0
(dp1147
g54
(dp1148
I1
I1
sI-1
I-1
sssI1
I1
sI-1
(dp1149
g6
(dp1150
I0
I1
sI1
I1
sI-1
I-1
sssssI1
(dp1151
g6
(dp1152
I0
(dp1153
g12
(dp1154
I0
I-1
sI1
I1
sI-1
I1
sssI1
(dp1155
g66
(dp1156
I1
I1
sI-1
I1
sssI-1
(dp1157
S'port'
p1158
(dp1159
I1
I-1
sI-1
I1
sssssI-1
(dp1160
g220
(dp1161
I1
(dp1162
g12
(dp1163
I0
I1
sI1
I1
sI-1
I-1
sssI-1
(dp1164
g6
(dp1165
I0
I-1
sI1
I1
sI-1
I-1
sssssssI-1
(dp1166
g20
(dp1167
I0
(dp1168
g6
(dp1169
I0
(dp1170
g27
(dp1171
I1
I-1
sI-1
I-1
sssI1
(dp1172
g63
(dp1173
I1
I-1
sI-1
I-1
sssI-1
I-1
sssI1
(dp1174
g6
(dp1175
I0
(dp1176
g9
(dp1177
I0
I1
sI1
I-1
sssI1
I1
sI-1
I-1
sssI-1
(dp1178
g12
(dp1179
I0
(dp1180
g63
(dp1181
I1
I-1
sI-1
I-1
sssI1
(dp1182
g9
(dp1183
I0
I-1
sI1
I-1
sI-1
I-1
sssI-1
I-1
ssssssssa(dp1184
g2
F1.2806825621168607
sg15
(dp1185
I0
(dp1186
g3
(dp1187
I0
I-1
sI1
(dp1188
g20
(dp1189
I0
(dp1190
g12
(dp1191
I0
(dp1192
g155
(dp1193
I1
I1
sI-1
I1
sssI1
(dp1194
g9
(dp1195
I0
I1
sI1
I1
sI-1
I1
sssI-1
(dp1196
g9
(dp1197
I0
I1
sI1
I1
sssssI1
(dp1198
g27
(dp1199
I1
(dp1200
g244
(dp1201
I1
I-1
sI-1
I1
sssI-1
(dp1202
g12
(dp1203
I0
I-1
sI1
I1
sI-1
I1
sssssI-1
(dp1204
g9
(dp1205
I0
(dp1206
g12
(dp1207
I0
I-1
sI1
I1
sI-1
I1
sssI1
(dp1208
g12
(dp1209
I0
I-1
sI1
I1
sI-1
I1
sssI-1
I1
sssssI-1
(dp1210
g20
(dp1211
I0
(dp1212
g6
(dp1213
I0
(dp1214
g39
(dp1215
I1
I1
sI-1
I-1
sssI1
I1
sI-1
I-1
sssI1
(dp1216
g12
(dp1217
I0
(dp1218
g488
(dp1219
I1
I1
sI-1
I-1
sssI1
(dp1220
g9
(dp1221
I0
I1
sI1
I-1
sssI-1
(dp1222
g6
(dp1223
I0
I1
sI1
I1
sI-1
I-1
sssssI-1
(dp1224
g39
(dp1225
I1
(dp1226
g12
(dp1227
I0
I-1
sI1
I-1
sI-1
I-1
sssI-1
(dp1228
g12
(dp1229
I0
I-1
sI1
I-1
sI-1
I-1
sssssssssI1
(dp1230
g20
(dp1231
I0
(dp1232
g3
(dp1233
I0
(dp1234
g9
(dp1235
I0
I-1
sI1
I-1
sI-1
(dp1236
g39
(dp1237
I1
I1
sI-1
I-1
sssssI1
(dp1238
g12
(dp1239
I0
(dp1240
g66
(dp1241
I1
I1
sI-1
I1
sssI1
(dp1242
g9
(dp1243
I0
I1
sI1
I1
sI-1
I1
sssI-1
(dp1244
g6
(dp1245
I0
I1
sI1
I1
sI-1
I-1
sssssI-1
(dp1246
g12
(dp1247
I0
(dp1248
g9
(dp1249
I0
I1
sI1
I1
sI-1
I1
sssI1
(dp1250
g6
(dp1251
I0
I-1
sI1
I1
sI-1
I-1
sssI-1
(dp1252
g6
(dp1253
I0
I1
sI1
I1
sI-1
I-1
sssssssI1
(dp1254
g12
(dp1255
I0
(dp1256
g9
(dp1257
I0
(dp1258
g27
(dp1259
I1
I1
sI-1
I1
sssI1
(dp1260
g39
(dp1261
I1
I1
sI-1
I1
sssI-1
(dp1262
g244
(dp1263
I1
I-1
sI-1
I1
sssssI1
(dp1264
g3
(dp1265
I0
I-1
sI1
(dp1266
g95
(dp1267
I1
I1
sI-1
I1
sssI-1
(dp1268
g6
(dp1269
I0
I-1
sI1
I1
sI-1
I-1
sssssI-1
(dp1270
g6
(dp1271
I0
I1
sI1
I1
sI-1
I-1
sssssI-1
(dp1272
g3
(dp1273
I0
(dp1274
g6
(dp1275
I0
(dp1276
g27
(dp1277
I1
I1
sI-1
I-1
sssI1
I-1
sI-1
I-1
sssI1
(dp1278
g12
(dp1279
I0
(dp1280
g27
(dp1281
I1
I1
sI-1
I1
sssI1
(dp1282
g6
(dp1283
I0
I1
sI1
I1
sI-1
I-1
sssI-1
(dp1284
g6
(dp1285
I0
I1
sI1
I1
sI-1
I-1
sssssI-1
(dp1286
g220
(dp1287
I1
(dp1288
g66
(dp1289
I1
I-1
sI-1
I-1
sssI-1
(dp1290
g27
(dp1291
I1
I-1
sI-1
I-1
sssssssssI-1
(dp1292
g3
(dp1293
I0
I-1
sI1
(dp1294
g20
(dp1295
I0
(dp1296
g12
(dp1297
I0
(dp1298
g54
(dp1299
I1
I1
sI-1
I-1
sssI1
I1
sI-1
(dp1300
g6
(dp1301
I0
I1
sI1
I1
sI-1
I-1
sssssI1
(dp1302
g6
(dp1303
I0
(dp1304
g27
(dp1305
I1
I1
sI-1
I1
sssI1
(dp1306
g66
(dp1307
I1
I1
sI-1
I1
sssI-1
(dp1308
g39
(dp1309
I1
I1
sI-1
I-1
sssssI-1
(dp1310
g6
(dp1311
I0
(dp1312
g27
(dp1313
I1
I1
sI-1
I-1
sssI1
(dp1314
g66
(dp1315
I1
I1
sI-1
I1
sssI-1
(dp1316
g34
(dp1317
I1
I1
sI-1
I-1
sssssssI-1
(dp1318
g20
(dp1319
I0
(dp1320
g6
(dp1321
I0
(dp1322
g27
(dp1323
I1
I-1
sI-1
I-1
sssI1
(dp1324
g63
(dp1325
I1
I-1
sI-1
I-1
sssI-1
I-1
sssI1
(dp1326
g6
(dp1327
I0
(dp1328
g9
(dp1329
I0
I1
sI1
I-1
sssI1
I1
sI-1
I-1
sssI-1
(dp1330
g12
(dp1331
I0
(dp1332
g63
(dp1333
I1
I-1
sI-1
I-1
sssI1
(dp1334
g9
(dp1335
I0
I-1
sI1
I-1
sI-1
I-1
sssI-1
I-1
ssssssssa(dp1336
g2
F1.2537553008012454
sg15
(dp1337
I0
(dp1338
g3
(dp1339
I0
I-1
sI1
(dp1340
g20
(dp1341
I0
(dp1342
g12
(dp1343
I0
(dp1344
g155
(dp1345
I1
I1
sI-1
I1
sssI1
(dp1346
g9
(dp1347
I0
I1
sI1
I1
sI-1
I1
sssI-1
(dp1348
g9
(dp1349
I0
I1
sI1
I1
sssssI1
(dp1350
g6
(dp1351
I0
(dp1352
g27
(dp1353
I1
I1
sI-1
I1
sssI1
I1
sI-1
I-1
sssI-1
(dp1354
g9
(dp1355
I0
(dp1356
g12
(dp1357
I0
I-1
sI1
I1
sI-1
I1
sssI1
(dp1358
g12
(dp1359
I0
I-1
sI1
I1
sI-1
I1
sssI-1
I1
sssssI-1
(dp1360
g20
(dp1361
I0
(dp1362
g6
(dp1363
I0
(dp1364
g9
(dp1365
I0
I-1
sI1
I1
sI-1
I1
sssI1
I1
sI-1
I-1
sssI1
(dp1366
g12
(dp1367
I0
(dp1368
g488
(dp1369
I1
I1
sI-1
I-1
sssI1
(dp1370
g6
(dp1371
I0
I1
sI1
I1
sI-1
I-1
sssI-1
(dp1372
g6
(dp1373
I0
I1
sI1
I1
sI-1
I-1
sssssI-1
(dp1374
g39
(dp1375
I1
(dp1376
g12
(dp1377
I0
I-1
sI1
I-1
sI-1
I-1
sssI-1
(dp1378
g12
(dp1379
I0
I-1
sI1
I-1
sI-1
I-1
sssssssssI1
(dp1380
g20
(dp1381
I0
(dp1382
g3
(dp1383
I0
(dp1384
g9
(dp1385
I0
I-1
sI1
I-1
sI-1
(dp1386
g39
(dp1387
I1
I1
sI-1
I-1
sssssI1
(dp1388
g12
(dp1389
I0
(dp1390
g66
(dp1391
I1
I1
sI-1
I1
sssI1
(dp1392
g9
(dp1393
I0
I1
sI1
I1
sI-1
I1
sssI-1
(dp1394
g6
(dp1395
I0
I1
sI1
I1
sI-1
I-1
sssssI-1
(dp1396
g12
(dp1397
I0
(dp1398
g9
(dp1399
I0
I1
sI1
I1
sI-1
I1
sssI1
(dp1400
g6
(dp1401
I0
I-1
sI1
I1
sI-1
I-1
sssI-1
(dp1402
g6
(dp1403
I0
I1
sI1
I1
sI-1
I-1
sssssssI1
(dp1404
g12
(dp1405
I0
(dp1406
g9
(dp1407
I0
(dp1408
g27
(dp1409
I1
I1
sI-1
I1
sssI1
(dp1410
g39
(dp1411
I1
I1
sI-1
I1
sssI-1
(dp1412
g39
(dp1413
I1
I1
sI-1
I-1
sssssI1
(dp1414
g3
(dp1415
I0
I-1
sI1
(dp1416
g95
(dp1417
I1
I1
sI-1
I1
sssI-1
(dp1418
g6
(dp1419
I0
I-1
sI1
I1
sI-1
I-1
sssssI-1
(dp1420
g6
(dp1421
I0
I1
sI1
I1
sI-1
I-1
sssssI-1
(dp1422
g3
(dp1423
I0
(dp1424
g12
(dp1425
I0
I-1
sI1
(dp1426
g9
(dp1427
I0
I1
sI1
I-1
sssI-1
I-1
sssI1
(dp1428
g12
(dp1429
I0
(dp1430
g27
(dp1431
I1
I1
sI-1
I1
sssI1
(dp1432
g6
(dp1433
I0
I1
sI1
I1
sI-1
I-1
sssI-1
(dp1434
g6
(dp1435
I0
I1
sI1
I1
sI-1
I-1
sssssI-1
(dp1436
g220
(dp1437
I1
(dp1438
g66
(dp1439
I1
I-1
sI-1
I-1
sssI-1
(dp1440
g27
(dp1441
I1
I-1
sI-1
I-1
sssssssssI-1
(dp1442
g3
(dp1443
I0
I-1
sI1
(dp1444
g20
(dp1445
I0
(dp1446
g12
(dp1447
I0
(dp1448
g54
(dp1449
I1
I1
sI-1
I-1
sssI1
I1
sI-1
(dp1450
g6
(dp1451
I0
I1
sI1
I1
sI-1
I-1
sssssI1
(dp1452
g6
(dp1453
I0
(dp1454
g12
(dp1455
I0
I-1
sI1
I1
sI-1
I1
sssI1
(dp1456
g66
(dp1457
I1
I1
sI-1
I1
sssI-1
(dp1458
g548
(dp1459
I1
I-1
sI-1
I1
sssssI-1
(dp1460
g6
(dp1461
I0
(dp1462
g9
(dp1463
I0
I-1
sI1
I1
sI-1
I1
sssI1
(dp1464
g66
(dp1465
I1
I1
sI-1
I1
sssI-1
(dp1466
g34
(dp1467
I1
I1
sI-1
I-1
sssssssI-1
(dp1468
g20
(dp1469
I0
(dp1470
g6
(dp1471
I0
(dp1472
g27
(dp1473
I1
I-1
sI-1
I-1
sssI1
(dp1474
g63
(dp1475
I1
I-1
sI-1
I-1
sssI-1
I-1
sssI1
(dp1476
g6
(dp1477
I0
(dp1478
g9
(dp1479
I0
I1
sI1
I-1
sssI1
I1
sI-1
I-1
sssI-1
(dp1480
g12
(dp1481
I0
(dp1482
g63
(dp1483
I1
I-1
sI-1
I-1
sssI1
(dp1484
g9
(dp1485
I0
I-1
sI1
I-1
sI-1
I-1
sssI-1
I-1
ssssssssa(dp1486
g2
F1.2537553008012454
sg15
(dp1487
I0
(dp1488
g3
(dp1489
I0
I-1
sI1
(dp1490
g20
(dp1491
I0
(dp1492
g12
(dp1493
I0
(dp1494
g155
(dp1495
I1
I1
sI-1
I1
sssI1
(dp1496
g9
(dp1497
I0
I1
sI1
I1
sI-1
I1
sssI-1
(dp1498
g9
(dp1499
I0
I1
sI1
I1
sssssI1
(dp1500
g27
(dp1501
I1
(dp1502
g244
(dp1503
I1
I-1
sI-1
I1
sssI-1
(dp1504
g12
(dp1505
I0
I-1
sI1
I1
sI-1
I1
sssssI-1
(dp1506
g9
(dp1507
I0
(dp1508
g12
(dp1509
I0
I-1
sI1
I1
sI-1
I1
sssI1
(dp1510
g12
(dp1511
I0
I-1
sI1
I1
sI-1
I1
sssI-1
I1
sssssI-1
(dp1512
g20
(dp1513
I0
(dp1514
g6
(dp1515
I0
(dp1516
g39
(dp1517
I1
I1
sI-1
I-1
sssI1
I1
sI-1
I-1
sssI1
(dp1518
g12
(dp1519
I0
(dp1520
g488
(dp1521
I1
I1
sI-1
I-1
sssI1
(dp1522
g9
(dp1523
I0
I1
sI1
I-1
sssI-1
(dp1524
g877
(dp1525
I1
I-1
sI-1
I-1
sssssI-1
(dp1526
g39
(dp1527
I1
(dp1528
g12
(dp1529
I0
I-1
sI1
I-1
sI-1
I-1
sssI-1
(dp1530
g12
(dp1531
I0
I-1
sI1
I-1
sI-1
I-1
sssssssssI1
(dp1532
g20
(dp1533
I0
(dp1534
g3
(dp1535
I0
(dp1536
g9
(dp1537
I0
I-1
sI1
I-1
sI-1
(dp1538
g39
(dp1539
I1
I1
sI-1
I-1
sssssI1
(dp1540
g12
(dp1541
I0
(dp1542
g66
(dp1543
I1
I1
sI-1
I1
sssI1
(dp1544
g9
(dp1545
I0
I1
sI1
I1
sI-1
I1
sssI-1
(dp1546
g6
(dp1547
I0
I1
sI1
I1
sI-1
I-1
sssssI-1
(dp1548
g12
(dp1549
I0
(dp1550
g9
(dp1551
I0
I1
sI1
I1
sI-1
I1
sssI1
(dp1552
g54
(dp1553
I1
I-1
sI-1
I1
sssI-1
(dp1554
g6
(dp1555
I0
I1
sI1
I1
sI-1
I-1
sssssssI1
(dp1556
g12
(dp1557
I0
(dp1558
g9
(dp1559
I0
(dp1560
g27
(dp1561
I1
I1
sI-1
I1
sssI1
(dp1562
g39
(dp1563
I1
I1
sI-1
I1
sssI-1
(dp1564
g244
(dp1565
I1
I-1
sI-1
I1
sssssI1
(dp1566
g3
(dp1567
I0
I-1
sI1
(dp1568
g95
(dp1569
I1
I1
sI-1
I1
sssI-1
(dp1570
g6
(dp1571
I0
I-1
sI1
I1
sI-1
I-1
sssssI-1
(dp1572
g6
(dp1573
I0
I1
sI1
I1
sI-1
I-1
sssssI-1
(dp1574
g3
(dp1575
I0
(dp1576
g12
(dp1577
I0
I-1
sI1
(dp1578
g9
(dp1579
I0
I1
sI1
I-1
sssI-1
I-1
sssI1
(dp1580
g12
(dp1581
I0
(dp1582
g27
(dp1583
I1
I1
sI-1
I1
sssI1
(dp1584
g6
(dp1585
I0
I1
sI1
I1
sI-1
I-1
sssI-1
(dp1586
g6
(dp1587
I0
I1
sI1
I1
sI-1
I-1
sssssI-1
(dp1588
g220
(dp1589
I1
(dp1590
g66
(dp1591
I1
I-1
sI-1
I-1
sssI-1
(dp1592
g27
(dp1593
I1
I-1
sI-1
I-1
sssssssssI-1
(dp1594
g3
(dp1595
I0
I-1
sI1
(dp1596
g20
(dp1597
I0
(dp1598
g12
(dp1599
I0
(dp1600
g54
(dp1601
I1
I1
sI-1
I-1
sssI1
I1
sI-1
(dp1602
g6
(dp1603
I0
I1
sI1
I1
sI-1
I-1
sssssI1
(dp1604
g6
(dp1605
I0
(dp1606
g27
(dp1607
I1
I1
sI-1
I1
sssI1
(dp1608
g66
(dp1609
I1
I1
sI-1
I1
sssI-1
(dp1610
g1158
(dp1611
I1
I-1
sI-1
I1
sssssI-1
(dp1612
g6
(dp1613
I0
(dp1614
g877
(dp1615
I1
I1
sI-1
I1
sssI1
(dp1616
g66
(dp1617
I1
I1
sI-1
I1
sssI-1
(dp1618
g34
(dp1619
I1
I1
sI-1
I-1
sssssssI-1
(dp1620
g20
(dp1621
I0
(dp1622
g6
(dp1623
I0
(dp1624
g27
(dp1625
I1
I-1
sI-1
I-1
sssI1
(dp1626
g63
(dp1627
I1
I-1
sI-1
I-1
sssI-1
I-1
sssI1
(dp1628
g6
(dp1629
I0
(dp1630
g9
(dp1631
I0
I1
sI1
I-1
sssI1
I1
sI-1
I-1
sssI-1
(dp1632
g12
(dp1633
I0
(dp1634
g63
(dp1635
I1
I-1
sI-1
I-1
sssI1
(dp1636
g9
(dp1637
I0
I-1
sI1
I-1
sI-1
I-1
sssI-1
I-1
ssssssssa(dp1638
g2
F1.2419119063245843
sg15
(dp1639
I0
(dp1640
g3
(dp1641
I0
I-1
sI1
(dp1642
g20
(dp1643
I0
(dp1644
g12
(dp1645
I0
(dp1646
g155
(dp1647
I1
I1
sI-1
I1
sssI1
(dp1648
g9
(dp1649
I0
I1
sI1
I1
sI-1
I1
sssI-1
(dp1650
g9
(dp1651
I0
I1
sI1
I1
sssssI1
(dp1652
g6
(dp1653
I0
(dp1654
g27
(dp1655
I1
I1
sI-1
I1
sssI1
I1
sI-1
I-1
sssI-1
(dp1656
g9
(dp1657
I0
(dp1658
g12
(dp1659
I0
I-1
sI1
I1
sI-1
I1
sssI1
(dp1660
g12
(dp1661
I0
I-1
sI1
I1
sI-1
I1
sssI-1
I1
sssssI-1
(dp1662
g20
(dp1663
I0
(dp1664
g6
(dp1665
I0
(dp1666
g9
(dp1667
I0
I-1
sI1
I1
sI-1
I1
sssI1
I1
sI-1
I-1
sssI1
(dp1668
g257
(dp1669
I1
(dp1670
g6
(dp1671
I0
I1
sI1
I1
sI-1
I-1
sssI-1
(dp1672
g6
(dp1673
I0
I1
sI-1
I-1
sssssI-1
(dp1674
g39
(dp1675
I1
(dp1676
g12
(dp1677
I0
I-1
sI1
I-1
sI-1
I-1
sssI-1
(dp1678
g12
(dp1679
I0
I-1
sI1
I-1
sI-1
I-1
sssssssssI1
(dp1680
g20
(dp1681
I0
(dp1682
g3
(dp1683
I0
(dp1684
g9
(dp1685
I0
I-1
sI1
I-1
sI-1
(dp1686
g39
(dp1687
I1
I1
sI-1
I-1
sssssI1
(dp1688
g12
(dp1689
I0
(dp1690
g66
(dp1691
I1
I1
sI-1
I1
sssI1
(dp1692
g9
(dp1693
I0
I1
sI1
I1
sI-1
I1
sssI-1
(dp1694
g6
(dp1695
I0
I1
sI1
I1
sI-1
I-1
sssssI-1
(dp1696
g12
(dp1697
I0
(dp1698
g9
(dp1699
I0
I1
sI1
I1
sI-1
I1
sssI1
(dp1700
g9
(dp1701
I0
I-1
sI1
I1
sI-1
I-1
sssI-1
(dp1702
g6
(dp1703
I0
I1
sI1
I1
sI-1
I-1
sssssssI1
(dp1704
g12
(dp1705
I0
(dp1706
g9
(dp1707
I0
(dp1708
g27
(dp1709
I1
I1
sI-1
I1
sssI1
(dp1710
g39
(dp1711
I1
I1
sI-1
I1
sssI-1
(dp1712
g39
(dp1713
I1
I1
sI-1
I-1
sssssI1
(dp1714
g3
(dp1715
I0
I-1
sI1
(dp1716
g95
(dp1717
I1
I1
sI-1
I1
sssI-1
(dp1718
S'Redirect'
p1719
(dp1720
I0
I1
sI1
I-1
sssssI-1
(dp1721
g6
(dp1722
I0
I1
sI1
I1
sI-1
I-1
sssssI-1
(dp1723
g3
(dp1724
I0
(dp1725
g12
(dp1726
I0
I-1
sI1
(dp1727
g9
(dp1728
I0
I1
sI1
I-1
sssI-1
I-1
sssI1
(dp1729
g12
(dp1730
I0
(dp1731
g27
(dp1732
I1
I1
sI-1
I1
sssI1
(dp1733
g6
(dp1734
I0
I1
sI1
I1
sI-1
I-1
sssI-1
(dp1735
g6
(dp1736
I0
I1
sI1
I1
sI-1
I-1
sssssI-1
(dp1737
g220
(dp1738
I1
(dp1739
g66
(dp1740
I1
I-1
sI-1
I-1
sssI-1
(dp1741
g27
(dp1742
I1
I-1
sI-1
I-1
sssssssssI-1
(dp1743
g3
(dp1744
I0
I-1
sI1
(dp1745
g20
(dp1746
I0
(dp1747
g12
(dp1748
I0
(dp1749
g54
(dp1750
I1
I1
sI-1
I-1
sssI1
I1
sI-1
(dp1751
g6
(dp1752
I0
I1
sI1
I1
sI-1
I-1
sssssI1
(dp1753
g6
(dp1754
I0
(dp1755
g12
(dp1756
I0
I-1
sI1
I1
sI-1
I1
sssI1
(dp1757
g66
(dp1758
I1
I1
sI-1
I1
sssI-1
(dp1759
g39
(dp1760
I1
I1
sI-1
I-1
sssssI-1
(dp1761
g6
(dp1762
I0
(dp1763
g9
(dp1764
I0
I-1
sI1
I1
sI-1
I1
sssI1
(dp1765
g66
(dp1766
I1
I1
sI-1
I1
sssI-1
(dp1767
g34
(dp1768
I1
I1
sI-1
I-1
sssssssI-1
(dp1769
g20
(dp1770
I0
(dp1771
g6
(dp1772
I0
(dp1773
g27
(dp1774
I1
I-1
sI-1
I-1
sssI1
(dp1775
g63
(dp1776
I1
I-1
sI-1
I-1
sssI-1
I-1
sssI1
(dp1777
g6
(dp1778
I0
(dp1779
g9
(dp1780
I0
I1
sI1
I-1
sssI1
I1
sI-1
I-1
sssI-1
(dp1781
g12
(dp1782
I0
(dp1783
g63
(dp1784
I1
I-1
sI-1
I-1
sssI1
(dp1785
g9
(dp1786
I0
I-1
sI1
I-1
sI-1
I-1
sssI-1
I-1
ssssssssa(dp1787
g2
F1.2585601348858275
sg15
(dp1788
I0
(dp1789
g3
(dp1790
I0
I-1
sI1
(dp1791
g20
(dp1792
I0
(dp1793
g12
(dp1794
I0
(dp1795
g155
(dp1796
I1
I1
sI-1
I1
sssI1
(dp1797
g9
(dp1798
I0
I1
sI1
I1
sI-1
I1
sssI-1
(dp1799
g9
(dp1800
I0
I1
sI1
I1
sssssI1
(dp1801
g27
(dp1802
I1
(dp1803
g244
(dp1804
I1
I-1
sI-1
I1
sssI-1
(dp1805
g12
(dp1806
I0
I-1
sI1
I1
sI-1
I1
sssssI-1
(dp1807
g9
(dp1808
I0
(dp1809
g12
(dp1810
I0
I-1
sI1
I1
sI-1
I1
sssI1
(dp1811
g12
(dp1812
I0
I-1
sI1
I1
sI-1
I1
sssI-1
I1
sssssI-1
(dp1813
g20
(dp1814
I0
(dp1815
g6
(dp1816
I0
(dp1817
g39
(dp1818
I1
I1
sI-1
I-1
sssI1
I1
sI-1
I-1
sssI1
(dp1819
g12
(dp1820
I0
(dp1821
g488
(dp1822
I1
I1
sI-1
I-1
sssI1
(dp1823
g9
(dp1824
I0
I1
sI1
I-1
sssI-1
(dp1825
g877
(dp1826
I1
I-1
sI-1
I-1
sssssI-1
(dp1827
g39
(dp1828
I1
(dp1829
g12
(dp1830
I0
I-1
sI1
I-1
sI-1
I-1
sssI-1
(dp1831
g12
(dp1832
I0
I-1
sI1
I-1
sI-1
I-1
sssssssssI1
(dp1833
g20
(dp1834
I0
(dp1835
g3
(dp1836
I0
(dp1837
g9
(dp1838
I0
I-1
sI1
I-1
sI-1
(dp1839
g39
(dp1840
I1
I1
sI-1
I-1
sssssI1
(dp1841
g12
(dp1842
I0
(dp1843
g66
(dp1844
I1
I1
sI-1
I1
sssI1
(dp1845
g9
(dp1846
I0
I1
sI1
I1
sI-1
I1
sssI-1
(dp1847
g6
(dp1848
I0
I1
sI1
I1
sI-1
I-1
sssssI-1
(dp1849
g12
(dp1850
I0
(dp1851
g9
(dp1852
I0
I1
sI1
I1
sI-1
I1
sssI1
(dp1853
g6
(dp1854
I0
I-1
sI1
I1
sI-1
I-1
sssI-1
(dp1855
g6
(dp1856
I0
I1
sI1
I1
sI-1
I-1
sssssssI1
(dp1857
g12
(dp1858
I0
(dp1859
g9
(dp1860
I0
(dp1861
g27
(dp1862
I1
I1
sI-1
I1
sssI1
(dp1863
g39
(dp1864
I1
I1
sI-1
I1
sssI-1
(dp1865
g244
(dp1866
I1
I-1
sI-1
I1
sssssI1
(dp1867
g3
(dp1868
I0
I-1
sI1
(dp1869
g95
(dp1870
I1
I1
sI-1
I1
sssI-1
(dp1871
g6
(dp1872
I0
I-1
sI1
I1
sI-1
I-1
sssssI-1
(dp1873
g6
(dp1874
I0
I1
sI1
I1
sI-1
I-1
sssssI-1
(dp1875
g3
(dp1876
I0
(dp1877
g12
(dp1878
I0
I-1
sI1
(dp1879
g9
(dp1880
I0
I1
sI1
I-1
sssI-1
I-1
sssI1
(dp1881
g12
(dp1882
I0
(dp1883
g27
(dp1884
I1
I1
sI-1
I1
sssI1
(dp1885
g6
(dp1886
I0
I1
sI1
I1
sI-1
I-1
sssI-1
(dp1887
g6
(dp1888
I0
I1
sI1
I1
sI-1
I-1
sssssI-1
(dp1889
g220
(dp1890
I1
(dp1891
g66
(dp1892
I1
I-1
sI-1
I-1
sssI-1
(dp1893
g27
(dp1894
I1
I-1
sI-1
I-1
sssssssssI-1
(dp1895
g3
(dp1896
I0
I-1
sI1
(dp1897
g20
(dp1898
I0
(dp1899
g12
(dp1900
I0
(dp1901
g54
(dp1902
I1
I1
sI-1
I-1
sssI1
I1
sI-1
(dp1903
g6
(dp1904
I0
I1
sI1
I1
sI-1
I-1
sssssI1
(dp1905
g6
(dp1906
I0
(dp1907
g27
(dp1908
I1
I1
sI-1
I1
sssI1
(dp1909
g66
(dp1910
I1
I1
sI-1
I1
sssI-1
(dp1911
g548
(dp1912
I1
I-1
sI-1
I1
sssssI-1
(dp1913
g6
(dp1914
I0
(dp1915
g548
(dp1916
I1
I1
sI-1
I1
sssI1
(dp1917
g66
(dp1918
I1
I1
sI-1
I1
sssI-1
(dp1919
g34
(dp1920
I1
I1
sI-1
I-1
sssssssI-1
(dp1921
g20
(dp1922
I0
(dp1923
g6
(dp1924
I0
(dp1925
g27
(dp1926
I1
I-1
sI-1
I-1
sssI1
(dp1927
g63
(dp1928
I1
I-1
sI-1
I-1
sssI-1
I-1
sssI1
(dp1929
g6
(dp1930
I0
(dp1931
g9
(dp1932
I0
I1
sI1
I-1
sssI1
I1
sI-1
I-1
sssI-1
(dp1933
g12
(dp1934
I0
(dp1935
g63
(dp1936
I1
I-1
sI-1
I-1
sssI1
(dp1937
g9
(dp1938
I0
I-1
sI1
I-1
sI-1
I-1
sssI-1
I-1
ssssssssa(dp1939
g2
F1.2419119063245843
sg15
(dp1940
I0
(dp1941
g3
(dp1942
I0
I-1
sI1
(dp1943
g20
(dp1944
I0
(dp1945
g12
(dp1946
I0
(dp1947
g155
(dp1948
I1
I1
sI-1
I1
sssI1
(dp1949
g9
(dp1950
I0
I1
sI1
I1
sI-1
I1
sssI-1
(dp1951
g9
(dp1952
I0
I1
sI1
I1
sssssI1
(dp1953
g6
(dp1954
I0
(dp1955
g27
(dp1956
I1
I1
sI-1
I1
sssI1
I1
sI-1
I-1
sssI-1
(dp1957
g9
(dp1958
I0
(dp1959
g12
(dp1960
I0
I-1
sI1
I1
sI-1
I1
sssI1
(dp1961
g12
(dp1962
I0
I-1
sI1
I1
sI-1
I1
sssI-1
I1
sssssI-1
(dp1963
g20
(dp1964
I0
(dp1965
g6
(dp1966
I0
(dp1967
g9
(dp1968
I0
I-1
sI1
I1
sI-1
I1
sssI1
I1
sI-1
I-1
sssI1
(dp1969
g257
(dp1970
I1
(dp1971
g6
(dp1972
I0
I1
sI1
I1
sI-1
I-1
sssI-1
(dp1973
g6
(dp1974
I0
I1
sI-1
I-1
sssssI-1
(dp1975
g39
(dp1976
I1
(dp1977
g12
(dp1978
I0
I-1
sI1
I-1
sI-1
I-1
sssI-1
(dp1979
g12
(dp1980
I0
I-1
sI1
I-1
sI-1
I-1
sssssssssI1
(dp1981
g20
(dp1982
I0
(dp1983
g3
(dp1984
I0
(dp1985
g9
(dp1986
I0
I-1
sI1
I-1
sI-1
(dp1987
g39
(dp1988
I1
I1
sI-1
I-1
sssssI1
(dp1989
g12
(dp1990
I0
(dp1991
g66
(dp1992
I1
I1
sI-1
I1
sssI1
(dp1993
g9
(dp1994
I0
I1
sI1
I1
sI-1
I1
sssI-1
(dp1995
g6
(dp1996
I0
I1
sI1
I1
sI-1
I-1
sssssI-1
(dp1997
g12
(dp1998
I0
(dp1999
g9
(dp2000
I0
I1
sI1
I1
sI-1
I1
sssI1
(dp2001
g9
(dp2002
I0
I-1
sI1
I1
sI-1
I-1
sssI-1
(dp2003
g6
(dp2004
I0
I1
sI1
I1
sI-1
I-1
sssssssI1
(dp2005
g12
(dp2006
I0
(dp2007
g9
(dp2008
I0
(dp2009
g27
(dp2010
I1
I1
sI-1
I1
sssI1
(dp2011
g39
(dp2012
I1
I1
sI-1
I1
sssI-1
(dp2013
g39
(dp2014
I1
I1
sI-1
I-1
sssssI1
(dp2015
g3
(dp2016
I0
I-1
sI1
(dp2017
g95
(dp2018
I1
I1
sI-1
I1
sssI-1
(dp2019
g1719
(dp2020
I0
I1
sI1
I-1
sssssI-1
(dp2021
g6
(dp2022
I0
I1
sI1
I1
sI-1
I-1
sssssI-1
(dp2023
g3
(dp2024
I0
(dp2025
g12
(dp2026
I0
I-1
sI1
(dp2027
g9
(dp2028
I0
I1
sI1
I-1
sssI-1
I-1
sssI1
(dp2029
g12
(dp2030
I0
(dp2031
g27
(dp2032
I1
I1
sI-1
I1
sssI1
(dp2033
g6
(dp2034
I0
I1
sI1
I1
sI-1
I-1
sssI-1
(dp2035
g6
(dp2036
I0
I1
sI1
I1
sI-1
I-1
sssssI-1
(dp2037
g220
(dp2038
I1
(dp2039
g66
(dp2040
I1
I-1
sI-1
I-1
sssI-1
(dp2041
g27
(dp2042
I1
I-1
sI-1
I-1
sssssssssI-1
(dp2043
g3
(dp2044
I0
I-1
sI1
(dp2045
g20
(dp2046
I0
(dp2047
g12
(dp2048
I0
(dp2049
g54
(dp2050
I1
I1
sI-1
I-1
sssI1
I1
sI-1
(dp2051
g6
(dp2052
I0
I1
sI1
I1
sI-1
I-1
sssssI1
(dp2053
g6
(dp2054
I0
(dp2055
g12
(dp2056
I0
I-1
sI1
I1
sI-1
I1
sssI1
(dp2057
g66
(dp2058
I1
I1
sI-1
I1
sssI-1
(dp2059
g1158
(dp2060
I1
I-1
sI-1
I1
sssssI-1
(dp2061
g6
(dp2062
I0
(dp2063
g9
(dp2064
I0
I-1
sI1
I1
sI-1
I1
sssI1
(dp2065
g66
(dp2066
I1
I1
sI-1
I1
sssI-1
(dp2067
g34
(dp2068
I1
I1
sI-1
I-1
sssssssI-1
(dp2069
g20
(dp2070
I0
(dp2071
g6
(dp2072
I0
(dp2073
g27
(dp2074
I1
I-1
sI-1
I-1
sssI1
(dp2075
g63
(dp2076
I1
I-1
sI-1
I-1
sssI-1
I-1
sssI1
(dp2077
g6
(dp2078
I0
(dp2079
g9
(dp2080
I0
I1
sI1
I-1
sssI1
I1
sI-1
I-1
sssI-1
(dp2081
g12
(dp2082
I0
(dp2083
g63
(dp2084
I1
I-1
sI-1
I-1
sssI1
(dp2085
g9
(dp2086
I0
I-1
sI1
I-1
sI-1
I-1
sssI-1
I-1
ssssssssa(dp2087
g2
F1.2609773579233403
sg15
(dp2088
I0
(dp2089
g3
(dp2090
I0
I-1
sI1
(dp2091
g20
(dp2092
I0
(dp2093
g12
(dp2094
I0
(dp2095
g155
(dp2096
I1
I1
sI-1
I1
sssI1
(dp2097
g9
(dp2098
I0
I1
sI1
I1
sI-1
I1
sssI-1
(dp2099
g9
(dp2100
I0
I1
sI1
I1
sssssI1
(dp2101
g27
(dp2102
I1
(dp2103
g244
(dp2104
I1
I-1
sI-1
I1
sssI-1
(dp2105
g12
(dp2106
I0
I-1
sI1
I1
sI-1
I1
sssssI-1
(dp2107
g9
(dp2108
I0
(dp2109
g12
(dp2110
I0
I-1
sI1
I1
sI-1
I1
sssI1
(dp2111
g12
(dp2112
I0
I-1
sI1
I1
sI-1
I1
sssI-1
I1
sssssI-1
(dp2113
g20
(dp2114
I0
(dp2115
g6
(dp2116
I0
(dp2117
g39
(dp2118
I1
I1
sI-1
I-1
sssI1
I1
sI-1
I-1
sssI1
(dp2119
g12
(dp2120
I0
(dp2121
g488
(dp2122
I1
I1
sI-1
I-1
sssI1
(dp2123
g9
(dp2124
I0
I1
sI1
I-1
sssI-1
(dp2125
g877
(dp2126
I1
I-1
sI-1
I-1
sssssI-1
(dp2127
g39
(dp2128
I1
(dp2129
g12
(dp2130
I0
I-1
sI1
I-1
sI-1
I-1
sssI-1
(dp2131
g12
(dp2132
I0
I-1
sI1
I-1
sI-1
I-1
sssssssssI1
(dp2133
g20
(dp2134
I0
(dp2135
g3
(dp2136
I0
(dp2137
g9
(dp2138
I0
I-1
sI1
I-1
sI-1
(dp2139
g39
(dp2140
I1
I1
sI-1
I-1
sssssI1
(dp2141
g12
(dp2142
I0
(dp2143
g66
(dp2144
I1
I1
sI-1
I1
sssI1
(dp2145
g9
(dp2146
I0
I1
sI1
I1
sI-1
I1
sssI-1
(dp2147
g6
(dp2148
I0
I1
sI1
I1
sI-1
I-1
sssssI-1
(dp2149
g12
(dp2150
I0
(dp2151
g9
(dp2152
I0
I1
sI1
I1
sI-1
I1
sssI1
(dp2153
g6
(dp2154
I0
I-1
sI1
I1
sI-1
I-1
sssI-1
(dp2155
g6
(dp2156
I0
I1
sI1
I1
sI-1
I-1
sssssssI1
(dp2157
g12
(dp2158
I0
(dp2159
g9
(dp2160
I0
(dp2161
g27
(dp2162
I1
I1
sI-1
I1
sssI1
(dp2163
g39
(dp2164
I1
I1
sI-1
I1
sssI-1
(dp2165
g244
(dp2166
I1
I-1
sI-1
I1
sssssI1
(dp2167
g3
(dp2168
I0
I-1
sI1
(dp2169
g95
(dp2170
I1
I1
sI-1
I1
sssI-1
(dp2171
g6
(dp2172
I0
I-1
sI1
I1
sI-1
I-1
sssssI-1
(dp2173
g6
(dp2174
I0
I1
sI1
I1
sI-1
I-1
sssssI-1
(dp2175
g3
(dp2176
I0
(dp2177
g12
(dp2178
I0
I-1
sI1
(dp2179
g9
(dp2180
I0
I1
sI1
I-1
sssI-1
I-1
sssI1
(dp2181
g12
(dp2182
I0
(dp2183
g27
(dp2184
I1
I1
sI-1
I1
sssI1
(dp2185
g6
(dp2186
I0
I1
sI1
I1
sI-1
I-1
sssI-1
(dp2187
g6
(dp2188
I0
I1
sI1
I1
sI-1
I-1
sssssI-1
(dp2189
g220
(dp2190
I1
(dp2191
g66
(dp2192
I1
I-1
sI-1
I-1
sssI-1
(dp2193
g27
(dp2194
I1
I-1
sI-1
I-1
sssssssssI-1
(dp2195
g3
(dp2196
I0
I-1
sI1
(dp2197
g20
(dp2198
I0
(dp2199
g12
(dp2200
I0
(dp2201
g54
(dp2202
I1
I1
sI-1
I-1
sssI1
I1
sI-1
(dp2203
g6
(dp2204
I0
I1
sI1
I1
sI-1
I-1
sssssI1
(dp2205
g6
(dp2206
I0
(dp2207
g27
(dp2208
I1
I1
sI-1
I1
sssI1
(dp2209
g66
(dp2210
I1
I1
sI-1
I1
sssI-1
(dp2211
g39
(dp2212
I1
I1
sI-1
I-1
sssssI-1
(dp2213
g6
(dp2214
I0
(dp2215
g9
(dp2216
I0
I-1
sI1
I1
sI-1
I1
sssI1
(dp2217
g66
(dp2218
I1
I1
sI-1
I1
sssI-1
(dp2219
g34
(dp2220
I1
I1
sI-1
I-1
sssssssI-1
(dp2221
g20
(dp2222
I0
(dp2223
g6
(dp2224
I0
(dp2225
g27
(dp2226
I1
I-1
sI-1
I-1
sssI1
(dp2227
g63
(dp2228
I1
I-1
sI-1
I-1
sssI-1
I-1
sssI1
(dp2229
g6
(dp2230
I0
(dp2231
g9
(dp2232
I0
I1
sI1
I-1
sssI1
I1
sI-1
I-1
sssI-1
(dp2233
g12
(dp2234
I0
(dp2235
g63
(dp2236
I1
I-1
sI-1
I-1
sssI1
(dp2237
g9
(dp2238
I0
I-1
sI1
I-1
sI-1
I-1
sssI-1
I-1
ssssssssa(dp2239
g2
F1.239571472535625
sg15
(dp2240
I0
(dp2241
g3
(dp2242
I0
I-1
sI1
(dp2243
g20
(dp2244
I0
(dp2245
g12
(dp2246
I0
(dp2247
g155
(dp2248
I1
I1
sI-1
I1
sssI1
(dp2249
g9
(dp2250
I0
I1
sI1
I1
sI-1
I1
sssI-1
(dp2251
g9
(dp2252
I0
I1
sI1
I1
sssssI1
(dp2253
g6
(dp2254
I0
(dp2255
g27
(dp2256
I1
I1
sI-1
I1
sssI1
I1
sI-1
I-1
sssI-1
(dp2257
g9
(dp2258
I0
(dp2259
g12
(dp2260
I0
I-1
sI1
I1
sI-1
I1
sssI1
(dp2261
g12
(dp2262
I0
I-1
sI1
I1
sI-1
I1
sssI-1
I1
sssssI-1
(dp2263
g20
(dp2264
I0
(dp2265
g6
(dp2266
I0
(dp2267
g9
(dp2268
I0
I-1
sI1
I1
sI-1
I1
sssI1
I1
sI-1
I-1
sssI1
(dp2269
g257
(dp2270
I1
(dp2271
g6
(dp2272
I0
I1
sI1
I1
sI-1
I-1
sssI-1
(dp2273
g6
(dp2274
I0
I1
sI-1
I-1
sssssI-1
(dp2275
g39
(dp2276
I1
(dp2277
g12
(dp2278
I0
I-1
sI1
I-1
sI-1
I-1
sssI-1
(dp2279
g12
(dp2280
I0
I-1
sI1
I-1
sI-1
I-1
sssssssssI1
(dp2281
g20
(dp2282
I0
(dp2283
g3
(dp2284
I0
(dp2285
g9
(dp2286
I0
I-1
sI1
I-1
sI-1
(dp2287
g39
(dp2288
I1
I1
sI-1
I-1
sssssI1
(dp2289
g12
(dp2290
I0
(dp2291
g66
(dp2292
I1
I1
sI-1
I1
sssI1
(dp2293
g9
(dp2294
I0
I1
sI1
I1
sI-1
I1
sssI-1
(dp2295
g6
(dp2296
I0
I1
sI1
I1
sI-1
I-1
sssssI-1
(dp2297
g12
(dp2298
I0
(dp2299
g9
(dp2300
I0
I1
sI1
I1
sI-1
I1
sssI1
(dp2301
g9
(dp2302
I0
I-1
sI1
I1
sI-1
I-1
sssI-1
(dp2303
g6
(dp2304
I0
I1
sI1
I1
sI-1
I-1
sssssssI1
(dp2305
g12
(dp2306
I0
(dp2307
g9
(dp2308
I0
(dp2309
g27
(dp2310
I1
I1
sI-1
I1
sssI1
(dp2311
g39
(dp2312
I1
I1
sI-1
I1
sssI-1
(dp2313
g39
(dp2314
I1
I1
sI-1
I-1
sssssI1
(dp2315
g3
(dp2316
I0
I-1
sI1
(dp2317
g95
(dp2318
I1
I1
sI-1
I1
sssI-1
(dp2319
g1719
(dp2320
I0
I1
sI1
I-1
sssssI-1
(dp2321
g6
(dp2322
I0
I1
sI1
I1
sI-1
I-1
sssssI-1
(dp2323
g3
(dp2324
I0
(dp2325
g12
(dp2326
I0
I-1
sI1
(dp2327
g9
(dp2328
I0
I1
sI1
I-1
sssI-1
I-1
sssI1
(dp2329
g12
(dp2330
I0
(dp2331
g27
(dp2332
I1
I1
sI-1
I1
sssI1
(dp2333
g6
(dp2334
I0
I1
sI1
I1
sI-1
I-1
sssI-1
(dp2335
g6
(dp2336
I0
I1
sI1
I1
sI-1
I-1
sssssI-1
(dp2337
g220
(dp2338
I1
(dp2339
g66
(dp2340
I1
I-1
sI-1
I-1
sssI-1
(dp2341
g27
(dp2342
I1
I-1
sI-1
I-1
sssssssssI-1
(dp2343
g3
(dp2344
I0
I-1
sI1
(dp2345
g20
(dp2346
I0
(dp2347
g12
(dp2348
I0
(dp2349
g54
(dp2350
I1
I1
sI-1
I-1
sssI1
I1
sI-1
(dp2351
g6
(dp2352
I0
I1
sI1
I1
sI-1
I-1
sssssI1
(dp2353
g6
(dp2354
I0
(dp2355
g12
(dp2356
I0
I-1
sI1
I1
sI-1
I1
sssI1
(dp2357
g66
(dp2358
I1
I1
sI-1
I1
sssI-1
(dp2359
g548
(dp2360
I1
I-1
sI-1
I1
sssssI-1
(dp2361
g6
(dp2362
I0
(dp2363
g66
(dp2364
I1
I1
sI-1
I1
sssI1
(dp2365
g66
(dp2366
I1
I1
sI-1
I1
sssI-1
(dp2367
g34
(dp2368
I1
I1
sI-1
I-1
sssssssI-1
(dp2369
g20
(dp2370
I0
(dp2371
g6
(dp2372
I0
(dp2373
g27
(dp2374
I1
I-1
sI-1
I-1
sssI1
(dp2375
g63
(dp2376
I1
I-1
sI-1
I-1
sssI-1
I-1
sssI1
(dp2377
g6
(dp2378
I0
(dp2379
g9
(dp2380
I0
I1
sI1
I-1
sssI1
I1
sI-1
I-1
sssI-1
(dp2381
g12
(dp2382
I0
(dp2383
g63
(dp2384
I1
I-1
sI-1
I-1
sssI1
(dp2385
g9
(dp2386
I0
I-1
sI1
I-1
sI-1
I-1
sssI-1
I-1
ssssssssa(dp2387
g2
F1.2585601348858275
sg15
(dp2388
I0
(dp2389
g3
(dp2390
I0
I-1
sI1
(dp2391
g20
(dp2392
I0
(dp2393
g12
(dp2394
I0
(dp2395
g155
(dp2396
I1
I1
sI-1
I1
sssI1
(dp2397
g9
(dp2398
I0
I1
sI1
I1
sI-1
I1
sssI-1
(dp2399
g9
(dp2400
I0
I1
sI1
I1
sssssI1
(dp2401
g27
(dp2402
I1
(dp2403
g244
(dp2404
I1
I-1
sI-1
I1
sssI-1
(dp2405
g12
(dp2406
I0
I-1
sI1
I1
sI-1
I1
sssssI-1
(dp2407
g9
(dp2408
I0
(dp2409
g12
(dp2410
I0
I-1
sI1
I1
sI-1
I1
sssI1
(dp2411
g12
(dp2412
I0
I-1
sI1
I1
sI-1
I1
sssI-1
I1
sssssI-1
(dp2413
g20
(dp2414
I0
(dp2415
g6
(dp2416
I0
(dp2417
g39
(dp2418
I1
I1
sI-1
I-1
sssI1
I1
sI-1
I-1
sssI1
(dp2419
g12
(dp2420
I0
(dp2421
g488
(dp2422
I1
I1
sI-1
I-1
sssI1
(dp2423
g9
(dp2424
I0
I1
sI1
I-1
sssI-1
(dp2425
g877
(dp2426
I1
I-1
sI-1
I-1
sssssI-1
(dp2427
g39
(dp2428
I1
(dp2429
g12
(dp2430
I0
I-1
sI1
I-1
sI-1
I-1
sssI-1
(dp2431
g12
(dp2432
I0
I-1
sI1
I-1
sI-1
I-1
sssssssssI1
(dp2433
g20
(dp2434
I0
(dp2435
g3
(dp2436
I0
(dp2437
g9
(dp2438
I0
I-1
sI1
I-1
sI-1
(dp2439
g39
(dp2440
I1
I1
sI-1
I-1
sssssI1
(dp2441
g12
(dp2442
I0
(dp2443
g66
(dp2444
I1
I1
sI-1
I1
sssI1
(dp2445
g9
(dp2446
I0
I1
sI1
I1
sI-1
I1
sssI-1
(dp2447
g6
(dp2448
I0
I1
sI1
I1
sI-1
I-1
sssssI-1
(dp2449
g12
(dp2450
I0
(dp2451
g9
(dp2452
I0
I1
sI1
I1
sI-1
I1
sssI1
(dp2453
g6
(dp2454
I0
I-1
sI1
I1
sI-1
I-1
sssI-1
(dp2455
g6
(dp2456
I0
I1
sI1
I1
sI-1
I-1
sssssssI1
(dp2457
g12
(dp2458
I0
(dp2459
g9
(dp2460
I0
(dp2461
g27
(dp2462
I1
I1
sI-1
I1
sssI1
(dp2463
g39
(dp2464
I1
I1
sI-1
I1
sssI-1
(dp2465
g244
(dp2466
I1
I-1
sI-1
I1
sssssI1
(dp2467
g3
(dp2468
I0
I-1
sI1
(dp2469
g95
(dp2470
I1
I1
sI-1
I1
sssI-1
(dp2471
g6
(dp2472
I0
I-1
sI1
I1
sI-1
I-1
sssssI-1
(dp2473
g6
(dp2474
I0
I1
sI1
I1
sI-1
I-1
sssssI-1
(dp2475
g3
(dp2476
I0
(dp2477
g12
(dp2478
I0
I-1
sI1
(dp2479
g9
(dp2480
I0
I1
sI1
I-1
sssI-1
I-1
sssI1
(dp2481
g12
(dp2482
I0
(dp2483
g27
(dp2484
I1
I1
sI-1
I1
sssI1
(dp2485
g6
(dp2486
I0
I1
sI1
I1
sI-1
I-1
sssI-1
(dp2487
g6
(dp2488
I0
I1
sI1
I1
sI-1
I-1
sssssI-1
(dp2489
g220
(dp2490
I1
(dp2491
g66
(dp2492
I1
I-1
sI-1
I-1
sssI-1
(dp2493
g27
(dp2494
I1
I-1
sI-1
I-1
sssssssssI-1
(dp2495
g3
(dp2496
I0
I-1
sI1
(dp2497
g20
(dp2498
I0
(dp2499
g12
(dp2500
I0
(dp2501
g54
(dp2502
I1
I1
sI-1
I-1
sssI1
I1
sI-1
(dp2503
g6
(dp2504
I0
I1
sI1
I1
sI-1
I-1
sssssI1
(dp2505
g6
(dp2506
I0
(dp2507
g27
(dp2508
I1
I1
sI-1
I1
sssI1
(dp2509
g66
(dp2510
I1
I1
sI-1
I1
sssI-1
(dp2511
g1158
(dp2512
I1
I-1
sI-1
I1
sssssI-1
(dp2513
g6
(dp2514
I0
(dp2515
g66
(dp2516
I1
I1
sI-1
I1
sssI1
(dp2517
g66
(dp2518
I1
I1
sI-1
I1
sssI-1
(dp2519
g34
(dp2520
I1
I1
sI-1
I-1
sssssssI-1
(dp2521
g20
(dp2522
I0
(dp2523
g6
(dp2524
I0
(dp2525
g27
(dp2526
I1
I-1
sI-1
I-1
sssI1
(dp2527
g63
(dp2528
I1
I-1
sI-1
I-1
sssI-1
I-1
sssI1
(dp2529
g6
(dp2530
I0
(dp2531
g9
(dp2532
I0
I1
sI1
I-1
sssI1
I1
sI-1
I-1
sssI-1
(dp2533
g12
(dp2534
I0
(dp2535
g63
(dp2536
I1
I-1
sI-1
I-1
sssI1
(dp2537
g9
(dp2538
I0
I-1
sI1
I-1
sI-1
I-1
sssI-1
I-1
ssssssssa(dp2539
g2
F1.239571472535625
sg15
(dp2540
I0
(dp2541
g3
(dp2542
I0
I-1
sI1
(dp2543
g20
(dp2544
I0
(dp2545
g12
(dp2546
I0
(dp2547
g155
(dp2548
I1
I1
sI-1
I1
sssI1
(dp2549
g9
(dp2550
I0
I1
sI1
I1
sI-1
I1
sssI-1
(dp2551
g9
(dp2552
I0
I1
sI1
I1
sssssI1
(dp2553
g6
(dp2554
I0
(dp2555
g27
(dp2556
I1
I1
sI-1
I1
sssI1
I1
sI-1
I-1
sssI-1
(dp2557
g9
(dp2558
I0
(dp2559
g12
(dp2560
I0
I-1
sI1
I1
sI-1
I1
sssI1
(dp2561
g12
(dp2562
I0
I-1
sI1
I1
sI-1
I1
sssI-1
I1
sssssI-1
(dp2563
g20
(dp2564
I0
(dp2565
g6
(dp2566
I0
(dp2567
g9
(dp2568
I0
I-1
sI1
I1
sI-1
I1
sssI1
I1
sI-1
I-1
sssI1
(dp2569
g257
(dp2570
I1
(dp2571
g6
(dp2572
I0
I1
sI1
I1
sI-1
I-1
sssI-1
(dp2573
g6
(dp2574
I0
I1
sI-1
I-1
sssssI-1
(dp2575
g39
(dp2576
I1
(dp2577
g12
(dp2578
I0
I-1
sI1
I-1
sI-1
I-1
sssI-1
(dp2579
g12
(dp2580
I0
I-1
sI1
I-1
sI-1
I-1
sssssssssI1
(dp2581
g20
(dp2582
I0
(dp2583
g3
(dp2584
I0
(dp2585
g9
(dp2586
I0
I-1
sI1
I-1
sI-1
(dp2587
g39
(dp2588
I1
I1
sI-1
I-1
sssssI1
(dp2589
g12
(dp2590
I0
(dp2591
g66
(dp2592
I1
I1
sI-1
I1
sssI1
(dp2593
g9
(dp2594
I0
I1
sI1
I1
sI-1
I1
sssI-1
(dp2595
g6
(dp2596
I0
I1
sI1
I1
sI-1
I-1
sssssI-1
(dp2597
g12
(dp2598
I0
(dp2599
g9
(dp2600
I0
I1
sI1
I1
sI-1
I1
sssI1
(dp2601
g9
(dp2602
I0
I-1
sI1
I1
sI-1
I-1
sssI-1
(dp2603
g6
(dp2604
I0
I1
sI1
I1
sI-1
I-1
sssssssI1
(dp2605
g12
(dp2606
I0
(dp2607
g9
(dp2608
I0
(dp2609
g27
(dp2610
I1
I1
sI-1
I1
sssI1
(dp2611
g39
(dp2612
I1
I1
sI-1
I1
sssI-1
(dp2613
g39
(dp2614
I1
I1
sI-1
I-1
sssssI1
(dp2615
g3
(dp2616
I0
I-1
sI1
(dp2617
g95
(dp2618
I1
I1
sI-1
I1
sssI-1
(dp2619
g1719
(dp2620
I0
I1
sI1
I-1
sssssI-1
(dp2621
g6
(dp2622
I0
I1
sI1
I1
sI-1
I-1
sssssI-1
(dp2623
g3
(dp2624
I0
(dp2625
g12
(dp2626
I0
I-1
sI1
(dp2627
g9
(dp2628
I0
I1
sI1
I-1
sssI-1
I-1
sssI1
(dp2629
g12
(dp2630
I0
(dp2631
g27
(dp2632
I1
I1
sI-1
I1
sssI1
(dp2633
g6
(dp2634
I0
I1
sI1
I1
sI-1
I-1
sssI-1
(dp2635
g6
(dp2636
I0
I1
sI1
I1
sI-1
I-1
sssssI-1
(dp2637
g220
(dp2638
I1
(dp2639
g66
(dp2640
I1
I-1
sI-1
I-1
sssI-1
(dp2641
g27
(dp2642
I1
I-1
sI-1
I-1
sssssssssI-1
(dp2643
g3
(dp2644
I0
I-1
sI1
(dp2645
g20
(dp2646
I0
(dp2647
g12
(dp2648
I0
(dp2649
g54
(dp2650
I1
I1
sI-1
I-1
sssI1
I1
sI-1
(dp2651
g6
(dp2652
I0
I1
sI1
I1
sI-1
I-1
sssssI1
(dp2653
g6
(dp2654
I0
(dp2655
g12
(dp2656
I0
I-1
sI1
I1
sI-1
I1
sssI1
(dp2657
g66
(dp2658
I1
I1
sI-1
I1
sssI-1
(dp2659
g39
(dp2660
I1
I1
sI-1
I-1
sssssI-1
(dp2661
g6
(dp2662
I0
(dp2663
g66
(dp2664
I1
I1
sI-1
I1
sssI1
(dp2665
g66
(dp2666
I1
I1
sI-1
I1
sssI-1
(dp2667
g34
(dp2668
I1
I1
sI-1
I-1
sssssssI-1
(dp2669
g20
(dp2670
I0
(dp2671
g6
(dp2672
I0
(dp2673
g27
(dp2674
I1
I-1
sI-1
I-1
sssI1
(dp2675
g63
(dp2676
I1
I-1
sI-1
I-1
sssI-1
I-1
sssI1
(dp2677
g6
(dp2678
I0
(dp2679
g9
(dp2680
I0
I1
sI1
I-1
sssI1
I1
sI-1
I-1
sssI-1
(dp2681
g12
(dp2682
I0
(dp2683
g63
(dp2684
I1
I-1
sI-1
I-1
sssI1
(dp2685
g9
(dp2686
I0
I-1
sI1
I-1
sI-1
I-1
sssI-1
I-1
ssssssssa(dp2687
g2
F1.2585601348858275
sg15
(dp2688
I0
(dp2689
g3
(dp2690
I0
I-1
sI1
(dp2691
g20
(dp2692
I0
(dp2693
g12
(dp2694
I0
(dp2695
g155
(dp2696
I1
I1
sI-1
I1
sssI1
(dp2697
g9
(dp2698
I0
I1
sI1
I1
sI-1
I1
sssI-1
(dp2699
g9
(dp2700
I0
I1
sI1
I1
sssssI1
(dp2701
g27
(dp2702
I1
(dp2703
g244
(dp2704
I1
I-1
sI-1
I1
sssI-1
(dp2705
g12
(dp2706
I0
I-1
sI1
I1
sI-1
I1
sssssI-1
(dp2707
g9
(dp2708
I0
(dp2709
g12
(dp2710
I0
I-1
sI1
I1
sI-1
I1
sssI1
(dp2711
g12
(dp2712
I0
I-1
sI1
I1
sI-1
I1
sssI-1
I1
sssssI-1
(dp2713
g20
(dp2714
I0
(dp2715
g6
(dp2716
I0
(dp2717
g39
(dp2718
I1
I1
sI-1
I-1
sssI1
I1
sI-1
I-1
sssI1
(dp2719
g12
(dp2720
I0
(dp2721
g488
(dp2722
I1
I1
sI-1
I-1
sssI1
(dp2723
g9
(dp2724
I0
I1
sI1
I-1
sssI-1
(dp2725
g877
(dp2726
I1
I-1
sI-1
I-1
sssssI-1
(dp2727
g39
(dp2728
I1
(dp2729
g12
(dp2730
I0
I-1
sI1
I-1
sI-1
I-1
sssI-1
(dp2731
g12
(dp2732
I0
I-1
sI1
I-1
sI-1
I-1
sssssssssI1
(dp2733
g20
(dp2734
I0
(dp2735
g3
(dp2736
I0
(dp2737
g9
(dp2738
I0
I-1
sI1
I-1
sI-1
(dp2739
g39
(dp2740
I1
I1
sI-1
I-1
sssssI1
(dp2741
g12
(dp2742
I0
(dp2743
g66
(dp2744
I1
I1
sI-1
I1
sssI1
(dp2745
g9
(dp2746
I0
I1
sI1
I1
sI-1
I1
sssI-1
(dp2747
g6
(dp2748
I0
I1
sI1
I1
sI-1
I-1
sssssI-1
(dp2749
g12
(dp2750
I0
(dp2751
g9
(dp2752
I0
I1
sI1
I1
sI-1
I1
sssI1
(dp2753
g6
(dp2754
I0
I-1
sI1
I1
sI-1
I-1
sssI-1
(dp2755
g6
(dp2756
I0
I1
sI1
I1
sI-1
I-1
sssssssI1
(dp2757
g12
(dp2758
I0
(dp2759
g9
(dp2760
I0
(dp2761
g27
(dp2762
I1
I1
sI-1
I1
sssI1
(dp2763
g39
(dp2764
I1
I1
sI-1
I1
sssI-1
(dp2765
g244
(dp2766
I1
I-1
sI-1
I1
sssssI1
(dp2767
g3
(dp2768
I0
I-1
sI1
(dp2769
g95
(dp2770
I1
I1
sI-1
I1
sssI-1
(dp2771
g6
(dp2772
I0
I-1
sI1
I1
sI-1
I-1
sssssI-1
(dp2773
g6
(dp2774
I0
I1
sI1
I1
sI-1
I-1
sssssI-1
(dp2775
g3
(dp2776
I0
(dp2777
g12
(dp2778
I0
I-1
sI1
(dp2779
g9
(dp2780
I0
I1
sI1
I-1
sssI-1
I-1
sssI1
(dp2781
g12
(dp2782
I0
(dp2783
g27
(dp2784
I1
I1
sI-1
I1
sssI1
(dp2785
g6
(dp2786
I0
I1
sI1
I1
sI-1
I-1
sssI-1
(dp2787
g6
(dp2788
I0
I1
sI1
I1
sI-1
I-1
sssssI-1
(dp2789
g220
(dp2790
I1
(dp2791
g66
(dp2792
I1
I-1
sI-1
I-1
sssI-1
(dp2793
g27
(dp2794
I1
I-1
sI-1
I-1
sssssssssI-1
(dp2795
g3
(dp2796
I0
I-1
sI1
(dp2797
g20
(dp2798
I0
(dp2799
g12
(dp2800
I0
(dp2801
g54
(dp2802
I1
I1
sI-1
I-1
sssI1
I1
sI-1
(dp2803
g6
(dp2804
I0
I1
sI1
I1
sI-1
I-1
sssssI1
(dp2805
g6
(dp2806
I0
(dp2807
g27
(dp2808
I1
I1
sI-1
I1
sssI1
(dp2809
g66
(dp2810
I1
I1
sI-1
I1
sssI-1
(dp2811
g548
(dp2812
I1
I-1
sI-1
I1
sssssI-1
(dp2813
g6
(dp2814
I0
(dp2815
g66
(dp2816
I1
I1
sI-1
I1
sssI1
(dp2817
g66
(dp2818
I1
I1
sI-1
I1
sssI-1
(dp2819
g34
(dp2820
I1
I1
sI-1
I-1
sssssssI-1
(dp2821
g20
(dp2822
I0
(dp2823
g6
(dp2824
I0
(dp2825
g27
(dp2826
I1
I-1
sI-1
I-1
sssI1
(dp2827
g63
(dp2828
I1
I-1
sI-1
I-1
sssI-1
I-1
sssI1
(dp2829
g6
(dp2830
I0
(dp2831
g9
(dp2832
I0
I1
sI1
I-1
sssI1
I1
sI-1
I-1
sssI-1
(dp2833
g12
(dp2834
I0
(dp2835
g63
(dp2836
I1
I-1
sI-1
I-1
sssI1
(dp2837
g9
(dp2838
I0
I-1
sI1
I-1
sI-1
I-1
sssI-1
I-1
ssssssssa(dp2839
g2
F1.239571472535625
sg15
(dp2840
I0
(dp2841
g3
(dp2842
I0
I-1
sI1
(dp2843
g20
(dp2844
I0
(dp2845
g12
(dp2846
I0
(dp2847
g155
(dp2848
I1
I1
sI-1
I1
sssI1
(dp2849
g9
(dp2850
I0
I1
sI1
I1
sI-1
I1
sssI-1
(dp2851
g9
(dp2852
I0
I1
sI1
I1
sssssI1
(dp2853
g6
(dp2854
I0
(dp2855
g27
(dp2856
I1
I1
sI-1
I1
sssI1
I1
sI-1
I-1
sssI-1
(dp2857
g9
(dp2858
I0
(dp2859
g12
(dp2860
I0
I-1
sI1
I1
sI-1
I1
sssI1
(dp2861
g12
(dp2862
I0
I-1
sI1
I1
sI-1
I1
sssI-1
I1
sssssI-1
(dp2863
g20
(dp2864
I0
(dp2865
g6
(dp2866
I0
(dp2867
g9
(dp2868
I0
I-1
sI1
I1
sI-1
I1
sssI1
I1
sI-1
I-1
sssI1
(dp2869
g257
(dp2870
I1
(dp2871
g6
(dp2872
I0
I1
sI1
I1
sI-1
I-1
sssI-1
(dp2873
g6
(dp2874
I0
I1
sI-1
I-1
sssssI-1
(dp2875
g39
(dp2876
I1
(dp2877
g12
(dp2878
I0
I-1
sI1
I-1
sI-1
I-1
sssI-1
(dp2879
g12
(dp2880
I0
I-1
sI1
I-1
sI-1
I-1
sssssssssI1
(dp2881
g20
(dp2882
I0
(dp2883
g3
(dp2884
I0
(dp2885
g9
(dp2886
I0
I-1
sI1
I-1
sI-1
(dp2887
g39
(dp2888
I1
I1
sI-1
I-1
sssssI1
(dp2889
g12
(dp2890
I0
(dp2891
g66
(dp2892
I1
I1
sI-1
I1
sssI1
(dp2893
g9
(dp2894
I0
I1
sI1
I1
sI-1
I1
sssI-1
(dp2895
g6
(dp2896
I0
I1
sI1
I1
sI-1
I-1
sssssI-1
(dp2897
g12
(dp2898
I0
(dp2899
g9
(dp2900
I0
I1
sI1
I1
sI-1
I1
sssI1
(dp2901
g9
(dp2902
I0
I-1
sI1
I1
sI-1
I-1
sssI-1
(dp2903
g6
(dp2904
I0
I1
sI1
I1
sI-1
I-1
sssssssI1
(dp2905
g12
(dp2906
I0
(dp2907
g9
(dp2908
I0
(dp2909
g27
(dp2910
I1
I1
sI-1
I1
sssI1
(dp2911
g39
(dp2912
I1
I1
sI-1
I1
sssI-1
(dp2913
g39
(dp2914
I1
I1
sI-1
I-1
sssssI1
(dp2915
g3
(dp2916
I0
I-1
sI1
(dp2917
g95
(dp2918
I1
I1
sI-1
I1
sssI-1
(dp2919
g1719
(dp2920
I0
I1
sI1
I-1
sssssI-1
(dp2921
g6
(dp2922
I0
I1
sI1
I1
sI-1
I-1
sssssI-1
(dp2923
g3
(dp2924
I0
(dp2925
g12
(dp2926
I0
I-1
sI1
(dp2927
g9
(dp2928
I0
I1
sI1
I-1
sssI-1
I-1
sssI1
(dp2929
g12
(dp2930
I0
(dp2931
g27
(dp2932
I1
I1
sI-1
I1
sssI1
(dp2933
g6
(dp2934
I0
I1
sI1
I1
sI-1
I-1
sssI-1
(dp2935
g6
(dp2936
I0
I1
sI1
I1
sI-1
I-1
sssssI-1
(dp2937
g220
(dp2938
I1
(dp2939
g66
(dp2940
I1
I-1
sI-1
I-1
sssI-1
(dp2941
g27
(dp2942
I1
I-1
sI-1
I-1
sssssssssI-1
(dp2943
g3
(dp2944
I0
I-1
sI1
(dp2945
g20
(dp2946
I0
(dp2947
g12
(dp2948
I0
(dp2949
g54
(dp2950
I1
I1
sI-1
I-1
sssI1
I1
sI-1
(dp2951
g6
(dp2952
I0
I1
sI1
I1
sI-1
I-1
sssssI1
(dp2953
g6
(dp2954
I0
(dp2955
g12
(dp2956
I0
I-1
sI1
I1
sI-1
I1
sssI1
(dp2957
g66
(dp2958
I1
I1
sI-1
I1
sssI-1
(dp2959
g1158
(dp2960
I1
I-1
sI-1
I1
sssssI-1
(dp2961
g6
(dp2962
I0
(dp2963
g66
(dp2964
I1
I1
sI-1
I1
sssI1
(dp2965
g66
(dp2966
I1
I1
sI-1
I1
sssI-1
(dp2967
g34
(dp2968
I1
I1
sI-1
I-1
sssssssI-1
(dp2969
g20
(dp2970
I0
(dp2971
g6
(dp2972
I0
(dp2973
g27
(dp2974
I1
I-1
sI-1
I-1
sssI1
(dp2975
g63
(dp2976
I1
I-1
sI-1
I-1
sssI-1
I-1
sssI1
(dp2977
g6
(dp2978
I0
(dp2979
g9
(dp2980
I0
I1
sI1
I-1
sssI1
I1
sI-1
I-1
sssI-1
(dp2981
g12
(dp2982
I0
(dp2983
g63
(dp2984
I1
I-1
sI-1
I-1
sssI1
(dp2985
g9
(dp2986
I0
I-1
sI1
I-1
sI-1
I-1
sssI-1
I-1
ssssssssa(dp2987
g2
F1.2585601348858275
sg15
(dp2988
I0
(dp2989
g3
(dp2990
I0
I-1
sI1
(dp2991
g20
(dp2992
I0
(dp2993
g12
(dp2994
I0
(dp2995
g155
(dp2996
I1
I1
sI-1
I1
sssI1
(dp2997
g9
(dp2998
I0
I1
sI1
I1
sI-1
I1
sssI-1
(dp2999
g9
(dp3000
I0
I1
sI1
I1
sssssI1
(dp3001
g27
(dp3002
I1
(dp3003
g244
(dp3004
I1
I-1
sI-1
I1
sssI-1
(dp3005
g12
(dp3006
I0
I-1
sI1
I1
sI-1
I1
sssssI-1
(dp3007
g9
(dp3008
I0
(dp3009
g12
(dp3010
I0
I-1
sI1
I1
sI-1
I1
sssI1
(dp3011
g12
(dp3012
I0
I-1
sI1
I1
sI-1
I1
sssI-1
I1
sssssI-1
(dp3013
g20
(dp3014
I0
(dp3015
g6
(dp3016
I0
(dp3017
g39
(dp3018
I1
I1
sI-1
I-1
sssI1
I1
sI-1
I-1
sssI1
(dp3019
g12
(dp3020
I0
(dp3021
g488
(dp3022
I1
I1
sI-1
I-1
sssI1
(dp3023
g9
(dp3024
I0
I1
sI1
I-1
sssI-1
(dp3025
g877
(dp3026
I1
I-1
sI-1
I-1
sssssI-1
(dp3027
g39
(dp3028
I1
(dp3029
g12
(dp3030
I0
I-1
sI1
I-1
sI-1
I-1
sssI-1
(dp3031
g12
(dp3032
I0
I-1
sI1
I-1
sI-1
I-1
sssssssssI1
(dp3033
g20
(dp3034
I0
(dp3035
g3
(dp3036
I0
(dp3037
g9
(dp3038
I0
I-1
sI1
I-1
sI-1
(dp3039
g39
(dp3040
I1
I1
sI-1
I-1
sssssI1
(dp3041
g12
(dp3042
I0
(dp3043
g66
(dp3044
I1
I1
sI-1
I1
sssI1
(dp3045
g9
(dp3046
I0
I1
sI1
I1
sI-1
I1
sssI-1
(dp3047
g6
(dp3048
I0
I1
sI1
I1
sI-1
I-1
sssssI-1
(dp3049
g12
(dp3050
I0
(dp3051
g9
(dp3052
I0
I1
sI1
I1
sI-1
I1
sssI1
(dp3053
g6
(dp3054
I0
I-1
sI1
I1
sI-1
I-1
sssI-1
(dp3055
g6
(dp3056
I0
I1
sI1
I1
sI-1
I-1
sssssssI1
(dp3057
g12
(dp3058
I0
(dp3059
g9
(dp3060
I0
(dp3061
g27
(dp3062
I1
I1
sI-1
I1
sssI1
(dp3063
g39
(dp3064
I1
I1
sI-1
I1
sssI-1
(dp3065
g244
(dp3066
I1
I-1
sI-1
I1
sssssI1
(dp3067
g3
(dp3068
I0
I-1
sI1
(dp3069
g95
(dp3070
I1
I1
sI-1
I1
sssI-1
(dp3071
g6
(dp3072
I0
I-1
sI1
I1
sI-1
I-1
sssssI-1
(dp3073
g6
(dp3074
I0
I1
sI1
I1
sI-1
I-1
sssssI-1
(dp3075
g3
(dp3076
I0
(dp3077
g12
(dp3078
I0
I-1
sI1
(dp3079
g9
(dp3080
I0
I1
sI1
I-1
sssI-1
I-1
sssI1
(dp3081
g12
(dp3082
I0
(dp3083
g27
(dp3084
I1
I1
sI-1
I1
sssI1
(dp3085
g6
(dp3086
I0
I1
sI1
I1
sI-1
I-1
sssI-1
(dp3087
g6
(dp3088
I0
I1
sI1
I1
sI-1
I-1
sssssI-1
(dp3089
g220
(dp3090
I1
(dp3091
g66
(dp3092
I1
I-1
sI-1
I-1
sssI-1
(dp3093
g27
(dp3094
I1
I-1
sI-1
I-1
sssssssssI-1
(dp3095
g3
(dp3096
I0
I-1
sI1
(dp3097
g20
(dp3098
I0
(dp3099
g12
(dp3100
I0
(dp3101
g54
(dp3102
I1
I1
sI-1
I-1
sssI1
I1
sI-1
(dp3103
g6
(dp3104
I0
I1
sI1
I1
sI-1
I-1
sssssI1
(dp3105
g6
(dp3106
I0
(dp3107
g27
(dp3108
I1
I1
sI-1
I1
sssI1
(dp3109
g66
(dp3110
I1
I1
sI-1
I1
sssI-1
(dp3111
g39
(dp3112
I1
I1
sI-1
I-1
sssssI-1
(dp3113
g6
(dp3114
I0
(dp3115
g66
(dp3116
I1
I1
sI-1
I1
sssI1
(dp3117
g66
(dp3118
I1
I1
sI-1
I1
sssI-1
(dp3119
g34
(dp3120
I1
I1
sI-1
I-1
sssssssI-1
(dp3121
g20
(dp3122
I0
(dp3123
g6
(dp3124
I0
(dp3125
g27
(dp3126
I1
I-1
sI-1
I-1
sssI1
(dp3127
g63
(dp3128
I1
I-1
sI-1
I-1
sssI-1
I-1
sssI1
(dp3129
g6
(dp3130
I0
(dp3131
g9
(dp3132
I0
I1
sI1
I-1
sssI1
I1
sI-1
I-1
sssI-1
(dp3133
g12
(dp3134
I0
(dp3135
g63
(dp3136
I1
I-1
sI-1
I-1
sssI1
(dp3137
g9
(dp3138
I0
I-1
sI1
I-1
sI-1
I-1
sssI-1
I-1
ssssssssa(dp3139
g2
F1.239571472535625
sg15
(dp3140
I0
(dp3141
g3
(dp3142
I0
I-1
sI1
(dp3143
g20
(dp3144
I0
(dp3145
g12
(dp3146
I0
(dp3147
g155
(dp3148
I1
I1
sI-1
I1
sssI1
(dp3149
g9
(dp3150
I0
I1
sI1
I1
sI-1
I1
sssI-1
(dp3151
g9
(dp3152
I0
I1
sI1
I1
sssssI1
(dp3153
g6
(dp3154
I0
(dp3155
g27
(dp3156
I1
I1
sI-1
I1
sssI1
I1
sI-1
I-1
sssI-1
(dp3157
g9
(dp3158
I0
(dp3159
g12
(dp3160
I0
I-1
sI1
I1
sI-1
I1
sssI1
(dp3161
g12
(dp3162
I0
I-1
sI1
I1
sI-1
I1
sssI-1
I1
sssssI-1
(dp3163
g20
(dp3164
I0
(dp3165
g6
(dp3166
I0
(dp3167
g9
(dp3168
I0
I-1
sI1
I1
sI-1
I1
sssI1
I1
sI-1
I-1
sssI1
(dp3169
g257
(dp3170
I1
(dp3171
g6
(dp3172
I0
I1
sI1
I1
sI-1
I-1
sssI-1
(dp3173
g6
(dp3174
I0
I1
sI-1
I-1
sssssI-1
(dp3175
g39
(dp3176
I1
(dp3177
g12
(dp3178
I0
I-1
sI1
I-1
sI-1
I-1
sssI-1
(dp3179
g12
(dp3180
I0
I-1
sI1
I-1
sI-1
I-1
sssssssssI1
(dp3181
g20
(dp3182
I0
(dp3183
g3
(dp3184
I0
(dp3185
g9
(dp3186
I0
I-1
sI1
I-1
sI-1
(dp3187
g39
(dp3188
I1
I1
sI-1
I-1
sssssI1
(dp3189
g12
(dp3190
I0
(dp3191
g66
(dp3192
I1
I1
sI-1
I1
sssI1
(dp3193
g9
(dp3194
I0
I1
sI1
I1
sI-1
I1
sssI-1
(dp3195
g6
(dp3196
I0
I1
sI1
I1
sI-1
I-1
sssssI-1
(dp3197
g12
(dp3198
I0
(dp3199
g9
(dp3200
I0
I1
sI1
I1
sI-1
I1
sssI1
(dp3201
g9
(dp3202
I0
I-1
sI1
I1
sI-1
I-1
sssI-1
(dp3203
g6
(dp3204
I0
I1
sI1
I1
sI-1
I-1
sssssssI1
(dp3205
g12
(dp3206
I0
(dp3207
g9
(dp3208
I0
(dp3209
g27
(dp3210
I1
I1
sI-1
I1
sssI1
(dp3211
g39
(dp3212
I1
I1
sI-1
I1
sssI-1
(dp3213
g39
(dp3214
I1
I1
sI-1
I-1
sssssI1
(dp3215
g3
(dp3216
I0
I-1
sI1
(dp3217
g95
(dp3218
I1
I1
sI-1
I1
sssI-1
(dp3219
g9
(dp3220
I0
I-1
sI1
I1
sssssI-1
(dp3221
g6
(dp3222
I0
I1
sI1
I1
sI-1
I-1
sssssI-1
(dp3223
g3
(dp3224
I0
(dp3225
g12
(dp3226
I0
I-1
sI1
(dp3227
g9
(dp3228
I0
I1
sI1
I-1
sssI-1
I-1
sssI1
(dp3229
g12
(dp3230
I0
(dp3231
g27
(dp3232
I1
I1
sI-1
I1
sssI1
(dp3233
g6
(dp3234
I0
I1
sI1
I1
sI-1
I-1
sssI-1
(dp3235
g6
(dp3236
I0
I1
sI1
I1
sI-1
I-1
sssssI-1
(dp3237
g220
(dp3238
I1
(dp3239
g66
(dp3240
I1
I-1
sI-1
I-1
sssI-1
(dp3241
g27
(dp3242
I1
I-1
sI-1
I-1
sssssssssI-1
(dp3243
g3
(dp3244
I0
I-1
sI1
(dp3245
g20
(dp3246
I0
(dp3247
g12
(dp3248
I0
(dp3249
g54
(dp3250
I1
I1
sI-1
I-1
sssI1
I1
sI-1
(dp3251
g6
(dp3252
I0
I1
sI1
I1
sI-1
I-1
sssssI1
(dp3253
g6
(dp3254
I0
(dp3255
g12
(dp3256
I0
I-1
sI1
I1
sI-1
I1
sssI1
(dp3257
g66
(dp3258
I1
I1
sI-1
I1
sssI-1
(dp3259
g548
(dp3260
I1
I-1
sI-1
I1
sssssI-1
(dp3261
g6
(dp3262
I0
(dp3263
g66
(dp3264
I1
I1
sI-1
I1
sssI1
(dp3265
g66
(dp3266
I1
I1
sI-1
I1
sssI-1
(dp3267
g34
(dp3268
I1
I1
sI-1
I-1
sssssssI-1
(dp3269
g20
(dp3270
I0
(dp3271
g6
(dp3272
I0
(dp3273
g27
(dp3274
I1
I-1
sI-1
I-1
sssI1
(dp3275
g63
(dp3276
I1
I-1
sI-1
I-1
sssI-1
I-1
sssI1
(dp3277
g6
(dp3278
I0
(dp3279
g9
(dp3280
I0
I1
sI1
I-1
sssI1
I1
sI-1
I-1
sssI-1
(dp3281
g12
(dp3282
I0
(dp3283
g63
(dp3284
I1
I-1
sI-1
I-1
sssI1
(dp3285
g9
(dp3286
I0
I-1
sI1
I-1
sI-1
I-1
sssI-1
I-1
ssssssssa(dp3287
g2
F1.2585601348858275
sg15
(dp3288
I0
(dp3289
g3
(dp3290
I0
I-1
sI1
(dp3291
g20
(dp3292
I0
(dp3293
g12
(dp3294
I0
(dp3295
g155
(dp3296
I1
I1
sI-1
I1
sssI1
(dp3297
g9
(dp3298
I0
I1
sI1
I1
sI-1
I1
sssI-1
(dp3299
g9
(dp3300
I0
I1
sI1
I1
sssssI1
(dp3301
g27
(dp3302
I1
(dp3303
g244
(dp3304
I1
I-1
sI-1
I1
sssI-1
(dp3305
g12
(dp3306
I0
I-1
sI1
I1
sI-1
I1
sssssI-1
(dp3307
g9
(dp3308
I0
(dp3309
g12
(dp3310
I0
I-1
sI1
I1
sI-1
I1
sssI1
(dp3311
g12
(dp3312
I0
I-1
sI1
I1
sI-1
I1
sssI-1
I1
sssssI-1
(dp3313
g20
(dp3314
I0
(dp3315
g6
(dp3316
I0
(dp3317
g39
(dp3318
I1
I1
sI-1
I-1
sssI1
I1
sI-1
I-1
sssI1
(dp3319
g12
(dp3320
I0
(dp3321
g488
(dp3322
I1
I1
sI-1
I-1
sssI1
(dp3323
g9
(dp3324
I0
I1
sI1
I-1
sssI-1
(dp3325
g877
(dp3326
I1
I-1
sI-1
I-1
sssssI-1
(dp3327
g39
(dp3328
I1
(dp3329
g12
(dp3330
I0
I-1
sI1
I-1
sI-1
I-1
sssI-1
(dp3331
g12
(dp3332
I0
I-1
sI1
I-1
sI-1
I-1
sssssssssI1
(dp3333
g20
(dp3334
I0
(dp3335
g3
(dp3336
I0
(dp3337
g9
(dp3338
I0
I-1
sI1
I-1
sI-1
(dp3339
g39
(dp3340
I1
I1
sI-1
I-1
sssssI1
(dp3341
g12
(dp3342
I0
(dp3343
g66
(dp3344
I1
I1
sI-1
I1
sssI1
(dp3345
g9
(dp3346
I0
I1
sI1
I1
sI-1
I1
sssI-1
(dp3347
g6
(dp3348
I0
I1
sI1
I1
sI-1
I-1
sssssI-1
(dp3349
g12
(dp3350
I0
(dp3351
g9
(dp3352
I0
I1
sI1
I1
sI-1
I1
sssI1
(dp3353
g6
(dp3354
I0
I-1
sI1
I1
sI-1
I-1
sssI-1
(dp3355
g6
(dp3356
I0
I1
sI1
I1
sI-1
I-1
sssssssI1
(dp3357
g12
(dp3358
I0
(dp3359
g9
(dp3360
I0
(dp3361
g27
(dp3362
I1
I1
sI-1
I1
sssI1
(dp3363
g39
(dp3364
I1
I1
sI-1
I1
sssI-1
(dp3365
g244
(dp3366
I1
I-1
sI-1
I1
sssssI1
(dp3367
g3
(dp3368
I0
I-1
sI1
(dp3369
g95
(dp3370
I1
I1
sI-1
I1
sssI-1
(dp3371
g6
(dp3372
I0
I-1
sI1
I1
sI-1
I-1
sssssI-1
(dp3373
g6
(dp3374
I0
I1
sI1
I1
sI-1
I-1
sssssI-1
(dp3375
g3
(dp3376
I0
(dp3377
g12
(dp3378
I0
I-1
sI1
(dp3379
g9
(dp3380
I0
I1
sI1
I-1
sssI-1
I-1
sssI1
(dp3381
g12
(dp3382
I0
(dp3383
g27
(dp3384
I1
I1
sI-1
I1
sssI1
(dp3385
g6
(dp3386
I0
I1
sI1
I1
sI-1
I-1
sssI-1
(dp3387
g6
(dp3388
I0
I1
sI1
I1
sI-1
I-1
sssssI-1
(dp3389
g220
(dp3390
I1
(dp3391
g66
(dp3392
I1
I-1
sI-1
I-1
sssI-1
(dp3393
g27
(dp3394
I1
I-1
sI-1
I-1
sssssssssI-1
(dp3395
g3
(dp3396
I0
I-1
sI1
(dp3397
g20
(dp3398
I0
(dp3399
g12
(dp3400
I0
(dp3401
g54
(dp3402
I1
I1
sI-1
I-1
sssI1
I1
sI-1
(dp3403
g6
(dp3404
I0
I1
sI1
I1
sI-1
I-1
sssssI1
(dp3405
g6
(dp3406
I0
(dp3407
g27
(dp3408
I1
I1
sI-1
I1
sssI1
(dp3409
g66
(dp3410
I1
I1
sI-1
I1
sssI-1
(dp3411
g1158
(dp3412
I1
I-1
sI-1
I1
sssssI-1
(dp3413
g6
(dp3414
I0
(dp3415
g66
(dp3416
I1
I1
sI-1
I1
sssI1
(dp3417
g66
(dp3418
I1
I1
sI-1
I1
sssI-1
(dp3419
g34
(dp3420
I1
I1
sI-1
I-1
sssssssI-1
(dp3421
g20
(dp3422
I0
(dp3423
g6
(dp3424
I0
(dp3425
g27
(dp3426
I1
I-1
sI-1
I-1
sssI1
(dp3427
g63
(dp3428
I1
I-1
sI-1
I-1
sssI-1
I-1
sssI1
(dp3429
g6
(dp3430
I0
(dp3431
g9
(dp3432
I0
I1
sI1
I-1
sssI1
I1
sI-1
I-1
sssI-1
(dp3433
g12
(dp3434
I0
(dp3435
g63
(dp3436
I1
I-1
sI-1
I-1
sssI1
(dp3437
g9
(dp3438
I0
I-1
sI1
I-1
sI-1
I-1
sssI-1
I-1
ssssssssa(dp3439
g2
F1.239571472535625
sg15
(dp3440
I0
(dp3441
g3
(dp3442
I0
I-1
sI1
(dp3443
g20
(dp3444
I0
(dp3445
g12
(dp3446
I0
(dp3447
g155
(dp3448
I1
I1
sI-1
I1
sssI1
(dp3449
g9
(dp3450
I0
I1
sI1
I1
sI-1
I1
sssI-1
(dp3451
g9
(dp3452
I0
I1
sI1
I1
sssssI1
(dp3453
g6
(dp3454
I0
(dp3455
g27
(dp3456
I1
I1
sI-1
I1
sssI1
I1
sI-1
I-1
sssI-1
(dp3457
g9
(dp3458
I0
(dp3459
g12
(dp3460
I0
I-1
sI1
I1
sI-1
I1
sssI1
(dp3461
g12
(dp3462
I0
I-1
sI1
I1
sI-1
I1
sssI-1
I1
sssssI-1
(dp3463
g20
(dp3464
I0
(dp3465
g6
(dp3466
I0
(dp3467
g9
(dp3468
I0
I-1
sI1
I1
sI-1
I1
sssI1
I1
sI-1
I-1
sssI1
(dp3469
g257
(dp3470
I1
(dp3471
g6
(dp3472
I0
I1
sI1
I1
sI-1
I-1
sssI-1
(dp3473
g6
(dp3474
I0
I1
sI-1
I-1
sssssI-1
(dp3475
g39
(dp3476
I1
(dp3477
g12
(dp3478
I0
I-1
sI1
I-1
sI-1
I-1
sssI-1
(dp3479
g12
(dp3480
I0
I-1
sI1
I-1
sI-1
I-1
sssssssssI1
(dp3481
g20
(dp3482
I0
(dp3483
g3
(dp3484
I0
(dp3485
g9
(dp3486
I0
I-1
sI1
I-1
sI-1
(dp3487
g39
(dp3488
I1
I1
sI-1
I-1
sssssI1
(dp3489
g12
(dp3490
I0
(dp3491
g66
(dp3492
I1
I1
sI-1
I1
sssI1
(dp3493
g9
(dp3494
I0
I1
sI1
I1
sI-1
I1
sssI-1
(dp3495
g6
(dp3496
I0
I1
sI1
I1
sI-1
I-1
sssssI-1
(dp3497
g12
(dp3498
I0
(dp3499
g9
(dp3500
I0
I1
sI1
I1
sI-1
I1
sssI1
(dp3501
g9
(dp3502
I0
I-1
sI1
I1
sI-1
I-1
sssI-1
(dp3503
g6
(dp3504
I0
I1
sI1
I1
sI-1
I-1
sssssssI1
(dp3505
g12
(dp3506
I0
(dp3507
g9
(dp3508
I0
(dp3509
g27
(dp3510
I1
I1
sI-1
I1
sssI1
(dp3511
g39
(dp3512
I1
I1
sI-1
I1
sssI-1
(dp3513
g39
(dp3514
I1
I1
sI-1
I-1
sssssI1
(dp3515
g3
(dp3516
I0
I-1
sI1
(dp3517
g95
(dp3518
I1
I1
sI-1
I1
sssI-1
(dp3519
g1719
(dp3520
I0
I1
sI1
I-1
sssssI-1
(dp3521
g6
(dp3522
I0
I1
sI1
I1
sI-1
I-1
sssssI-1
(dp3523
g3
(dp3524
I0
(dp3525
g12
(dp3526
I0
I-1
sI1
(dp3527
g9
(dp3528
I0
I1
sI1
I-1
sssI-1
I-1
sssI1
(dp3529
g12
(dp3530
I0
(dp3531
g27
(dp3532
I1
I1
sI-1
I1
sssI1
(dp3533
g6
(dp3534
I0
I1
sI1
I1
sI-1
I-1
sssI-1
(dp3535
g6
(dp3536
I0
I1
sI1
I1
sI-1
I-1
sssssI-1
(dp3537
g220
(dp3538
I1
(dp3539
g66
(dp3540
I1
I-1
sI-1
I-1
sssI-1
(dp3541
g27
(dp3542
I1
I-1
sI-1
I-1
sssssssssI-1
(dp3543
g3
(dp3544
I0
I-1
sI1
(dp3545
g20
(dp3546
I0
(dp3547
g12
(dp3548
I0
(dp3549
g54
(dp3550
I1
I1
sI-1
I-1
sssI1
I1
sI-1
(dp3551
g6
(dp3552
I0
I1
sI1
I1
sI-1
I-1
sssssI1
(dp3553
g6
(dp3554
I0
(dp3555
g12
(dp3556
I0
I-1
sI1
I1
sI-1
I1
sssI1
(dp3557
g66
(dp3558
I1
I1
sI-1
I1
sssI-1
(dp3559
g39
(dp3560
I1
I1
sI-1
I-1
sssssI-1
(dp3561
g6
(dp3562
I0
(dp3563
g66
(dp3564
I1
I1
sI-1
I1
sssI1
(dp3565
g66
(dp3566
I1
I1
sI-1
I1
sssI-1
(dp3567
g34
(dp3568
I1
I1
sI-1
I-1
sssssssI-1
(dp3569
g20
(dp3570
I0
(dp3571
g6
(dp3572
I0
(dp3573
g27
(dp3574
I1
I-1
sI-1
I-1
sssI1
(dp3575
g63
(dp3576
I1
I-1
sI-1
I-1
sssI-1
I-1
sssI1
(dp3577
g6
(dp3578
I0
(dp3579
g9
(dp3580
I0
I1
sI1
I-1
sssI1
I1
sI-1
I-1
sssI-1
(dp3581
g12
(dp3582
I0
(dp3583
g63
(dp3584
I1
I-1
sI-1
I-1
sssI1
(dp3585
g9
(dp3586
I0
I-1
sI1
I-1
sI-1
I-1
sssI-1
I-1
ssssssssa(dp3587
g2
F1.2585601348858275
sg15
(dp3588
I0
(dp3589
g3
(dp3590
I0
I-1
sI1
(dp3591
g20
(dp3592
I0
(dp3593
g12
(dp3594
I0
(dp3595
g155
(dp3596
I1
I1
sI-1
I1
sssI1
(dp3597
g9
(dp3598
I0
I1
sI1
I1
sI-1
I1
sssI-1
(dp3599
g9
(dp3600
I0
I1
sI1
I1
sssssI1
(dp3601
g27
(dp3602
I1
(dp3603
g244
(dp3604
I1
I-1
sI-1
I1
sssI-1
(dp3605
g12
(dp3606
I0
I-1
sI1
I1
sI-1
I1
sssssI-1
(dp3607
g9
(dp3608
I0
(dp3609
g12
(dp3610
I0
I-1
sI1
I1
sI-1
I1
sssI1
(dp3611
g12
(dp3612
I0
I-1
sI1
I1
sI-1
I1
sssI-1
I1
sssssI-1
(dp3613
g20
(dp3614
I0
(dp3615
g6
(dp3616
I0
(dp3617
g39
(dp3618
I1
I1
sI-1
I-1
sssI1
I1
sI-1
I-1
sssI1
(dp3619
g12
(dp3620
I0
(dp3621
g488
(dp3622
I1
I1
sI-1
I-1
sssI1
(dp3623
g9
(dp3624
I0
I1
sI1
I-1
sssI-1
(dp3625
g877
(dp3626
I1
I-1
sI-1
I-1
sssssI-1
(dp3627
g39
(dp3628
I1
(dp3629
g12
(dp3630
I0
I-1
sI1
I-1
sI-1
I-1
sssI-1
(dp3631
g12
(dp3632
I0
I-1
sI1
I-1
sI-1
I-1
sssssssssI1
(dp3633
g20
(dp3634
I0
(dp3635
g3
(dp3636
I0
(dp3637
g9
(dp3638
I0
I-1
sI1
I-1
sI-1
(dp3639
g39
(dp3640
I1
I1
sI-1
I-1
sssssI1
(dp3641
g12
(dp3642
I0
(dp3643
g66
(dp3644
I1
I1
sI-1
I1
sssI1
(dp3645
g9
(dp3646
I0
I1
sI1
I1
sI-1
I1
sssI-1
(dp3647
g6
(dp3648
I0
I1
sI1
I1
sI-1
I-1
sssssI-1
(dp3649
g12
(dp3650
I0
(dp3651
g9
(dp3652
I0
I1
sI1
I1
sI-1
I1
sssI1
(dp3653
g6
(dp3654
I0
I-1
sI1
I1
sI-1
I-1
sssI-1
(dp3655
g6
(dp3656
I0
I1
sI1
I1
sI-1
I-1
sssssssI1
(dp3657
g12
(dp3658
I0
(dp3659
g9
(dp3660
I0
(dp3661
g27
(dp3662
I1
I1
sI-1
I1
sssI1
(dp3663
g39
(dp3664
I1
I1
sI-1
I1
sssI-1
(dp3665
g244
(dp3666
I1
I-1
sI-1
I1
sssssI1
(dp3667
g3
(dp3668
I0
I-1
sI1
(dp3669
g95
(dp3670
I1
I1
sI-1
I1
sssI-1
(dp3671
g6
(dp3672
I0
I-1
sI1
I1
sI-1
I-1
sssssI-1
(dp3673
g6
(dp3674
I0
I1
sI1
I1
sI-1
I-1
sssssI-1
(dp3675
g3
(dp3676
I0
(dp3677
g12
(dp3678
I0
I-1
sI1
(dp3679
g9
(dp3680
I0
I1
sI1
I-1
sssI-1
I-1
sssI1
(dp3681
g12
(dp3682
I0
(dp3683
g27
(dp3684
I1
I1
sI-1
I1
sssI1
(dp3685
g6
(dp3686
I0
I1
sI1
I1
sI-1
I-1
sssI-1
(dp3687
g6
(dp3688
I0
I1
sI1
I1
sI-1
I-1
sssssI-1
(dp3689
g220
(dp3690
I1
(dp3691
g66
(dp3692
I1
I-1
sI-1
I-1
sssI-1
(dp3693
g27
(dp3694
I1
I-1
sI-1
I-1
sssssssssI-1
(dp3695
g3
(dp3696
I0
I-1
sI1
(dp3697
g20
(dp3698
I0
(dp3699
g12
(dp3700
I0
(dp3701
g54
(dp3702
I1
I1
sI-1
I-1
sssI1
I1
sI-1
(dp3703
g6
(dp3704
I0
I1
sI1
I1
sI-1
I-1
sssssI1
(dp3705
g6
(dp3706
I0
(dp3707
g27
(dp3708
I1
I1
sI-1
I1
sssI1
(dp3709
g66
(dp3710
I1
I1
sI-1
I1
sssI-1
(dp3711
g548
(dp3712
I1
I-1
sI-1
I1
sssssI-1
(dp3713
g6
(dp3714
I0
(dp3715
g66
(dp3716
I1
I1
sI-1
I1
sssI1
(dp3717
g66
(dp3718
I1
I1
sI-1
I1
sssI-1
(dp3719
g34
(dp3720
I1
I1
sI-1
I-1
sssssssI-1
(dp3721
g20
(dp3722
I0
(dp3723
g6
(dp3724
I0
(dp3725
g27
(dp3726
I1
I-1
sI-1
I-1
sssI1
(dp3727
g63
(dp3728
I1
I-1
sI-1
I-1
sssI-1
I-1
sssI1
(dp3729
g6
(dp3730
I0
(dp3731
g9
(dp3732
I0
I1
sI1
I-1
sssI1
I1
sI-1
I-1
sssI-1
(dp3733
g12
(dp3734
I0
(dp3735
g63
(dp3736
I1
I-1
sI-1
I-1
sssI1
(dp3737
g9
(dp3738
I0
I-1
sI1
I-1
sI-1
I-1
sssI-1
I-1
ssssssssa(dp3739
g2
F1.239571472535625
sg15
(dp3740
I0
(dp3741
g3
(dp3742
I0
I-1
sI1
(dp3743
g20
(dp3744
I0
(dp3745
g12
(dp3746
I0
(dp3747
g155
(dp3748
I1
I1
sI-1
I1
sssI1
(dp3749
g9
(dp3750
I0
I1
sI1
I1
sI-1
I1
sssI-1
(dp3751
g9
(dp3752
I0
I1
sI1
I1
sssssI1
(dp3753
g6
(dp3754
I0
(dp3755
g27
(dp3756
I1
I1
sI-1
I1
sssI1
I1
sI-1
I-1
sssI-1
(dp3757
g9
(dp3758
I0
(dp3759
g12
(dp3760
I0
I-1
sI1
I1
sI-1
I1
sssI1
(dp3761
g12
(dp3762
I0
I-1
sI1
I1
sI-1
I1
sssI-1
I1
sssssI-1
(dp3763
g20
(dp3764
I0
(dp3765
g6
(dp3766
I0
(dp3767
g9
(dp3768
I0
I-1
sI1
I1
sI-1
I1
sssI1
I1
sI-1
I-1
sssI1
(dp3769
g257
(dp3770
I1
(dp3771
g6
(dp3772
I0
I1
sI1
I1
sI-1
I-1
sssI-1
(dp3773
g6
(dp3774
I0
I1
sI-1
I-1
sssssI-1
(dp3775
g39
(dp3776
I1
(dp3777
g12
(dp3778
I0
I-1
sI1
I-1
sI-1
I-1
sssI-1
(dp3779
g12
(dp3780
I0
I-1
sI1
I-1
sI-1
I-1
sssssssssI1
(dp3781
g20
(dp3782
I0
(dp3783
g3
(dp3784
I0
(dp3785
g9
(dp3786
I0
I-1
sI1
I-1
sI-1
(dp3787
g39
(dp3788
I1
I1
sI-1
I-1
sssssI1
(dp3789
g12
(dp3790
I0
(dp3791
g66
(dp3792
I1
I1
sI-1
I1
sssI1
(dp3793
g9
(dp3794
I0
I1
sI1
I1
sI-1
I1
sssI-1
(dp3795
g6
(dp3796
I0
I1
sI1
I1
sI-1
I-1
sssssI-1
(dp3797
g12
(dp3798
I0
(dp3799
g9
(dp3800
I0
I1
sI1
I1
sI-1
I1
sssI1
(dp3801
g9
(dp3802
I0
I-1
sI1
I1
sI-1
I-1
sssI-1
(dp3803
g6
(dp3804
I0
I1
sI1
I1
sI-1
I-1
sssssssI1
(dp3805
g12
(dp3806
I0
(dp3807
g9
(dp3808
I0
(dp3809
g27
(dp3810
I1
I1
sI-1
I1
sssI1
(dp3811
g39
(dp3812
I1
I1
sI-1
I1
sssI-1
(dp3813
g39
(dp3814
I1
I1
sI-1
I-1
sssssI1
(dp3815
g3
(dp3816
I0
I-1
sI1
(dp3817
g95
(dp3818
I1
I1
sI-1
I1
sssI-1
(dp3819
g9
(dp3820
I0
I-1
sI1
I1
sssssI-1
(dp3821
g6
(dp3822
I0
I1
sI1
I1
sI-1
I-1
sssssI-1
(dp3823
g3
(dp3824
I0
(dp3825
g12
(dp3826
I0
I-1
sI1
(dp3827
g9
(dp3828
I0
I1
sI1
I-1
sssI-1
I-1
sssI1
(dp3829
g12
(dp3830
I0
(dp3831
g27
(dp3832
I1
I1
sI-1
I1
sssI1
(dp3833
g6
(dp3834
I0
I1
sI1
I1
sI-1
I-1
sssI-1
(dp3835
g6
(dp3836
I0
I1
sI1
I1
sI-1
I-1
sssssI-1
(dp3837
g220
(dp3838
I1
(dp3839
g66
(dp3840
I1
I-1
sI-1
I-1
sssI-1
(dp3841
g27
(dp3842
I1
I-1
sI-1
I-1
sssssssssI-1
(dp3843
g3
(dp3844
I0
I-1
sI1
(dp3845
g20
(dp3846
I0
(dp3847
g12
(dp3848
I0
(dp3849
g54
(dp3850
I1
I1
sI-1
I-1
sssI1
I1
sI-1
(dp3851
g6
(dp3852
I0
I1
sI1
I1
sI-1
I-1
sssssI1
(dp3853
g6
(dp3854
I0
(dp3855
g12
(dp3856
I0
I-1
sI1
I1
sI-1
I1
sssI1
(dp3857
g66
(dp3858
I1
I1
sI-1
I1
sssI-1
(dp3859
g1158
(dp3860
I1
I-1
sI-1
I1
sssssI-1
(dp3861
g6
(dp3862
I0
(dp3863
g66
(dp3864
I1
I1
sI-1
I1
sssI1
(dp3865
g66
(dp3866
I1
I1
sI-1
I1
sssI-1
(dp3867
g34
(dp3868
I1
I1
sI-1
I-1
sssssssI-1
(dp3869
g20
(dp3870
I0
(dp3871
g6
(dp3872
I0
(dp3873
g27
(dp3874
I1
I-1
sI-1
I-1
sssI1
(dp3875
g63
(dp3876
I1
I-1
sI-1
I-1
sssI-1
I-1
sssI1
(dp3877
g6
(dp3878
I0
(dp3879
g9
(dp3880
I0
I1
sI1
I-1
sssI1
I1
sI-1
I-1
sssI-1
(dp3881
g12
(dp3882
I0
(dp3883
g63
(dp3884
I1
I-1
sI-1
I-1
sssI1
(dp3885
g9
(dp3886
I0
I-1
sI1
I-1
sI-1
I-1
sssI-1
I-1
ssssssssa(dp3887
g2
F1.2585601348858275
sg15
(dp3888
I0
(dp3889
g3
(dp3890
I0
I-1
sI1
(dp3891
g20
(dp3892
I0
(dp3893
g12
(dp3894
I0
(dp3895
g155
(dp3896
I1
I1
sI-1
I1
sssI1
(dp3897
g9
(dp3898
I0
I1
sI1
I1
sI-1
I1
sssI-1
(dp3899
g9
(dp3900
I0
I1
sI1
I1
sssssI1
(dp3901
g27
(dp3902
I1
(dp3903
g244
(dp3904
I1
I-1
sI-1
I1
sssI-1
(dp3905
g12
(dp3906
I0
I-1
sI1
I1
sI-1
I1
sssssI-1
(dp3907
g9
(dp3908
I0
(dp3909
g12
(dp3910
I0
I-1
sI1
I1
sI-1
I1
sssI1
(dp3911
g12
(dp3912
I0
I-1
sI1
I1
sI-1
I1
sssI-1
I1
sssssI-1
(dp3913
g20
(dp3914
I0
(dp3915
g6
(dp3916
I0
(dp3917
g39
(dp3918
I1
I1
sI-1
I-1
sssI1
I1
sI-1
I-1
sssI1
(dp3919
g12
(dp3920
I0
(dp3921
g488
(dp3922
I1
I1
sI-1
I-1
sssI1
(dp3923
g9
(dp3924
I0
I1
sI1
I-1
sssI-1
(dp3925
g877
(dp3926
I1
I-1
sI-1
I-1
sssssI-1
(dp3927
g39
(dp3928
I1
(dp3929
g12
(dp3930
I0
I-1
sI1
I-1
sI-1
I-1
sssI-1
(dp3931
g12
(dp3932
I0
I-1
sI1
I-1
sI-1
I-1
sssssssssI1
(dp3933
g20
(dp3934
I0
(dp3935
g3
(dp3936
I0
(dp3937
g9
(dp3938
I0
I-1
sI1
I-1
sI-1
(dp3939
g39
(dp3940
I1
I1
sI-1
I-1
sssssI1
(dp3941
g12
(dp3942
I0
(dp3943
g66
(dp3944
I1
I1
sI-1
I1
sssI1
(dp3945
g9
(dp3946
I0
I1
sI1
I1
sI-1
I1
sssI-1
(dp3947
g6
(dp3948
I0
I1
sI1
I1
sI-1
I-1
sssssI-1
(dp3949
g12
(dp3950
I0
(dp3951
g9
(dp3952
I0
I1
sI1
I1
sI-1
I1
sssI1
(dp3953
g6
(dp3954
I0
I-1
sI1
I1
sI-1
I-1
sssI-1
(dp3955
g6
(dp3956
I0
I1
sI1
I1
sI-1
I-1
sssssssI1
(dp3957
g12
(dp3958
I0
(dp3959
g9
(dp3960
I0
(dp3961
g27
(dp3962
I1
I1
sI-1
I1
sssI1
(dp3963
g39
(dp3964
I1
I1
sI-1
I1
sssI-1
(dp3965
g244
(dp3966
I1
I-1
sI-1
I1
sssssI1
(dp3967
g3
(dp3968
I0
I-1
sI1
(dp3969
g95
(dp3970
I1
I1
sI-1
I1
sssI-1
(dp3971
g6
(dp3972
I0
I-1
sI1
I1
sI-1
I-1
sssssI-1
(dp3973
g6
(dp3974
I0
I1
sI1
I1
sI-1
I-1
sssssI-1
(dp3975
g3
(dp3976
I0
(dp3977
g12
(dp3978
I0
I-1
sI1
(dp3979
g9
(dp3980
I0
I1
sI1
I-1
sssI-1
I-1
sssI1
(dp3981
g12
(dp3982
I0
(dp3983
g27
(dp3984
I1
I1
sI-1
I1
sssI1
(dp3985
g6
(dp3986
I0
I1
sI1
I1
sI-1
I-1
sssI-1
(dp3987
g6
(dp3988
I0
I1
sI1
I1
sI-1
I-1
sssssI-1
(dp3989
g220
(dp3990
I1
(dp3991
g66
(dp3992
I1
I-1
sI-1
I-1
sssI-1
(dp3993
g27
(dp3994
I1
I-1
sI-1
I-1
sssssssssI-1
(dp3995
g3
(dp3996
I0
I-1
sI1
(dp3997
g20
(dp3998
I0
(dp3999
g12
(dp4000
I0
(dp4001
g54
(dp4002
I1
I1
sI-1
I-1
sssI1
I1
sI-1
(dp4003
g6
(dp4004
I0
I1
sI1
I1
sI-1
I-1
sssssI1
(dp4005
g6
(dp4006
I0
(dp4007
g27
(dp4008
I1
I1
sI-1
I1
sssI1
(dp4009
g66
(dp4010
I1
I1
sI-1
I1
sssI-1
(dp4011
g39
(dp4012
I1
I1
sI-1
I-1
sssssI-1
(dp4013
g6
(dp4014
I0
(dp4015
g66
(dp4016
I1
I1
sI-1
I1
sssI1
(dp4017
g66
(dp4018
I1
I1
sI-1
I1
sssI-1
(dp4019
g34
(dp4020
I1
I1
sI-1
I-1
sssssssI-1
(dp4021
g20
(dp4022
I0
(dp4023
g6
(dp4024
I0
(dp4025
g27
(dp4026
I1
I-1
sI-1
I-1
sssI1
(dp4027
g63
(dp4028
I1
I-1
sI-1
I-1
sssI-1
I-1
sssI1
(dp4029
g6
(dp4030
I0
(dp4031
g9
(dp4032
I0
I1
sI1
I-1
sssI1
I1
sI-1
I-1
sssI-1
(dp4033
g12
(dp4034
I0
(dp4035
g63
(dp4036
I1
I-1
sI-1
I-1
sssI1
(dp4037
g9
(dp4038
I0
I-1
sI1
I-1
sI-1
I-1
sssI-1
I-1
ssssssssa(dp4039
g2
F1.239571472535625
sg15
(dp4040
I0
(dp4041
g3
(dp4042
I0
I-1
sI1
(dp4043
g20
(dp4044
I0
(dp4045
g12
(dp4046
I0
(dp4047
g155
(dp4048
I1
I1
sI-1
I1
sssI1
(dp4049
g9
(dp4050
I0
I1
sI1
I1
sI-1
I1
sssI-1
(dp4051
g9
(dp4052
I0
I1
sI1
I1
sssssI1
(dp4053
g6
(dp4054
I0
(dp4055
g27
(dp4056
I1
I1
sI-1
I1
sssI1
I1
sI-1
I-1
sssI-1
(dp4057
g9
(dp4058
I0
(dp4059
g12
(dp4060
I0
I-1
sI1
I1
sI-1
I1
sssI1
(dp4061
g12
(dp4062
I0
I-1
sI1
I1
sI-1
I1
sssI-1
I1
sssssI-1
(dp4063
g20
(dp4064
I0
(dp4065
g6
(dp4066
I0
(dp4067
g9
(dp4068
I0
I-1
sI1
I1
sI-1
I1
sssI1
I1
sI-1
I-1
sssI1
(dp4069
g257
(dp4070
I1
(dp4071
g6
(dp4072
I0
I1
sI1
I1
sI-1
I-1
sssI-1
(dp4073
g6
(dp4074
I0
I1
sI-1
I-1
sssssI-1
(dp4075
g39
(dp4076
I1
(dp4077
g12
(dp4078
I0
I-1
sI1
I-1
sI-1
I-1
sssI-1
(dp4079
g12
(dp4080
I0
I-1
sI1
I-1
sI-1
I-1
sssssssssI1
(dp4081
g20
(dp4082
I0
(dp4083
g3
(dp4084
I0
(dp4085
g9
(dp4086
I0
I-1
sI1
I-1
sI-1
(dp4087
g39
(dp4088
I1
I1
sI-1
I-1
sssssI1
(dp4089
g12
(dp4090
I0
(dp4091
g66
(dp4092
I1
I1
sI-1
I1
sssI1
(dp4093
g9
(dp4094
I0
I1
sI1
I1
sI-1
I1
sssI-1
(dp4095
g6
(dp4096
I0
I1
sI1
I1
sI-1
I-1
sssssI-1
(dp4097
g12
(dp4098
I0
(dp4099
g9
(dp4100
I0
I1
sI1
I1
sI-1
I1
sssI1
(dp4101
g9
(dp4102
I0
I-1
sI1
I1
sI-1
I-1
sssI-1
(dp4103
g6
(dp4104
I0
I1
sI1
I1
sI-1
I-1
sssssssI1
(dp4105
g12
(dp4106
I0
(dp4107
g9
(dp4108
I0
(dp4109
g27
(dp4110
I1
I1
sI-1
I1
sssI1
(dp4111
g39
(dp4112
I1
I1
sI-1
I1
sssI-1
(dp4113
g39
(dp4114
I1
I1
sI-1
I-1
sssssI1
(dp4115
g3
(dp4116
I0
I-1
sI1
(dp4117
g95
(dp4118
I1
I1
sI-1
I1
sssI-1
(dp4119
g1719
(dp4120
I0
I1
sI1
I-1
sssssI-1
(dp4121
g6
(dp4122
I0
I1
sI1
I1
sI-1
I-1
sssssI-1
(dp4123
g3
(dp4124
I0
(dp4125
g12
(dp4126
I0
I-1
sI1
(dp4127
g9
(dp4128
I0
I1
sI1
I-1
sssI-1
I-1
sssI1
(dp4129
g12
(dp4130
I0
(dp4131
g27
(dp4132
I1
I1
sI-1
I1
sssI1
(dp4133
g6
(dp4134
I0
I1
sI1
I1
sI-1
I-1
sssI-1
(dp4135
g6
(dp4136
I0
I1
sI1
I1
sI-1
I-1
sssssI-1
(dp4137
g220
(dp4138
I1
(dp4139
g66
(dp4140
I1
I-1
sI-1
I-1
sssI-1
(dp4141
g27
(dp4142
I1
I-1
sI-1
I-1
sssssssssI-1
(dp4143
g3
(dp4144
I0
I-1
sI1
(dp4145
g20
(dp4146
I0
(dp4147
g12
(dp4148
I0
(dp4149
g54
(dp4150
I1
I1
sI-1
I-1
sssI1
I1
sI-1
(dp4151
g6
(dp4152
I0
I1
sI1
I1
sI-1
I-1
sssssI1
(dp4153
g6
(dp4154
I0
(dp4155
g12
(dp4156
I0
I-1
sI1
I1
sI-1
I1
sssI1
(dp4157
g66
(dp4158
I1
I1
sI-1
I1
sssI-1
(dp4159
g548
(dp4160
I1
I-1
sI-1
I1
sssssI-1
(dp4161
g6
(dp4162
I0
(dp4163
g66
(dp4164
I1
I1
sI-1
I1
sssI1
(dp4165
g66
(dp4166
I1
I1
sI-1
I1
sssI-1
(dp4167
g34
(dp4168
I1
I1
sI-1
I-1
sssssssI-1
(dp4169
g20
(dp4170
I0
(dp4171
g6
(dp4172
I0
(dp4173
g27
(dp4174
I1
I-1
sI-1
I-1
sssI1
(dp4175
g63
(dp4176
I1
I-1
sI-1
I-1
sssI-1
I-1
sssI1
(dp4177
g6
(dp4178
I0
(dp4179
g9
(dp4180
I0
I1
sI1
I-1
sssI1
I1
sI-1
I-1
sssI-1
(dp4181
g12
(dp4182
I0
(dp4183
g63
(dp4184
I1
I-1
sI-1
I-1
sssI1
(dp4185
g9
(dp4186
I0
I-1
sI1
I-1
sI-1
I-1
sssI-1
I-1
ssssssssa(dp4187
g2
F1.2585601348858275
sg15
(dp4188
I0
(dp4189
g3
(dp4190
I0
I-1
sI1
(dp4191
g20
(dp4192
I0
(dp4193
g12
(dp4194
I0
(dp4195
g155
(dp4196
I1
I1
sI-1
I1
sssI1
(dp4197
g9
(dp4198
I0
I1
sI1
I1
sI-1
I1
sssI-1
(dp4199
g9
(dp4200
I0
I1
sI1
I1
sssssI1
(dp4201
g27
(dp4202
I1
(dp4203
g244
(dp4204
I1
I-1
sI-1
I1
sssI-1
(dp4205
g12
(dp4206
I0
I-1
sI1
I1
sI-1
I1
sssssI-1
(dp4207
g9
(dp4208
I0
(dp4209
g12
(dp4210
I0
I-1
sI1
I1
sI-1
I1
sssI1
(dp4211
g12
(dp4212
I0
I-1
sI1
I1
sI-1
I1
sssI-1
I1
sssssI-1
(dp4213
g20
(dp4214
I0
(dp4215
g6
(dp4216
I0
(dp4217
g39
(dp4218
I1
I1
sI-1
I-1
sssI1
I1
sI-1
I-1
sssI1
(dp4219
g12
(dp4220
I0
(dp4221
g488
(dp4222
I1
I1
sI-1
I-1
sssI1
(dp4223
g9
(dp4224
I0
I1
sI1
I-1
sssI-1
(dp4225
g877
(dp4226
I1
I-1
sI-1
I-1
sssssI-1
(dp4227
g39
(dp4228
I1
(dp4229
g12
(dp4230
I0
I-1
sI1
I-1
sI-1
I-1
sssI-1
(dp4231
g12
(dp4232
I0
I-1
sI1
I-1
sI-1
I-1
sssssssssI1
(dp4233
g20
(dp4234
I0
(dp4235
g3
(dp4236
I0
(dp4237
g9
(dp4238
I0
I-1
sI1
I-1
sI-1
(dp4239
g39
(dp4240
I1
I1
sI-1
I-1
sssssI1
(dp4241
g12
(dp4242
I0
(dp4243
g66
(dp4244
I1
I1
sI-1
I1
sssI1
(dp4245
g9
(dp4246
I0
I1
sI1
I1
sI-1
I1
sssI-1
(dp4247
g6
(dp4248
I0
I1
sI1
I1
sI-1
I-1
sssssI-1
(dp4249
g12
(dp4250
I0
(dp4251
g9
(dp4252
I0
I1
sI1
I1
sI-1
I1
sssI1
(dp4253
g6
(dp4254
I0
I-1
sI1
I1
sI-1
I-1
sssI-1
(dp4255
g6
(dp4256
I0
I1
sI1
I1
sI-1
I-1
sssssssI1
(dp4257
g12
(dp4258
I0
(dp4259
g9
(dp4260
I0
(dp4261
g27
(dp4262
I1
I1
sI-1
I1
sssI1
(dp4263
g39
(dp4264
I1
I1
sI-1
I1
sssI-1
(dp4265
g244
(dp4266
I1
I-1
sI-1
I1
sssssI1
(dp4267
g3
(dp4268
I0
I-1
sI1
(dp4269
g95
(dp4270
I1
I1
sI-1
I1
sssI-1
(dp4271
g6
(dp4272
I0
I-1
sI1
I1
sI-1
I-1
sssssI-1
(dp4273
g6
(dp4274
I0
I1
sI1
I1
sI-1
I-1
sssssI-1
(dp4275
g3
(dp4276
I0
(dp4277
g12
(dp4278
I0
I-1
sI1
(dp4279
g9
(dp4280
I0
I1
sI1
I-1
sssI-1
I-1
sssI1
(dp4281
g12
(dp4282
I0
(dp4283
g27
(dp4284
I1
I1
sI-1
I1
sssI1
(dp4285
g6
(dp4286
I0
I1
sI1
I1
sI-1
I-1
sssI-1
(dp4287
g6
(dp4288
I0
I1
sI1
I1
sI-1
I-1
sssssI-1
(dp4289
g220
(dp4290
I1
(dp4291
g66
(dp4292
I1
I-1
sI-1
I-1
sssI-1
(dp4293
g27
(dp4294
I1
I-1
sI-1
I-1
sssssssssI-1
(dp4295
g3
(dp4296
I0
I-1
sI1
(dp4297
g20
(dp4298
I0
(dp4299
g12
(dp4300
I0
(dp4301
g54
(dp4302
I1
I1
sI-1
I-1
sssI1
I1
sI-1
(dp4303
g6
(dp4304
I0
I1
sI1
I1
sI-1
I-1
sssssI1
(dp4305
g6
(dp4306
I0
(dp4307
g27
(dp4308
I1
I1
sI-1
I1
sssI1
(dp4309
g66
(dp4310
I1
I1
sI-1
I1
sssI-1
(dp4311
g1158
(dp4312
I1
I-1
sI-1
I1
sssssI-1
(dp4313
g6
(dp4314
I0
(dp4315
g66
(dp4316
I1
I1
sI-1
I1
sssI1
(dp4317
g66
(dp4318
I1
I1
sI-1
I1
sssI-1
(dp4319
g34
(dp4320
I1
I1
sI-1
I-1
sssssssI-1
(dp4321
g20
(dp4322
I0
(dp4323
g6
(dp4324
I0
(dp4325
g27
(dp4326
I1
I-1
sI-1
I-1
sssI1
(dp4327
g63
(dp4328
I1
I-1
sI-1
I-1
sssI-1
I-1
sssI1
(dp4329
g6
(dp4330
I0
(dp4331
g9
(dp4332
I0
I1
sI1
I-1
sssI1
I1
sI-1
I-1
sssI-1
(dp4333
g12
(dp4334
I0
(dp4335
g63
(dp4336
I1
I-1
sI-1
I-1
sssI1
(dp4337
g9
(dp4338
I0
I-1
sI1
I-1
sI-1
I-1
sssI-1
I-1
ssssssssa(dp4339
g2
F1.239571472535625
sg15
(dp4340
I0
(dp4341
g3
(dp4342
I0
I-1
sI1
(dp4343
g20
(dp4344
I0
(dp4345
g12
(dp4346
I0
(dp4347
g155
(dp4348
I1
I1
sI-1
I1
sssI1
(dp4349
g9
(dp4350
I0
I1
sI1
I1
sI-1
I1
sssI-1
(dp4351
g9
(dp4352
I0
I1
sI1
I1
sssssI1
(dp4353
g6
(dp4354
I0
(dp4355
g27
(dp4356
I1
I1
sI-1
I1
sssI1
I1
sI-1
I-1
sssI-1
(dp4357
g9
(dp4358
I0
(dp4359
g12
(dp4360
I0
I-1
sI1
I1
sI-1
I1
sssI1
(dp4361
g12
(dp4362
I0
I-1
sI1
I1
sI-1
I1
sssI-1
I1
sssssI-1
(dp4363
g20
(dp4364
I0
(dp4365
g6
(dp4366
I0
(dp4367
g9
(dp4368
I0
I-1
sI1
I1
sI-1
I1
sssI1
I1
sI-1
I-1
sssI1
(dp4369
g257
(dp4370
I1
(dp4371
g6
(dp4372
I0
I1
sI1
I1
sI-1
I-1
sssI-1
(dp4373
g6
(dp4374
I0
I1
sI-1
I-1
sssssI-1
(dp4375
g39
(dp4376
I1
(dp4377
g12
(dp4378
I0
I-1
sI1
I-1
sI-1
I-1
sssI-1
(dp4379
g12
(dp4380
I0
I-1
sI1
I-1
sI-1
I-1
sssssssssI1
(dp4381
g20
(dp4382
I0
(dp4383
g3
(dp4384
I0
(dp4385
g9
(dp4386
I0
I-1
sI1
I-1
sI-1
(dp4387
g39
(dp4388
I1
I1
sI-1
I-1
sssssI1
(dp4389
g12
(dp4390
I0
(dp4391
g66
(dp4392
I1
I1
sI-1
I1
sssI1
(dp4393
g9
(dp4394
I0
I1
sI1
I1
sI-1
I1
sssI-1
(dp4395
g6
(dp4396
I0
I1
sI1
I1
sI-1
I-1
sssssI-1
(dp4397
g12
(dp4398
I0
(dp4399
g9
(dp4400
I0
I1
sI1
I1
sI-1
I1
sssI1
(dp4401
g9
(dp4402
I0
I-1
sI1
I1
sI-1
I-1
sssI-1
(dp4403
g6
(dp4404
I0
I1
sI1
I1
sI-1
I-1
sssssssI1
(dp4405
g12
(dp4406
I0
(dp4407
g9
(dp4408
I0
(dp4409
g27
(dp4410
I1
I1
sI-1
I1
sssI1
(dp4411
g39
(dp4412
I1
I1
sI-1
I1
sssI-1
(dp4413
g39
(dp4414
I1
I1
sI-1
I-1
sssssI1
(dp4415
g3
(dp4416
I0
I-1
sI1
(dp4417
g95
(dp4418
I1
I1
sI-1
I1
sssI-1
(dp4419
g9
(dp4420
I0
I-1
sI1
I1
sssssI-1
(dp4421
g6
(dp4422
I0
I1
sI1
I1
sI-1
I-1
sssssI-1
(dp4423
g3
(dp4424
I0
(dp4425
g12
(dp4426
I0
I-1
sI1
(dp4427
g9
(dp4428
I0
I1
sI1
I-1
sssI-1
I-1
sssI1
(dp4429
g12
(dp4430
I0
(dp4431
g27
(dp4432
I1
I1
sI-1
I1
sssI1
(dp4433
g6
(dp4434
I0
I1
sI1
I1
sI-1
I-1
sssI-1
(dp4435
g6
(dp4436
I0
I1
sI1
I1
sI-1
I-1
sssssI-1
(dp4437
g220
(dp4438
I1
(dp4439
g66
(dp4440
I1
I-1
sI-1
I-1
sssI-1
(dp4441
g27
(dp4442
I1
I-1
sI-1
I-1
sssssssssI-1
(dp4443
g3
(dp4444
I0
I-1
sI1
(dp4445
g20
(dp4446
I0
(dp4447
g12
(dp4448
I0
(dp4449
g54
(dp4450
I1
I1
sI-1
I-1
sssI1
I1
sI-1
(dp4451
g6
(dp4452
I0
I1
sI1
I1
sI-1
I-1
sssssI1
(dp4453
g6
(dp4454
I0
(dp4455
g12
(dp4456
I0
I-1
sI1
I1
sI-1
I1
sssI1
(dp4457
g66
(dp4458
I1
I1
sI-1
I1
sssI-1
(dp4459
g39
(dp4460
I1
I1
sI-1
I-1
sssssI-1
(dp4461
g6
(dp4462
I0
(dp4463
g66
(dp4464
I1
I1
sI-1
I1
sssI1
(dp4465
g66
(dp4466
I1
I1
sI-1
I1
sssI-1
(dp4467
g34
(dp4468
I1
I1
sI-1
I-1
sssssssI-1
(dp4469
g20
(dp4470
I0
(dp4471
g6
(dp4472
I0
(dp4473
g27
(dp4474
I1
I-1
sI-1
I-1
sssI1
(dp4475
g63
(dp4476
I1
I-1
sI-1
I-1
sssI-1
I-1
sssI1
(dp4477
g6
(dp4478
I0
(dp4479
g9
(dp4480
I0
I1
sI1
I-1
sssI1
I1
sI-1
I-1
sssI-1
(dp4481
g12
(dp4482
I0
(dp4483
g63
(dp4484
I1
I-1
sI-1
I-1
sssI1
(dp4485
g9
(dp4486
I0
I-1
sI1
I-1
sI-1
I-1
sssI-1
I-1
ssssssssa(dp4487
g2
F1.2585601348858275
sg15
(dp4488
I0
(dp4489
g3
(dp4490
I0
I-1
sI1
(dp4491
g20
(dp4492
I0
(dp4493
g12
(dp4494
I0
(dp4495
g155
(dp4496
I1
I1
sI-1
I1
sssI1
(dp4497
g9
(dp4498
I0
I1
sI1
I1
sI-1
I1
sssI-1
(dp4499
g9
(dp4500
I0
I1
sI1
I1
sssssI1
(dp4501
g27
(dp4502
I1
(dp4503
g244
(dp4504
I1
I-1
sI-1
I1
sssI-1
(dp4505
g12
(dp4506
I0
I-1
sI1
I1
sI-1
I1
sssssI-1
(dp4507
g9
(dp4508
I0
(dp4509
g12
(dp4510
I0
I-1
sI1
I1
sI-1
I1
sssI1
(dp4511
g12
(dp4512
I0
I-1
sI1
I1
sI-1
I1
sssI-1
I1
sssssI-1
(dp4513
g20
(dp4514
I0
(dp4515
g6
(dp4516
I0
(dp4517
g39
(dp4518
I1
I1
sI-1
I-1
sssI1
I1
sI-1
I-1
sssI1
(dp4519
g12
(dp4520
I0
(dp4521
g488
(dp4522
I1
I1
sI-1
I-1
sssI1
(dp4523
g9
(dp4524
I0
I1
sI1
I-1
sssI-1
(dp4525
g877
(dp4526
I1
I-1
sI-1
I-1
sssssI-1
(dp4527
g39
(dp4528
I1
(dp4529
g12
(dp4530
I0
I-1
sI1
I-1
sI-1
I-1
sssI-1
(dp4531
g12
(dp4532
I0
I-1
sI1
I-1
sI-1
I-1
sssssssssI1
(dp4533
g20
(dp4534
I0
(dp4535
g3
(dp4536
I0
(dp4537
g9
(dp4538
I0
I-1
sI1
I-1
sI-1
(dp4539
g39
(dp4540
I1
I1
sI-1
I-1
sssssI1
(dp4541
g12
(dp4542
I0
(dp4543
g66
(dp4544
I1
I1
sI-1
I1
sssI1
(dp4545
g9
(dp4546
I0
I1
sI1
I1
sI-1
I1
sssI-1
(dp4547
g6
(dp4548
I0
I1
sI1
I1
sI-1
I-1
sssssI-1
(dp4549
g12
(dp4550
I0
(dp4551
g9
(dp4552
I0
I1
sI1
I1
sI-1
I1
sssI1
(dp4553
g6
(dp4554
I0
I-1
sI1
I1
sI-1
I-1
sssI-1
(dp4555
g6
(dp4556
I0
I1
sI1
I1
sI-1
I-1
sssssssI1
(dp4557
g12
(dp4558
I0
(dp4559
g9
(dp4560
I0
(dp4561
g27
(dp4562
I1
I1
sI-1
I1
sssI1
(dp4563
g39
(dp4564
I1
I1
sI-1
I1
sssI-1
(dp4565
g244
(dp4566
I1
I-1
sI-1
I1
sssssI1
(dp4567
g3
(dp4568
I0
I-1
sI1
(dp4569
g95
(dp4570
I1
I1
sI-1
I1
sssI-1
(dp4571
g6
(dp4572
I0
I-1
sI1
I1
sI-1
I-1
sssssI-1
(dp4573
g6
(dp4574
I0
I1
sI1
I1
sI-1
I-1
sssssI-1
(dp4575
g3
(dp4576
I0
(dp4577
g12
(dp4578
I0
I-1
sI1
(dp4579
g9
(dp4580
I0
I1
sI1
I-1
sssI-1
I-1
sssI1
(dp4581
g12
(dp4582
I0
(dp4583
g27
(dp4584
I1
I1
sI-1
I1
sssI1
(dp4585
g6
(dp4586
I0
I1
sI1
I1
sI-1
I-1
sssI-1
(dp4587
g6
(dp4588
I0
I1
sI1
I1
sI-1
I-1
sssssI-1
(dp4589
g220
(dp4590
I1
(dp4591
g66
(dp4592
I1
I-1
sI-1
I-1
sssI-1
(dp4593
g27
(dp4594
I1
I-1
sI-1
I-1
sssssssssI-1
(dp4595
g3
(dp4596
I0
I-1
sI1
(dp4597
g20
(dp4598
I0
(dp4599
g12
(dp4600
I0
(dp4601
g54
(dp4602
I1
I1
sI-1
I-1
sssI1
I1
sI-1
(dp4603
g6
(dp4604
I0
I1
sI1
I1
sI-1
I-1
sssssI1
(dp4605
g6
(dp4606
I0
(dp4607
g27
(dp4608
I1
I1
sI-1
I1
sssI1
(dp4609
g66
(dp4610
I1
I1
sI-1
I1
sssI-1
(dp4611
g548
(dp4612
I1
I-1
sI-1
I1
sssssI-1
(dp4613
g6
(dp4614
I0
(dp4615
g66
(dp4616
I1
I1
sI-1
I1
sssI1
(dp4617
g66
(dp4618
I1
I1
sI-1
I1
sssI-1
(dp4619
g34
(dp4620
I1
I1
sI-1
I-1
sssssssI-1
(dp4621
g20
(dp4622
I0
(dp4623
g6
(dp4624
I0
(dp4625
g27
(dp4626
I1
I-1
sI-1
I-1
sssI1
(dp4627
g63
(dp4628
I1
I-1
sI-1
I-1
sssI-1
I-1
sssI1
(dp4629
g6
(dp4630
I0
(dp4631
g9
(dp4632
I0
I1
sI1
I-1
sssI1
I1
sI-1
I-1
sssI-1
(dp4633
g12
(dp4634
I0
(dp4635
g63
(dp4636
I1
I-1
sI-1
I-1
sssI1
(dp4637
g9
(dp4638
I0
I-1
sI1
I-1
sI-1
I-1
sssI-1
I-1
ssssssssa(dp4639
g2
F1.2419119063245843
sg15
(dp4640
I0
(dp4641
g3
(dp4642
I0
I-1
sI1
(dp4643
g20
(dp4644
I0
(dp4645
g12
(dp4646
I0
(dp4647
g155
(dp4648
I1
I1
sI-1
I1
sssI1
(dp4649
g9
(dp4650
I0
I1
sI1
I1
sI-1
I1
sssI-1
(dp4651
g9
(dp4652
I0
I1
sI1
I1
sssssI1
(dp4653
g6
(dp4654
I0
(dp4655
g27
(dp4656
I1
I1
sI-1
I1
sssI1
I1
sI-1
I-1
sssI-1
(dp4657
g9
(dp4658
I0
(dp4659
g12
(dp4660
I0
I-1
sI1
I1
sI-1
I1
sssI1
(dp4661
g12
(dp4662
I0
I-1
sI1
I1
sI-1
I1
sssI-1
I1
sssssI-1
(dp4663
g20
(dp4664
I0
(dp4665
g6
(dp4666
I0
(dp4667
g9
(dp4668
I0
I-1
sI1
I1
sI-1
I1
sssI1
I1
sI-1
I-1
sssI1
(dp4669
g6
(dp4670
I0
(dp4671
g12
(dp4672
I0
I-1
sI1
I1
sI-1
I1
sssI1
I1
sI-1
I-1
sssI-1
(dp4673
g39
(dp4674
I1
(dp4675
g12
(dp4676
I0
I-1
sI1
I-1
sI-1
I-1
sssI-1
(dp4677
g12
(dp4678
I0
I-1
sI1
I-1
sI-1
I-1
sssssssssI1
(dp4679
g20
(dp4680
I0
(dp4681
g3
(dp4682
I0
(dp4683
g9
(dp4684
I0
I-1
sI1
I-1
sI-1
(dp4685
g39
(dp4686
I1
I1
sI-1
I-1
sssssI1
(dp4687
g12
(dp4688
I0
(dp4689
g66
(dp4690
I1
I1
sI-1
I1
sssI1
(dp4691
g9
(dp4692
I0
I1
sI1
I1
sI-1
I1
sssI-1
(dp4693
g6
(dp4694
I0
I1
sI1
I1
sI-1
I-1
sssssI-1
(dp4695
g12
(dp4696
I0
(dp4697
g9
(dp4698
I0
I1
sI1
I1
sI-1
I1
sssI1
(dp4699
g9
(dp4700
I0
I-1
sI1
I1
sI-1
I-1
sssI-1
(dp4701
g6
(dp4702
I0
I1
sI1
I1
sI-1
I-1
sssssssI1
(dp4703
g12
(dp4704
I0
(dp4705
g9
(dp4706
I0
(dp4707
g27
(dp4708
I1
I1
sI-1
I1
sssI1
(dp4709
g39
(dp4710
I1
I1
sI-1
I1
sssI-1
(dp4711
g39
(dp4712
I1
I1
sI-1
I-1
sssssI1
(dp4713
g3
(dp4714
I0
I-1
sI1
(dp4715
g95
(dp4716
I1
I1
sI-1
I1
sssI-1
(dp4717
g1719
(dp4718
I0
I1
sI1
I-1
sssssI-1
(dp4719
g6
(dp4720
I0
I1
sI1
I1
sI-1
I-1
sssssI-1
(dp4721
g3
(dp4722
I0
(dp4723
g12
(dp4724
I0
I-1
sI1
(dp4725
g9
(dp4726
I0
I1
sI1
I-1
sssI-1
I-1
sssI1
(dp4727
g12
(dp4728
I0
(dp4729
g27
(dp4730
I1
I1
sI-1
I1
sssI1
(dp4731
g6
(dp4732
I0
I1
sI1
I1
sI-1
I-1
sssI-1
(dp4733
g6
(dp4734
I0
I1
sI1
I1
sI-1
I-1
sssssI-1
(dp4735
g220
(dp4736
I1
(dp4737
g66
(dp4738
I1
I-1
sI-1
I-1
sssI-1
(dp4739
g27
(dp4740
I1
I-1
sI-1
I-1
sssssssssI-1
(dp4741
g3
(dp4742
I0
I-1
sI1
(dp4743
g20
(dp4744
I0
(dp4745
g12
(dp4746
I0
(dp4747
g54
(dp4748
I1
I1
sI-1
I-1
sssI1
I1
sI-1
(dp4749
g6
(dp4750
I0
I1
sI1
I1
sI-1
I-1
sssssI1
(dp4751
g6
(dp4752
I0
(dp4753
g12
(dp4754
I0
I-1
sI1
I1
sI-1
I1
sssI1
(dp4755
g66
(dp4756
I1
I1
sI-1
I1
sssI-1
(dp4757
g1158
(dp4758
I1
I-1
sI-1
I1
sssssI-1
(dp4759
g6
(dp4760
I0
(dp4761
g66
(dp4762
I1
I1
sI-1
I1
sssI1
(dp4763
g66
(dp4764
I1
I1
sI-1
I1
sssI-1
(dp4765
g34
(dp4766
I1
I1
sI-1
I-1
sssssssI-1
(dp4767
g20
(dp4768
I0
(dp4769
g6
(dp4770
I0
(dp4771
g27
(dp4772
I1
I-1
sI-1
I-1
sssI1
(dp4773
g63
(dp4774
I1
I-1
sI-1
I-1
sssI-1
I-1
sssI1
(dp4775
g6
(dp4776
I0
(dp4777
g9
(dp4778
I0
I1
sI1
I-1
sssI1
I1
sI-1
I-1
sssI-1
(dp4779
g12
(dp4780
I0
(dp4781
g63
(dp4782
I1
I-1
sI-1
I-1
sssI1
(dp4783
g9
(dp4784
I0
I-1
sI1
I-1
sI-1
I-1
sssI-1
I-1
ssssssssa(dp4785
g2
F1.2419119063245843
sg15
(dp4786
I0
(dp4787
g3
(dp4788
I0
I-1
sI1
(dp4789
g20
(dp4790
I0
(dp4791
g12
(dp4792
I0
(dp4793
g155
(dp4794
I1
I1
sI-1
I1
sssI1
(dp4795
g9
(dp4796
I0
I1
sI1
I1
sI-1
I1
sssI-1
(dp4797
g9
(dp4798
I0
I1
sI1
I1
sssssI1
(dp4799
g27
(dp4800
I1
(dp4801
g244
(dp4802
I1
I-1
sI-1
I1
sssI-1
(dp4803
g12
(dp4804
I0
I-1
sI1
I1
sI-1
I1
sssssI-1
(dp4805
g9
(dp4806
I0
(dp4807
g12
(dp4808
I0
I-1
sI1
I1
sI-1
I1
sssI1
(dp4809
g12
(dp4810
I0
I-1
sI1
I1
sI-1
I1
sssI-1
I1
sssssI-1
(dp4811
g20
(dp4812
I0
(dp4813
g6
(dp4814
I0
(dp4815
g39
(dp4816
I1
I1
sI-1
I-1
sssI1
I1
sI-1
I-1
sssI1
(dp4817
g132
(dp4818
I1
(dp4819
g66
(dp4820
I1
I-1
sI-1
I-1
sssI-1
(dp4821
g877
(dp4822
I1
I-1
sI-1
I-1
sssssI-1
(dp4823
g39
(dp4824
I1
(dp4825
g12
(dp4826
I0
I-1
sI1
I-1
sI-1
I-1
sssI-1
(dp4827
g12
(dp4828
I0
I-1
sI1
I-1
sI-1
I-1
sssssssssI1
(dp4829
g20
(dp4830
I0
(dp4831
g3
(dp4832
I0
(dp4833
g9
(dp4834
I0
I-1
sI1
I-1
sI-1
(dp4835
g39
(dp4836
I1
I1
sI-1
I-1
sssssI1
(dp4837
g12
(dp4838
I0
(dp4839
g66
(dp4840
I1
I1
sI-1
I1
sssI1
(dp4841
g9
(dp4842
I0
I1
sI1
I1
sI-1
I1
sssI-1
(dp4843
g6
(dp4844
I0
I1
sI1
I1
sI-1
I-1
sssssI-1
(dp4845
g12
(dp4846
I0
(dp4847
g9
(dp4848
I0
I1
sI1
I1
sI-1
I1
sssI1
(dp4849
g6
(dp4850
I0
I-1
sI1
I1
sI-1
I-1
sssI-1
(dp4851
g6
(dp4852
I0
I1
sI1
I1
sI-1
I-1
sssssssI1
(dp4853
g12
(dp4854
I0
(dp4855
g9
(dp4856
I0
(dp4857
g27
(dp4858
I1
I1
sI-1
I1
sssI1
(dp4859
g39
(dp4860
I1
I1
sI-1
I1
sssI-1
(dp4861
g39
(dp4862
I1
I1
sI-1
I-1
sssssI1
(dp4863
g3
(dp4864
I0
I-1
sI1
(dp4865
g95
(dp4866
I1
I1
sI-1
I1
sssI-1
(dp4867
g6
(dp4868
I0
I-1
sI1
I1
sI-1
I-1
sssssI-1
(dp4869
g6
(dp4870
I0
I1
sI1
I1
sI-1
I-1
sssssI-1
(dp4871
g3
(dp4872
I0
(dp4873
g12
(dp4874
I0
I-1
sI1
(dp4875
g9
(dp4876
I0
I1
sI1
I-1
sssI-1
I-1
sssI1
(dp4877
g12
(dp4878
I0
(dp4879
g27
(dp4880
I1
I1
sI-1
I1
sssI1
(dp4881
g6
(dp4882
I0
I1
sI1
I1
sI-1
I-1
sssI-1
(dp4883
g6
(dp4884
I0
I1
sI1
I1
sI-1
I-1
sssssI-1
(dp4885
g220
(dp4886
I1
(dp4887
g66
(dp4888
I1
I-1
sI-1
I-1
sssI-1
(dp4889
g27
(dp4890
I1
I-1
sI-1
I-1
sssssssssI-1
(dp4891
g3
(dp4892
I0
I-1
sI1
(dp4893
g20
(dp4894
I0
(dp4895
g12
(dp4896
I0
(dp4897
g54
(dp4898
I1
I1
sI-1
I-1
sssI1
I1
sI-1
(dp4899
g6
(dp4900
I0
I1
sI1
I1
sI-1
I-1
sssssI1
(dp4901
g6
(dp4902
I0
(dp4903
g27
(dp4904
I1
I1
sI-1
I1
sssI1
(dp4905
g66
(dp4906
I1
I1
sI-1
I1
sssI-1
(dp4907
g39
(dp4908
I1
I1
sI-1
I-1
sssssI-1
(dp4909
g6
(dp4910
I0
(dp4911
g66
(dp4912
I1
I1
sI-1
I1
sssI1
(dp4913
g66
(dp4914
I1
I1
sI-1
I1
sssI-1
(dp4915
g34
(dp4916
I1
I1
sI-1
I-1
sssssssI-1
(dp4917
g20
(dp4918
I0
(dp4919
g6
(dp4920
I0
(dp4921
g27
(dp4922
I1
I-1
sI-1
I-1
sssI1
(dp4923
g63
(dp4924
I1
I-1
sI-1
I-1
sssI-1
I-1
sssI1
(dp4925
g6
(dp4926
I0
(dp4927
g9
(dp4928
I0
I1
sI1
I-1
sssI1
I1
sI-1
I-1
sssI-1
(dp4929
g12
(dp4930
I0
(dp4931
g63
(dp4932
I1
I-1
sI-1
I-1
sssI1
(dp4933
g9
(dp4934
I0
I-1
sI1
I-1
sI-1
I-1
sssI-1
I-1
ssssssssa(dp4935
g2
F1.239571472535625
sg15
(dp4936
I0
(dp4937
g3
(dp4938
I0
I-1
sI1
(dp4939
g20
(dp4940
I0
(dp4941
g12
(dp4942
I0
(dp4943
g155
(dp4944
I1
I1
sI-1
I1
sssI1
(dp4945
g9
(dp4946
I0
I1
sI1
I1
sI-1
I1
sssI-1
(dp4947
g9
(dp4948
I0
I1
sI1
I1
sssssI1
(dp4949
g6
(dp4950
I0
(dp4951
g27
(dp4952
I1
I1
sI-1
I1
sssI1
I1
sI-1
I-1
sssI-1
(dp4953
g9
(dp4954
I0
(dp4955
g12
(dp4956
I0
I-1
sI1
I1
sI-1
I1
sssI1
(dp4957
g12
(dp4958
I0
I-1
sI1
I1
sI-1
I1
sssI-1
I1
sssssI-1
(dp4959
g20
(dp4960
I0
(dp4961
g6
(dp4962
I0
(dp4963
g9
(dp4964
I0
I-1
sI1
I1
sI-1
I1
sssI1
I1
sI-1
I-1
sssI1
(dp4965
g257
(dp4966
I1
(dp4967
g6
(dp4968
I0
I1
sI1
I1
sI-1
I-1
sssI-1
(dp4969
g6
(dp4970
I0
I1
sI-1
I-1
sssssI-1
(dp4971
g39
(dp4972
I1
(dp4973
g12
(dp4974
I0
I-1
sI1
I-1
sI-1
I-1
sssI-1
(dp4975
g12
(dp4976
I0
I-1
sI1
I-1
sI-1
I-1
sssssssssI1
(dp4977
g20
(dp4978
I0
(dp4979
g3
(dp4980
I0
(dp4981
g9
(dp4982
I0
I-1
sI1
I-1
sI-1
(dp4983
g39
(dp4984
I1
I1
sI-1
I-1
sssssI1
(dp4985
g12
(dp4986
I0
(dp4987
g66
(dp4988
I1
I1
sI-1
I1
sssI1
(dp4989
g9
(dp4990
I0
I1
sI1
I1
sI-1
I1
sssI-1
(dp4991
g6
(dp4992
I0
I1
sI1
I1
sI-1
I-1
sssssI-1
(dp4993
g12
(dp4994
I0
(dp4995
g9
(dp4996
I0
I1
sI1
I1
sI-1
I1
sssI1
(dp4997
g9
(dp4998
I0
I-1
sI1
I1
sI-1
I-1
sssI-1
(dp4999
g6
(dp5000
I0
I1
sI1
I1
sI-1
I-1
sssssssI1
(dp5001
g12
(dp5002
I0
(dp5003
g9
(dp5004
I0
(dp5005
g27
(dp5006
I1
I1
sI-1
I1
sssI1
(dp5007
g39
(dp5008
I1
I1
sI-1
I1
sssI-1
(dp5009
g244
(dp5010
I1
I-1
sI-1
I1
sssssI1
(dp5011
g3
(dp5012
I0
I-1
sI1
(dp5013
g95
(dp5014
I1
I1
sI-1
I1
sssI-1
(dp5015
g9
(dp5016
I0
I-1
sI1
I1
sssssI-1
(dp5017
g6
(dp5018
I0
I1
sI1
I1
sI-1
I-1
sssssI-1
(dp5019
g3
(dp5020
I0
(dp5021
g12
(dp5022
I0
I-1
sI1
(dp5023
g9
(dp5024
I0
I1
sI1
I-1
sssI-1
I-1
sssI1
(dp5025
g12
(dp5026
I0
(dp5027
g27
(dp5028
I1
I1
sI-1
I1
sssI1
(dp5029
g6
(dp5030
I0
I1
sI1
I1
sI-1
I-1
sssI-1
(dp5031
g6
(dp5032
I0
I1
sI1
I1
sI-1
I-1
sssssI-1
(dp5033
g220
(dp5034
I1
(dp5035
g66
(dp5036
I1
I-1
sI-1
I-1
sssI-1
(dp5037
g27
(dp5038
I1
I-1
sI-1
I-1
sssssssssI-1
(dp5039
g3
(dp5040
I0
I-1
sI1
(dp5041
g20
(dp5042
I0
(dp5043
g12
(dp5044
I0
(dp5045
g54
(dp5046
I1
I1
sI-1
I-1
sssI1
I1
sI-1
(dp5047
g6
(dp5048
I0
I1
sI1
I1
sI-1
I-1
sssssI1
(dp5049
g6
(dp5050
I0
(dp5051
g12
(dp5052
I0
I-1
sI1
I1
sI-1
I1
sssI1
(dp5053
g66
(dp5054
I1
I1
sI-1
I1
sssI-1
(dp5055
g548
(dp5056
I1
I-1
sI-1
I1
sssssI-1
(dp5057
g6
(dp5058
I0
(dp5059
g66
(dp5060
I1
I1
sI-1
I1
sssI1
(dp5061
g66
(dp5062
I1
I1
sI-1
I1
sssI-1
(dp5063
g34
(dp5064
I1
I1
sI-1
I-1
sssssssI-1
(dp5065
g20
(dp5066
I0
(dp5067
g6
(dp5068
I0
(dp5069
g27
(dp5070
I1
I-1
sI-1
I-1
sssI1
(dp5071
g63
(dp5072
I1
I-1
sI-1
I-1
sssI-1
I-1
sssI1
(dp5073
g6
(dp5074
I0
(dp5075
g9
(dp5076
I0
I1
sI1
I-1
sssI1
I1
sI-1
I-1
sssI-1
(dp5077
g12
(dp5078
I0
(dp5079
g63
(dp5080
I1
I-1
sI-1
I-1
sssI1
(dp5081
g9
(dp5082
I0
I-1
sI1
I-1
sI-1
I-1
sssI-1
I-1
ssssssssa(dp5083
g2
F1.2419119063245843
sg15
(dp5084
I0
(dp5085
g3
(dp5086
I0
I-1
sI1
(dp5087
g20
(dp5088
I0
(dp5089
g12
(dp5090
I0
(dp5091
g155
(dp5092
I1
I1
sI-1
I1
sssI1
(dp5093
g9
(dp5094
I0
I1
sI1
I1
sI-1
I1
sssI-1
(dp5095
g9
(dp5096
I0
I1
sI1
I1
sssssI1
(dp5097
g27
(dp5098
I1
(dp5099
g244
(dp5100
I1
I-1
sI-1
I1
sssI-1
(dp5101
g12
(dp5102
I0
I-1
sI1
I1
sI-1
I1
sssssI-1
(dp5103
g9
(dp5104
I0
(dp5105
g12
(dp5106
I0
I-1
sI1
I1
sI-1
I1
sssI1
(dp5107
g12
(dp5108
I0
I-1
sI1
I1
sI-1
I1
sssI-1
I1
sssssI-1
(dp5109
g20
(dp5110
I0
(dp5111
g6
(dp5112
I0
(dp5113
g39
(dp5114
I1
I1
sI-1
I-1
sssI1
I1
sI-1
I-1
sssI1
(dp5115
g132
(dp5116
I1
(dp5117
g66
(dp5118
I1
I-1
sI-1
I-1
sssI-1
(dp5119
g877
(dp5120
I1
I-1
sI-1
I-1
sssssI-1
(dp5121
g39
(dp5122
I1
(dp5123
g12
(dp5124
I0
I-1
sI1
I-1
sI-1
I-1
sssI-1
(dp5125
g12
(dp5126
I0
I-1
sI1
I-1
sI-1
I-1
sssssssssI1
(dp5127
g20
(dp5128
I0
(dp5129
g3
(dp5130
I0
(dp5131
g9
(dp5132
I0
I-1
sI1
I-1
sI-1
(dp5133
g39
(dp5134
I1
I1
sI-1
I-1
sssssI1
(dp5135
g12
(dp5136
I0
(dp5137
g66
(dp5138
I1
I1
sI-1
I1
sssI1
(dp5139
g9
(dp5140
I0
I1
sI1
I1
sI-1
I1
sssI-1
(dp5141
g6
(dp5142
I0
I1
sI1
I1
sI-1
I-1
sssssI-1
(dp5143
g12
(dp5144
I0
(dp5145
g9
(dp5146
I0
I1
sI1
I1
sI-1
I1
sssI1
(dp5147
g6
(dp5148
I0
I-1
sI1
I1
sI-1
I-1
sssI-1
(dp5149
g6
(dp5150
I0
I1
sI1
I1
sI-1
I-1
sssssssI1
(dp5151
g12
(dp5152
I0
(dp5153
g9
(dp5154
I0
(dp5155
g27
(dp5156
I1
I1
sI-1
I1
sssI1
(dp5157
g39
(dp5158
I1
I1
sI-1
I1
sssI-1
(dp5159
g39
(dp5160
I1
I1
sI-1
I-1
sssssI1
(dp5161
g3
(dp5162
I0
I-1
sI1
(dp5163
g95
(dp5164
I1
I1
sI-1
I1
sssI-1
(dp5165
g6
(dp5166
I0
I-1
sI1
I1
sI-1
I-1
sssssI-1
(dp5167
g6
(dp5168
I0
I1
sI1
I1
sI-1
I-1
sssssI-1
(dp5169
g3
(dp5170
I0
(dp5171
g12
(dp5172
I0
I-1
sI1
(dp5173
g9
(dp5174
I0
I1
sI1
I-1
sssI-1
I-1
sssI1
(dp5175
g12
(dp5176
I0
(dp5177
g27
(dp5178
I1
I1
sI-1
I1
sssI1
(dp5179
g6
(dp5180
I0
I1
sI1
I1
sI-1
I-1
sssI-1
(dp5181
g6
(dp5182
I0
I1
sI1
I1
sI-1
I-1
sssssI-1
(dp5183
g220
(dp5184
I1
(dp5185
g66
(dp5186
I1
I-1
sI-1
I-1
sssI-1
(dp5187
g27
(dp5188
I1
I-1
sI-1
I-1
sssssssssI-1
(dp5189
g3
(dp5190
I0
I-1
sI1
(dp5191
g20
(dp5192
I0
(dp5193
g12
(dp5194
I0
(dp5195
g54
(dp5196
I1
I1
sI-1
I-1
sssI1
I1
sI-1
(dp5197
g6
(dp5198
I0
I1
sI1
I1
sI-1
I-1
sssssI1
(dp5199
g6
(dp5200
I0
(dp5201
g27
(dp5202
I1
I1
sI-1
I1
sssI1
(dp5203
g66
(dp5204
I1
I1
sI-1
I1
sssI-1
(dp5205
g1158
(dp5206
I1
I-1
sI-1
I1
sssssI-1
(dp5207
g6
(dp5208
I0
(dp5209
g66
(dp5210
I1
I1
sI-1
I1
sssI1
(dp5211
g66
(dp5212
I1
I1
sI-1
I1
sssI-1
(dp5213
g34
(dp5214
I1
I1
sI-1
I-1
sssssssI-1
(dp5215
g20
(dp5216
I0
(dp5217
g6
(dp5218
I0
(dp5219
g27
(dp5220
I1
I-1
sI-1
I-1
sssI1
(dp5221
g63
(dp5222
I1
I-1
sI-1
I-1
sssI-1
I-1
sssI1
(dp5223
g6
(dp5224
I0
(dp5225
g9
(dp5226
I0
I1
sI1
I-1
sssI1
I1
sI-1
I-1
sssI-1
(dp5227
g12
(dp5228
I0
(dp5229
g63
(dp5230
I1
I-1
sI-1
I-1
sssI1
(dp5231
g9
(dp5232
I0
I-1
sI1
I-1
sI-1
I-1
sssI-1
I-1
ssssssssa(dp5233
g2
F1.2166616660982803
sg15
(dp5234
I0
(dp5235
g3
(dp5236
I0
I-1
sI1
(dp5237
g20
(dp5238
I0
(dp5239
g12
(dp5240
I0
(dp5241
g155
(dp5242
I1
I1
sI-1
I1
sssI1
(dp5243
g9
(dp5244
I0
I1
sI1
I1
sI-1
I1
sssI-1
(dp5245
g9
(dp5246
I0
I1
sI1
I1
sssssI1
(dp5247
g6
(dp5248
I0
(dp5249
g27
(dp5250
I1
I1
sI-1
I1
sssI1
I1
sI-1
I-1
sssI-1
(dp5251
g9
(dp5252
I0
(dp5253
g12
(dp5254
I0
I-1
sI1
I1
sI-1
I1
sssI1
(dp5255
g12
(dp5256
I0
I-1
sI1
I1
sI-1
I1
sssI-1
I1
sssssI-1
(dp5257
g20
(dp5258
I0
(dp5259
g6
(dp5260
I0
(dp5261
g9
(dp5262
I0
I-1
sI1
I1
sI-1
I1
sssI1
I1
sI-1
I-1
sssI1
(dp5263
g257
(dp5264
I1
(dp5265
g66
(dp5266
I1
I-1
sI-1
I-1
sssI-1
(dp5267
g6
(dp5268
I0
I1
sI-1
I-1
sssssI-1
(dp5269
g39
(dp5270
I1
(dp5271
g12
(dp5272
I0
I-1
sI1
I-1
sI-1
I-1
sssI-1
(dp5273
g12
(dp5274
I0
I-1
sI1
I-1
sI-1
I-1
sssssssssI1
(dp5275
g20
(dp5276
I0
(dp5277
g3
(dp5278
I0
(dp5279
g9
(dp5280
I0
I-1
sI1
I-1
sI-1
(dp5281
g39
(dp5282
I1
I1
sI-1
I-1
sssssI1
(dp5283
g12
(dp5284
I0
(dp5285
g66
(dp5286
I1
I1
sI-1
I1
sssI1
(dp5287
g9
(dp5288
I0
I1
sI1
I1
sI-1
I1
sssI-1
(dp5289
g6
(dp5290
I0
I1
sI1
I1
sI-1
I-1
sssssI-1
(dp5291
g12
(dp5292
I0
(dp5293
g9
(dp5294
I0
I1
sI1
I1
sI-1
I1
sssI1
(dp5295
g9
(dp5296
I0
I-1
sI1
I1
sI-1
I-1
sssI-1
(dp5297
g6
(dp5298
I0
I1
sI1
I1
sI-1
I-1
sssssssI1
(dp5299
g12
(dp5300
I0
(dp5301
g9
(dp5302
I0
(dp5303
g27
(dp5304
I1
I1
sI-1
I1
sssI1
(dp5305
g39
(dp5306
I1
I1
sI-1
I1
sssI-1
(dp5307
g244
(dp5308
I1
I-1
sI-1
I1
sssssI1
(dp5309
g3
(dp5310
I0
I-1
sI1
(dp5311
g95
(dp5312
I1
I1
sI-1
I1
sssI-1
(dp5313
g1719
(dp5314
I0
I1
sI1
I-1
sssssI-1
(dp5315
g6
(dp5316
I0
I1
sI1
I1
sI-1
I-1
sssssI-1
(dp5317
g3
(dp5318
I0
(dp5319
g12
(dp5320
I0
I-1
sI1
(dp5321
g9
(dp5322
I0
I1
sI1
I-1
sssI-1
I-1
sssI1
(dp5323
g12
(dp5324
I0
(dp5325
g27
(dp5326
I1
I1
sI-1
I1
sssI1
(dp5327
g6
(dp5328
I0
I1
sI1
I1
sI-1
I-1
sssI-1
(dp5329
g6
(dp5330
I0
I1
sI1
I1
sI-1
I-1
sssssI-1
(dp5331
g220
(dp5332
I1
(dp5333
g66
(dp5334
I1
I-1
sI-1
I-1
sssI-1
(dp5335
g27
(dp5336
I1
I-1
sI-1
I-1
sssssssssI-1
(dp5337
g3
(dp5338
I0
I-1
sI1
(dp5339
g20
(dp5340
I0
(dp5341
g12
(dp5342
I0
(dp5343
g54
(dp5344
I1
I1
sI-1
I-1
sssI1
I1
sI-1
(dp5345
g6
(dp5346
I0
I1
sI1
I1
sI-1
I-1
sssssI1
(dp5347
g6
(dp5348
I0
(dp5349
g12
(dp5350
I0
I-1
sI1
I1
sI-1
I1
sssI1
(dp5351
g66
(dp5352
I1
I1
sI-1
I1
sssI-1
(dp5353
g39
(dp5354
I1
I1
sI-1
I-1
sssssI-1
(dp5355
g6
(dp5356
I0
(dp5357
g66
(dp5358
I1
I1
sI-1
I1
sssI1
(dp5359
g66
(dp5360
I1
I1
sI-1
I1
sssI-1
(dp5361
g34
(dp5362
I1
I1
sI-1
I-1
sssssssI-1
(dp5363
g20
(dp5364
I0
(dp5365
g6
(dp5366
I0
(dp5367
g27
(dp5368
I1
I-1
sI-1
I-1
sssI1
(dp5369
g63
(dp5370
I1
I-1
sI-1
I-1
sssI-1
I-1
sssI1
(dp5371
g6
(dp5372
I0
(dp5373
g9
(dp5374
I0
I1
sI1
I-1
sssI1
I1
sI-1
I-1
sssI-1
(dp5375
g12
(dp5376
I0
(dp5377
g63
(dp5378
I1
I-1
sI-1
I-1
sssI1
(dp5379
g9
(dp5380
I0
I-1
sI1
I-1
sI-1
I-1
sssI-1
I-1
ssssssssa(dp5381
g2
F1.2658418641123754
sg15
(dp5382
I0
(dp5383
g3
(dp5384
I0
I-1
sI1
(dp5385
g20
(dp5386
I0
(dp5387
g12
(dp5388
I0
(dp5389
g155
(dp5390
I1
I1
sI-1
I1
sssI1
(dp5391
g9
(dp5392
I0
I1
sI1
I1
sI-1
I1
sssI-1
(dp5393
g9
(dp5394
I0
I1
sI1
I1
sssssI1
(dp5395
g27
(dp5396
I1
(dp5397
g244
(dp5398
I1
I-1
sI-1
I1
sssI-1
(dp5399
g12
(dp5400
I0
I-1
sI1
I1
sI-1
I1
sssssI-1
(dp5401
g9
(dp5402
I0
(dp5403
g12
(dp5404
I0
I-1
sI1
I1
sI-1
I1
sssI1
(dp5405
g12
(dp5406
I0
I-1
sI1
I1
sI-1
I1
sssI-1
I1
sssssI-1
(dp5407
g20
(dp5408
I0
(dp5409
g6
(dp5410
I0
(dp5411
g39
(dp5412
I1
I1
sI-1
I-1
sssI1
I1
sI-1
I-1
sssI1
(dp5413
g257
(dp5414
I1
(dp5415
g6
(dp5416
I0
I1
sI1
I1
sI-1
I-1
sssI-1
(dp5417
S'Abnormal_URL'
p5418
(dp5419
I1
I-1
sI-1
I-1
sssssI-1
(dp5420
g39
(dp5421
I1
(dp5422
g12
(dp5423
I0
I-1
sI1
I-1
sI-1
I-1
sssI-1
(dp5424
g12
(dp5425
I0
I-1
sI1
I-1
sI-1
I-1
sssssssssI1
(dp5426
g20
(dp5427
I0
(dp5428
g3
(dp5429
I0
(dp5430
g9
(dp5431
I0
I-1
sI1
I-1
sI-1
(dp5432
g39
(dp5433
I1
I1
sI-1
I-1
sssssI1
(dp5434
g12
(dp5435
I0
(dp5436
g66
(dp5437
I1
I1
sI-1
I1
sssI1
(dp5438
g9
(dp5439
I0
I1
sI1
I1
sI-1
I1
sssI-1
(dp5440
g6
(dp5441
I0
I1
sI1
I1
sI-1
I-1
sssssI-1
(dp5442
g12
(dp5443
I0
(dp5444
g9
(dp5445
I0
I1
sI1
I1
sI-1
I1
sssI1
(dp5446
g6
(dp5447
I0
I-1
sI1
I1
sI-1
I-1
sssI-1
(dp5448
g6
(dp5449
I0
I1
sI1
I1
sI-1
I-1
sssssssI1
(dp5450
g12
(dp5451
I0
(dp5452
g9
(dp5453
I0
(dp5454
g27
(dp5455
I1
I1
sI-1
I1
sssI1
(dp5456
g39
(dp5457
I1
I1
sI-1
I1
sssI-1
(dp5458
g244
(dp5459
I1
I-1
sI-1
I1
sssssI1
(dp5460
g3
(dp5461
I0
I-1
sI1
(dp5462
g95
(dp5463
I1
I1
sI-1
I1
sssI-1
(dp5464
g6
(dp5465
I0
I-1
sI1
I1
sI-1
I-1
sssssI-1
(dp5466
g6
(dp5467
I0
I1
sI1
I1
sI-1
I-1
sssssI-1
(dp5468
g3
(dp5469
I0
(dp5470
g12
(dp5471
I0
I-1
sI1
(dp5472
g9
(dp5473
I0
I1
sI1
I-1
sssI-1
I-1
sssI1
(dp5474
g12
(dp5475
I0
(dp5476
g27
(dp5477
I1
I1
sI-1
I1
sssI1
(dp5478
g6
(dp5479
I0
I1
sI1
I1
sI-1
I-1
sssI-1
(dp5480
g6
(dp5481
I0
I1
sI1
I1
sI-1
I-1
sssssI-1
(dp5482
g220
(dp5483
I1
(dp5484
g66
(dp5485
I1
I-1
sI-1
I-1
sssI-1
(dp5486
g27
(dp5487
I1
I-1
sI-1
I-1
sssssssssI-1
(dp5488
g3
(dp5489
I0
I-1
sI1
(dp5490
g20
(dp5491
I0
(dp5492
g12
(dp5493
I0
(dp5494
g54
(dp5495
I1
I1
sI-1
I-1
sssI1
I1
sI-1
(dp5496
g6
(dp5497
I0
I1
sI1
I1
sI-1
I-1
sssssI1
(dp5498
g6
(dp5499
I0
(dp5500
g27
(dp5501
I1
I1
sI-1
I1
sssI1
(dp5502
g66
(dp5503
I1
I1
sI-1
I1
sssI-1
(dp5504
g548
(dp5505
I1
I-1
sI-1
I1
sssssI-1
(dp5506
g6
(dp5507
I0
(dp5508
g66
(dp5509
I1
I1
sI-1
I1
sssI1
(dp5510
g66
(dp5511
I1
I1
sI-1
I1
sssI-1
(dp5512
g34
(dp5513
I1
I1
sI-1
I-1
sssssssI-1
(dp5514
g20
(dp5515
I0
(dp5516
g6
(dp5517
I0
(dp5518
g27
(dp5519
I1
I-1
sI-1
I-1
sssI1
(dp5520
g63
(dp5521
I1
I-1
sI-1
I-1
sssI-1
I-1
sssI1
(dp5522
g6
(dp5523
I0
(dp5524
g9
(dp5525
I0
I1
sI1
I-1
sssI1
I1
sI-1
I-1
sssI-1
(dp5526
g12
(dp5527
I0
(dp5528
g63
(dp5529
I1
I-1
sI-1
I-1
sssI1
(dp5530
g9
(dp5531
I0
I-1
sI1
I-1
sI-1
I-1
sssI-1
I-1
ssssssssa(dp5532
g2
F1.2166616660982803
sg15
(dp5533
I0
(dp5534
g3
(dp5535
I0
I-1
sI1
(dp5536
g20
(dp5537
I0
(dp5538
g12
(dp5539
I0
(dp5540
g155
(dp5541
I1
I1
sI-1
I1
sssI1
(dp5542
g9
(dp5543
I0
I1
sI1
I1
sI-1
I1
sssI-1
(dp5544
g9
(dp5545
I0
I1
sI1
I1
sssssI1
(dp5546
g6
(dp5547
I0
(dp5548
g27
(dp5549
I1
I1
sI-1
I1
sssI1
I1
sI-1
I-1
sssI-1
(dp5550
g9
(dp5551
I0
(dp5552
g12
(dp5553
I0
I-1
sI1
I1
sI-1
I1
sssI1
(dp5554
g12
(dp5555
I0
I-1
sI1
I1
sI-1
I1
sssI-1
I1
sssssI-1
(dp5556
g20
(dp5557
I0
(dp5558
g6
(dp5559
I0
(dp5560
g9
(dp5561
I0
I-1
sI1
I1
sI-1
I1
sssI1
I1
sI-1
I-1
sssI1
(dp5562
g257
(dp5563
I1
(dp5564
g66
(dp5565
I1
I-1
sI-1
I-1
sssI-1
(dp5566
g6
(dp5567
I0
I1
sI-1
I-1
sssssI-1
(dp5568
g39
(dp5569
I1
(dp5570
g12
(dp5571
I0
I-1
sI1
I-1
sI-1
I-1
sssI-1
(dp5572
g12
(dp5573
I0
I-1
sI1
I-1
sI-1
I-1
sssssssssI1
(dp5574
g20
(dp5575
I0
(dp5576
g3
(dp5577
I0
(dp5578
g9
(dp5579
I0
I-1
sI1
I-1
sI-1
(dp5580
g39
(dp5581
I1
I1
sI-1
I-1
sssssI1
(dp5582
g12
(dp5583
I0
(dp5584
g66
(dp5585
I1
I1
sI-1
I1
sssI1
(dp5586
g9
(dp5587
I0
I1
sI1
I1
sI-1
I1
sssI-1
(dp5588
g6
(dp5589
I0
I1
sI1
I1
sI-1
I-1
sssssI-1
(dp5590
g12
(dp5591
I0
(dp5592
g9
(dp5593
I0
I1
sI1
I1
sI-1
I1
sssI1
(dp5594
g9
(dp5595
I0
I-1
sI1
I1
sI-1
I-1
sssI-1
(dp5596
g6
(dp5597
I0
I1
sI1
I1
sI-1
I-1
sssssssI1
(dp5598
g12
(dp5599
I0
(dp5600
g9
(dp5601
I0
(dp5602
g27
(dp5603
I1
I1
sI-1
I1
sssI1
(dp5604
g39
(dp5605
I1
I1
sI-1
I1
sssI-1
(dp5606
g39
(dp5607
I1
I1
sI-1
I-1
sssssI1
(dp5608
g3
(dp5609
I0
I-1
sI1
(dp5610
g95
(dp5611
I1
I1
sI-1
I1
sssI-1
(dp5612
g9
(dp5613
I0
I-1
sI1
I1
sssssI-1
(dp5614
g6
(dp5615
I0
I1
sI1
I1
sI-1
I-1
sssssI-1
(dp5616
g3
(dp5617
I0
(dp5618
g12
(dp5619
I0
I-1
sI1
(dp5620
g9
(dp5621
I0
I1
sI1
I-1
sssI-1
I-1
sssI1
(dp5622
g12
(dp5623
I0
(dp5624
g27
(dp5625
I1
I1
sI-1
I1
sssI1
(dp5626
g6
(dp5627
I0
I1
sI1
I1
sI-1
I-1
sssI-1
(dp5628
g6
(dp5629
I0
I1
sI1
I1
sI-1
I-1
sssssI-1
(dp5630
g220
(dp5631
I1
(dp5632
g66
(dp5633
I1
I-1
sI-1
I-1
sssI-1
(dp5634
g27
(dp5635
I1
I-1
sI-1
I-1
sssssssssI-1
(dp5636
g3
(dp5637
I0
I-1
sI1
(dp5638
g20
(dp5639
I0
(dp5640
g12
(dp5641
I0
(dp5642
g54
(dp5643
I1
I1
sI-1
I-1
sssI1
I1
sI-1
(dp5644
g6
(dp5645
I0
I1
sI1
I1
sI-1
I-1
sssssI1
(dp5646
g6
(dp5647
I0
(dp5648
g12
(dp5649
I0
I-1
sI1
I1
sI-1
I1
sssI1
(dp5650
g66
(dp5651
I1
I1
sI-1
I1
sssI-1
(dp5652
g1158
(dp5653
I1
I-1
sI-1
I1
sssssI-1
(dp5654
g6
(dp5655
I0
(dp5656
g66
(dp5657
I1
I1
sI-1
I1
sssI1
(dp5658
g66
(dp5659
I1
I1
sI-1
I1
sssI-1
(dp5660
g34
(dp5661
I1
I1
sI-1
I-1
sssssssI-1
(dp5662
g20
(dp5663
I0
(dp5664
g6
(dp5665
I0
(dp5666
g27
(dp5667
I1
I-1
sI-1
I-1
sssI1
(dp5668
g63
(dp5669
I1
I-1
sI-1
I-1
sssI-1
I-1
sssI1
(dp5670
g6
(dp5671
I0
(dp5672
g9
(dp5673
I0
I1
sI1
I-1
sssI1
I1
sI-1
I-1
sssI-1
(dp5674
g12
(dp5675
I0
(dp5676
g63
(dp5677
I1
I-1
sI-1
I-1
sssI1
(dp5678
g9
(dp5679
I0
I-1
sI1
I-1
sI-1
I-1
sssI-1
I-1
ssssssssa(dp5680
g2
F1.2658418641123754
sg15
(dp5681
I0
(dp5682
g3
(dp5683
I0
I-1
sI1
(dp5684
g20
(dp5685
I0
(dp5686
g12
(dp5687
I0
(dp5688
g155
(dp5689
I1
I1
sI-1
I1
sssI1
(dp5690
g9
(dp5691
I0
I1
sI1
I1
sI-1
I1
sssI-1
(dp5692
g9
(dp5693
I0
I1
sI1
I1
sssssI1
(dp5694
g27
(dp5695
I1
(dp5696
g244
(dp5697
I1
I-1
sI-1
I1
sssI-1
(dp5698
g12
(dp5699
I0
I-1
sI1
I1
sI-1
I1
sssssI-1
(dp5700
g9
(dp5701
I0
(dp5702
g12
(dp5703
I0
I-1
sI1
I1
sI-1
I1
sssI1
(dp5704
g12
(dp5705
I0
I-1
sI1
I1
sI-1
I1
sssI-1
I1
sssssI-1
(dp5706
g20
(dp5707
I0
(dp5708
g6
(dp5709
I0
(dp5710
g39
(dp5711
I1
I1
sI-1
I-1
sssI1
I1
sI-1
I-1
sssI1
(dp5712
g257
(dp5713
I1
(dp5714
g6
(dp5715
I0
I1
sI1
I1
sI-1
I-1
sssI-1
(dp5716
g5418
(dp5717
I1
I-1
sI-1
I-1
sssssI-1
(dp5718
g39
(dp5719
I1
(dp5720
g12
(dp5721
I0
I-1
sI1
I-1
sI-1
I-1
sssI-1
(dp5722
g12
(dp5723
I0
I-1
sI1
I-1
sI-1
I-1
sssssssssI1
(dp5724
g20
(dp5725
I0
(dp5726
g3
(dp5727
I0
(dp5728
g9
(dp5729
I0
I-1
sI1
I-1
sI-1
(dp5730
g39
(dp5731
I1
I1
sI-1
I-1
sssssI1
(dp5732
g12
(dp5733
I0
(dp5734
g66
(dp5735
I1
I1
sI-1
I1
sssI1
(dp5736
g9
(dp5737
I0
I1
sI1
I1
sI-1
I1
sssI-1
(dp5738
g6
(dp5739
I0
I1
sI1
I1
sI-1
I-1
sssssI-1
(dp5740
g12
(dp5741
I0
(dp5742
g9
(dp5743
I0
I1
sI1
I1
sI-1
I1
sssI1
(dp5744
g6
(dp5745
I0
I-1
sI1
I1
sI-1
I-1
sssI-1
(dp5746
g6
(dp5747
I0
I1
sI1
I1
sI-1
I-1
sssssssI1
(dp5748
g12
(dp5749
I0
(dp5750
g9
(dp5751
I0
(dp5752
g27
(dp5753
I1
I1
sI-1
I1
sssI1
(dp5754
g39
(dp5755
I1
I1
sI-1
I1
sssI-1
(dp5756
g39
(dp5757
I1
I1
sI-1
I-1
sssssI1
(dp5758
g3
(dp5759
I0
I-1
sI1
(dp5760
g95
(dp5761
I1
I1
sI-1
I1
sssI-1
(dp5762
g6
(dp5763
I0
I-1
sI1
I1
sI-1
I-1
sssssI-1
(dp5764
g6
(dp5765
I0
I1
sI1
I1
sI-1
I-1
sssssI-1
(dp5766
g3
(dp5767
I0
(dp5768
g12
(dp5769
I0
I-1
sI1
(dp5770
g9
(dp5771
I0
I1
sI1
I-1
sssI-1
I-1
sssI1
(dp5772
g12
(dp5773
I0
(dp5774
g27
(dp5775
I1
I1
sI-1
I1
sssI1
(dp5776
g6
(dp5777
I0
I1
sI1
I1
sI-1
I-1
sssI-1
(dp5778
g6
(dp5779
I0
I1
sI1
I1
sI-1
I-1
sssssI-1
(dp5780
g220
(dp5781
I1
(dp5782
g66
(dp5783
I1
I-1
sI-1
I-1
sssI-1
(dp5784
g27
(dp5785
I1
I-1
sI-1
I-1
sssssssssI-1
(dp5786
g3
(dp5787
I0
I-1
sI1
(dp5788
g20
(dp5789
I0
(dp5790
g12
(dp5791
I0
(dp5792
g54
(dp5793
I1
I1
sI-1
I-1
sssI1
I1
sI-1
(dp5794
g6
(dp5795
I0
I1
sI1
I1
sI-1
I-1
sssssI1
(dp5796
g6
(dp5797
I0
(dp5798
g27
(dp5799
I1
I1
sI-1
I1
sssI1
(dp5800
g66
(dp5801
I1
I1
sI-1
I1
sssI-1
(dp5802
g39
(dp5803
I1
I1
sI-1
I-1
sssssI-1
(dp5804
g6
(dp5805
I0
(dp5806
g66
(dp5807
I1
I1
sI-1
I1
sssI1
(dp5808
g66
(dp5809
I1
I1
sI-1
I1
sssI-1
(dp5810
g34
(dp5811
I1
I1
sI-1
I-1
sssssssI-1
(dp5812
g20
(dp5813
I0
(dp5814
g6
(dp5815
I0
(dp5816
g27
(dp5817
I1
I-1
sI-1
I-1
sssI1
(dp5818
g63
(dp5819
I1
I-1
sI-1
I-1
sssI-1
I-1
sssI1
(dp5820
g6
(dp5821
I0
(dp5822
g9
(dp5823
I0
I1
sI1
I-1
sssI1
I1
sI-1
I-1
sssI-1
(dp5824
g12
(dp5825
I0
(dp5826
g63
(dp5827
I1
I-1
sI-1
I-1
sssI1
(dp5828
g9
(dp5829
I0
I-1
sI1
I-1
sI-1
I-1
sssI-1
I-1
ssssssssa(dp5830
g2
F1.2166616660982803
sg15
(dp5831
I0
(dp5832
g3
(dp5833
I0
I-1
sI1
(dp5834
g20
(dp5835
I0
(dp5836
g12
(dp5837
I0
(dp5838
g155
(dp5839
I1
I1
sI-1
I1
sssI1
(dp5840
g9
(dp5841
I0
I1
sI1
I1
sI-1
I1
sssI-1
(dp5842
g9
(dp5843
I0
I1
sI1
I1
sssssI1
(dp5844
g6
(dp5845
I0
(dp5846
g27
(dp5847
I1
I1
sI-1
I1
sssI1
I1
sI-1
I-1
sssI-1
(dp5848
g9
(dp5849
I0
(dp5850
g12
(dp5851
I0
I-1
sI1
I1
sI-1
I1
sssI1
(dp5852
g12
(dp5853
I0
I-1
sI1
I1
sI-1
I1
sssI-1
I1
sssssI-1
(dp5854
g20
(dp5855
I0
(dp5856
g6
(dp5857
I0
(dp5858
g9
(dp5859
I0
I-1
sI1
I1
sI-1
I1
sssI1
I1
sI-1
I-1
sssI1
(dp5860
g257
(dp5861
I1
(dp5862
g66
(dp5863
I1
I-1
sI-1
I-1
sssI-1
(dp5864
g6
(dp5865
I0
I1
sI-1
I-1
sssssI-1
(dp5866
g39
(dp5867
I1
(dp5868
g12
(dp5869
I0
I-1
sI1
I-1
sI-1
I-1
sssI-1
(dp5870
g12
(dp5871
I0
I-1
sI1
I-1
sI-1
I-1
sssssssssI1
(dp5872
g20
(dp5873
I0
(dp5874
g3
(dp5875
I0
(dp5876
g9
(dp5877
I0
I-1
sI1
I-1
sI-1
(dp5878
g39
(dp5879
I1
I1
sI-1
I-1
sssssI1
(dp5880
g12
(dp5881
I0
(dp5882
g66
(dp5883
I1
I1
sI-1
I1
sssI1
(dp5884
g9
(dp5885
I0
I1
sI1
I1
sI-1
I1
sssI-1
(dp5886
g6
(dp5887
I0
I1
sI1
I1
sI-1
I-1
sssssI-1
(dp5888
g12
(dp5889
I0
(dp5890
g9
(dp5891
I0
I1
sI1
I1
sI-1
I1
sssI1
(dp5892
g9
(dp5893
I0
I-1
sI1
I1
sI-1
I-1
sssI-1
(dp5894
g6
(dp5895
I0
I1
sI1
I1
sI-1
I-1
sssssssI1
(dp5896
g12
(dp5897
I0
(dp5898
g9
(dp5899
I0
(dp5900
g27
(dp5901
I1
I1
sI-1
I1
sssI1
(dp5902
g39
(dp5903
I1
I1
sI-1
I1
sssI-1
(dp5904
g244
(dp5905
I1
I-1
sI-1
I1
sssssI1
(dp5906
g3
(dp5907
I0
I-1
sI1
(dp5908
g95
(dp5909
I1
I1
sI-1
I1
sssI-1
(dp5910
g1719
(dp5911
I0
I1
sI1
I-1
sssssI-1
(dp5912
g6
(dp5913
I0
I1
sI1
I1
sI-1
I-1
sssssI-1
(dp5914
g3
(dp5915
I0
(dp5916
g12
(dp5917
I0
I-1
sI1
(dp5918
g9
(dp5919
I0
I1
sI1
I-1
sssI-1
I-1
sssI1
(dp5920
g12
(dp5921
I0
(dp5922
g27
(dp5923
I1
I1
sI-1
I1
sssI1
(dp5924
g6
(dp5925
I0
I1
sI1
I1
sI-1
I-1
sssI-1
(dp5926
g6
(dp5927
I0
I1
sI1
I1
sI-1
I-1
sssssI-1
(dp5928
g220
(dp5929
I1
(dp5930
g66
(dp5931
I1
I-1
sI-1
I-1
sssI-1
(dp5932
g27
(dp5933
I1
I-1
sI-1
I-1
sssssssssI-1
(dp5934
g3
(dp5935
I0
I-1
sI1
(dp5936
g20
(dp5937
I0
(dp5938
g12
(dp5939
I0
(dp5940
g54
(dp5941
I1
I1
sI-1
I-1
sssI1
I1
sI-1
(dp5942
g6
(dp5943
I0
I1
sI1
I1
sI-1
I-1
sssssI1
(dp5944
g6
(dp5945
I0
(dp5946
g12
(dp5947
I0
I-1
sI1
I1
sI-1
I1
sssI1
(dp5948
g66
(dp5949
I1
I1
sI-1
I1
sssI-1
(dp5950
g548
(dp5951
I1
I-1
sI-1
I1
sssssI-1
(dp5952
g6
(dp5953
I0
(dp5954
g66
(dp5955
I1
I1
sI-1
I1
sssI1
(dp5956
g66
(dp5957
I1
I1
sI-1
I1
sssI-1
(dp5958
g34
(dp5959
I1
I1
sI-1
I-1
sssssssI-1
(dp5960
g20
(dp5961
I0
(dp5962
g6
(dp5963
I0
(dp5964
g27
(dp5965
I1
I-1
sI-1
I-1
sssI1
(dp5966
g63
(dp5967
I1
I-1
sI-1
I-1
sssI-1
I-1
sssI1
(dp5968
g6
(dp5969
I0
(dp5970
g9
(dp5971
I0
I1
sI1
I-1
sssI1
I1
sI-1
I-1
sssI-1
(dp5972
g12
(dp5973
I0
(dp5974
g63
(dp5975
I1
I-1
sI-1
I-1
sssI1
(dp5976
g9
(dp5977
I0
I-1
sI1
I-1
sI-1
I-1
sssI-1
I-1
ssssssssa(dp5978
g2
F1.2682893301661606
sg15
(dp5979
I0
(dp5980
g3
(dp5981
I0
I-1
sI1
(dp5982
g20
(dp5983
I0
(dp5984
g12
(dp5985
I0
(dp5986
g155
(dp5987
I1
I1
sI-1
I1
sssI1
(dp5988
g9
(dp5989
I0
I1
sI1
I1
sI-1
I1
sssI-1
(dp5990
g9
(dp5991
I0
I1
sI1
I1
sssssI1
(dp5992
g27
(dp5993
I1
(dp5994
g244
(dp5995
I1
I-1
sI-1
I1
sssI-1
(dp5996
g12
(dp5997
I0
I-1
sI1
I1
sI-1
I1
sssssI-1
(dp5998
g9
(dp5999
I0
(dp6000
g12
(dp6001
I0
I-1
sI1
I1
sI-1
I1
sssI1
(dp6002
g12
(dp6003
I0
I-1
sI1
I1
sI-1
I1
sssI-1
I1
sssssI-1
(dp6004
g20
(dp6005
I0
(dp6006
g6
(dp6007
I0
(dp6008
g39
(dp6009
I1
I1
sI-1
I-1
sssI1
I1
sI-1
I-1
sssI1
(dp6010
g257
(dp6011
I1
(dp6012
g6
(dp6013
I0
I1
sI1
I1
sI-1
I-1
sssI-1
(dp6014
g5418
(dp6015
I1
I-1
sI-1
I-1
sssssI-1
(dp6016
g39
(dp6017
I1
(dp6018
g12
(dp6019
I0
I-1
sI1
I-1
sI-1
I-1
sssI-1
(dp6020
g12
(dp6021
I0
I-1
sI1
I-1
sI-1
I-1
sssssssssI1
(dp6022
g20
(dp6023
I0
(dp6024
g3
(dp6025
I0
(dp6026
g9
(dp6027
I0
I-1
sI1
I-1
sI-1
(dp6028
g39
(dp6029
I1
I1
sI-1
I-1
sssssI1
(dp6030
g12
(dp6031
I0
(dp6032
g66
(dp6033
I1
I1
sI-1
I1
sssI1
(dp6034
g9
(dp6035
I0
I1
sI1
I1
sI-1
I1
sssI-1
(dp6036
g6
(dp6037
I0
I1
sI1
I1
sI-1
I-1
sssssI-1
(dp6038
g12
(dp6039
I0
(dp6040
g9
(dp6041
I0
I1
sI1
I1
sI-1
I1
sssI1
(dp6042
g6
(dp6043
I0
I-1
sI1
I1
sI-1
I-1
sssI-1
(dp6044
g6
(dp6045
I0
I1
sI1
I1
sI-1
I-1
sssssssI1
(dp6046
g12
(dp6047
I0
(dp6048
g9
(dp6049
I0
(dp6050
g27
(dp6051
I1
I1
sI-1
I1
sssI1
(dp6052
g39
(dp6053
I1
I1
sI-1
I1
sssI-1
(dp6054
g244
(dp6055
I1
I-1
sI-1
I1
sssssI1
(dp6056
g3
(dp6057
I0
I-1
sI1
(dp6058
g95
(dp6059
I1
I1
sI-1
I1
sssI-1
(dp6060
g6
(dp6061
I0
I-1
sI1
I1
sI-1
I-1
sssssI-1
(dp6062
g6
(dp6063
I0
I1
sI1
I1
sI-1
I-1
sssssI-1
(dp6064
g3
(dp6065
I0
(dp6066
g12
(dp6067
I0
I-1
sI1
(dp6068
g9
(dp6069
I0
I1
sI1
I-1
sssI-1
I-1
sssI1
(dp6070
g12
(dp6071
I0
(dp6072
g27
(dp6073
I1
I1
sI-1
I1
sssI1
(dp6074
g6
(dp6075
I0
I1
sI1
I1
sI-1
I-1
sssI-1
(dp6076
g6
(dp6077
I0
I1
sI1
I1
sI-1
I-1
sssssI-1
(dp6078
g220
(dp6079
I1
(dp6080
g66
(dp6081
I1
I-1
sI-1
I-1
sssI-1
(dp6082
g27
(dp6083
I1
I-1
sI-1
I-1
sssssssssI-1
(dp6084
g3
(dp6085
I0
I-1
sI1
(dp6086
g20
(dp6087
I0
(dp6088
g12
(dp6089
I0
(dp6090
g54
(dp6091
I1
I1
sI-1
I-1
sssI1
I1
sI-1
(dp6092
g6
(dp6093
I0
I1
sI1
I1
sI-1
I-1
sssssI1
(dp6094
g6
(dp6095
I0
(dp6096
g12
(dp6097
I0
I-1
sI1
I1
sI-1
I1
sssI1
(dp6098
g66
(dp6099
I1
I1
sI-1
I1
sssI-1
(dp6100
g1158
(dp6101
I1
I-1
sI-1
I1
sssssI-1
(dp6102
g6
(dp6103
I0
(dp6104
g66
(dp6105
I1
I1
sI-1
I1
sssI1
(dp6106
g66
(dp6107
I1
I1
sI-1
I1
sssI-1
(dp6108
g34
(dp6109
I1
I1
sI-1
I-1
sssssssI-1
(dp6110
g20
(dp6111
I0
(dp6112
g6
(dp6113
I0
(dp6114
g27
(dp6115
I1
I-1
sI-1
I-1
sssI1
(dp6116
g63
(dp6117
I1
I-1
sI-1
I-1
sssI-1
I-1
sssI1
(dp6118
g6
(dp6119
I0
(dp6120
g9
(dp6121
I0
I1
sI1
I-1
sssI1
I1
sI-1
I-1
sssI-1
(dp6122
g12
(dp6123
I0
(dp6124
g63
(dp6125
I1
I-1
sI-1
I-1
sssI1
(dp6126
g9
(dp6127
I0
I-1
sI1
I-1
sI-1
I-1
sssI-1
I-1
ssssssssa(dp6128
g2
F1.214418483841624
sg15
(dp6129
I0
(dp6130
g3
(dp6131
I0
I-1
sI1
(dp6132
g20
(dp6133
I0
(dp6134
g12
(dp6135
I0
(dp6136
g155
(dp6137
I1
I1
sI-1
I1
sssI1
(dp6138
g9
(dp6139
I0
I1
sI1
I1
sI-1
I1
sssI-1
(dp6140
g9
(dp6141
I0
I1
sI1
I1
sssssI1
(dp6142
g6
(dp6143
I0
(dp6144
g27
(dp6145
I1
I1
sI-1
I1
sssI1
I1
sI-1
I-1
sssI-1
(dp6146
g9
(dp6147
I0
(dp6148
g12
(dp6149
I0
I-1
sI1
I1
sI-1
I1
sssI1
(dp6150
g12
(dp6151
I0
I-1
sI1
I1
sI-1
I1
sssI-1
I1
sssssI-1
(dp6152
g20
(dp6153
I0
(dp6154
g6
(dp6155
I0
(dp6156
g9
(dp6157
I0
I-1
sI1
I1
sI-1
I1
sssI1
I1
sI-1
I-1
sssI1
(dp6158
g257
(dp6159
I1
(dp6160
g66
(dp6161
I1
I-1
sI-1
I-1
sssI-1
(dp6162
g6
(dp6163
I0
I1
sI-1
I-1
sssssI-1
(dp6164
g39
(dp6165
I1
(dp6166
g12
(dp6167
I0
I-1
sI1
I-1
sI-1
I-1
sssI-1
(dp6168
g12
(dp6169
I0
I-1
sI1
I-1
sI-1
I-1
sssssssssI1
(dp6170
g20
(dp6171
I0
(dp6172
g3
(dp6173
I0
(dp6174
g9
(dp6175
I0
I-1
sI1
I-1
sI-1
(dp6176
g39
(dp6177
I1
I1
sI-1
I-1
sssssI1
(dp6178
g12
(dp6179
I0
(dp6180
g66
(dp6181
I1
I1
sI-1
I1
sssI1
(dp6182
g9
(dp6183
I0
I1
sI1
I1
sI-1
I1
sssI-1
(dp6184
g6
(dp6185
I0
I1
sI1
I1
sI-1
I-1
sssssI-1
(dp6186
g12
(dp6187
I0
(dp6188
g9
(dp6189
I0
I1
sI1
I1
sI-1
I1
sssI1
(dp6190
g9
(dp6191
I0
I-1
sI1
I1
sI-1
I-1
sssI-1
(dp6192
g6
(dp6193
I0
I1
sI1
I1
sI-1
I-1
sssssssI1
(dp6194
g12
(dp6195
I0
(dp6196
g9
(dp6197
I0
(dp6198
g27
(dp6199
I1
I1
sI-1
I1
sssI1
(dp6200
g39
(dp6201
I1
I1
sI-1
I1
sssI-1
(dp6202
g39
(dp6203
I1
I1
sI-1
I-1
sssssI1
(dp6204
g3
(dp6205
I0
I-1
sI1
(dp6206
g95
(dp6207
I1
I1
sI-1
I1
sssI-1
(dp6208
g9
(dp6209
I0
I-1
sI1
I1
sssssI-1
(dp6210
g6
(dp6211
I0
I1
sI1
I1
sI-1
I-1
sssssI-1
(dp6212
g3
(dp6213
I0
(dp6214
g12
(dp6215
I0
I-1
sI1
(dp6216
g9
(dp6217
I0
I1
sI1
I-1
sssI-1
I-1
sssI1
(dp6218
g12
(dp6219
I0
(dp6220
g27
(dp6221
I1
I1
sI-1
I1
sssI1
(dp6222
g6
(dp6223
I0
I1
sI1
I1
sI-1
I-1
sssI-1
(dp6224
g6
(dp6225
I0
I1
sI1
I1
sI-1
I-1
sssssI-1
(dp6226
g220
(dp6227
I1
(dp6228
g66
(dp6229
I1
I-1
sI-1
I-1
sssI-1
(dp6230
g27
(dp6231
I1
I-1
sI-1
I-1
sssssssssI-1
(dp6232
g3
(dp6233
I0
I-1
sI1
(dp6234
g20
(dp6235
I0
(dp6236
g12
(dp6237
I0
(dp6238
g54
(dp6239
I1
I1
sI-1
I-1
sssI1
I1
sI-1
(dp6240
g6
(dp6241
I0
I1
sI1
I1
sI-1
I-1
sssssI1
(dp6242
g6
(dp6243
I0
(dp6244
g27
(dp6245
I1
I1
sI-1
I1
sssI1
(dp6246
g66
(dp6247
I1
I1
sI-1
I1
sssI-1
(dp6248
g39
(dp6249
I1
I1
sI-1
I-1
sssssI-1
(dp6250
g6
(dp6251
I0
(dp6252
g66
(dp6253
I1
I1
sI-1
I1
sssI1
(dp6254
g66
(dp6255
I1
I1
sI-1
I1
sssI-1
(dp6256
g34
(dp6257
I1
I1
sI-1
I-1
sssssssI-1
(dp6258
g20
(dp6259
I0
(dp6260
g6
(dp6261
I0
(dp6262
g27
(dp6263
I1
I-1
sI-1
I-1
sssI1
(dp6264
g63
(dp6265
I1
I-1
sI-1
I-1
sssI-1
I-1
sssI1
(dp6266
g6
(dp6267
I0
(dp6268
g9
(dp6269
I0
I1
sI1
I-1
sssI1
I1
sI-1
I-1
sssI-1
(dp6270
g12
(dp6271
I0
(dp6272
g63
(dp6273
I1
I-1
sI-1
I-1
sssI1
(dp6274
g9
(dp6275
I0
I-1
sI1
I-1
sI-1
I-1
sssI-1
I-1
ssssssssa(dp6276
g2
F1.2658418641123754
sg15
(dp6277
I0
(dp6278
g3
(dp6279
I0
I-1
sI1
(dp6280
g20
(dp6281
I0
(dp6282
g12
(dp6283
I0
(dp6284
g155
(dp6285
I1
I1
sI-1
I1
sssI1
(dp6286
g9
(dp6287
I0
I1
sI1
I1
sI-1
I1
sssI-1
(dp6288
g9
(dp6289
I0
I1
sI1
I1
sssssI1
(dp6290
g27
(dp6291
I1
(dp6292
g244
(dp6293
I1
I-1
sI-1
I1
sssI-1
(dp6294
g12
(dp6295
I0
I-1
sI1
I1
sI-1
I1
sssssI-1
(dp6296
g9
(dp6297
I0
(dp6298
g12
(dp6299
I0
I-1
sI1
I1
sI-1
I1
sssI1
(dp6300
g12
(dp6301
I0
I-1
sI1
I1
sI-1
I1
sssI-1
I1
sssssI-1
(dp6302
g20
(dp6303
I0
(dp6304
g6
(dp6305
I0
(dp6306
g39
(dp6307
I1
I1
sI-1
I-1
sssI1
I1
sI-1
I-1
sssI1
(dp6308
g257
(dp6309
I1
(dp6310
g6
(dp6311
I0
I1
sI1
I1
sI-1
I-1
sssI-1
(dp6312
g5418
(dp6313
I1
I-1
sI-1
I-1
sssssI-1
(dp6314
g39
(dp6315
I1
(dp6316
g12
(dp6317
I0
I-1
sI1
I-1
sI-1
I-1
sssI-1
(dp6318
g12
(dp6319
I0
I-1
sI1
I-1
sI-1
I-1
sssssssssI1
(dp6320
g20
(dp6321
I0
(dp6322
g3
(dp6323
I0
(dp6324
g9
(dp6325
I0
I-1
sI1
I-1
sI-1
(dp6326
g39
(dp6327
I1
I1
sI-1
I-1
sssssI1
(dp6328
g12
(dp6329
I0
(dp6330
g66
(dp6331
I1
I1
sI-1
I1
sssI1
(dp6332
g9
(dp6333
I0
I1
sI1
I1
sI-1
I1
sssI-1
(dp6334
g6
(dp6335
I0
I1
sI1
I1
sI-1
I-1
sssssI-1
(dp6336
g12
(dp6337
I0
(dp6338
g9
(dp6339
I0
I1
sI1
I1
sI-1
I1
sssI1
(dp6340
g6
(dp6341
I0
I-1
sI1
I1
sI-1
I-1
sssI-1
(dp6342
g6
(dp6343
I0
I1
sI1
I1
sI-1
I-1
sssssssI1
(dp6344
g12
(dp6345
I0
(dp6346
g9
(dp6347
I0
(dp6348
g27
(dp6349
I1
I1
sI-1
I1
sssI1
(dp6350
g39
(dp6351
I1
I1
sI-1
I1
sssI-1
(dp6352
g39
(dp6353
I1
I1
sI-1
I-1
sssssI1
(dp6354
g3
(dp6355
I0
I-1
sI1
(dp6356
g95
(dp6357
I1
I1
sI-1
I1
sssI-1
(dp6358
g6
(dp6359
I0
I-1
sI1
I1
sI-1
I-1
sssssI-1
(dp6360
g6
(dp6361
I0
I1
sI1
I1
sI-1
I-1
sssssI-1
(dp6362
g3
(dp6363
I0
(dp6364
g12
(dp6365
I0
I-1
sI1
(dp6366
g9
(dp6367
I0
I1
sI1
I-1
sssI-1
I-1
sssI1
(dp6368
g12
(dp6369
I0
(dp6370
g27
(dp6371
I1
I1
sI-1
I1
sssI1
(dp6372
g6
(dp6373
I0
I1
sI1
I1
sI-1
I-1
sssI-1
(dp6374
g6
(dp6375
I0
I1
sI1
I1
sI-1
I-1
sssssI-1
(dp6376
g220
(dp6377
I1
(dp6378
g66
(dp6379
I1
I-1
sI-1
I-1
sssI-1
(dp6380
g27
(dp6381
I1
I-1
sI-1
I-1
sssssssssI-1
(dp6382
g3
(dp6383
I0
I-1
sI1
(dp6384
g20
(dp6385
I0
(dp6386
g12
(dp6387
I0
(dp6388
g54
(dp6389
I1
I1
sI-1
I-1
sssI1
I1
sI-1
(dp6390
g6
(dp6391
I0
I1
sI1
I1
sI-1
I-1
sssssI1
(dp6392
g6
(dp6393
I0
(dp6394
g27
(dp6395
I1
I1
sI-1
I1
sssI1
(dp6396
g66
(dp6397
I1
I1
sI-1
I1
sssI-1
(dp6398
g548
(dp6399
I1
I-1
sI-1
I1
sssssI-1
(dp6400
g6
(dp6401
I0
(dp6402
g66
(dp6403
I1
I1
sI-1
I1
sssI1
(dp6404
g66
(dp6405
I1
I1
sI-1
I1
sssI-1
(dp6406
g34
(dp6407
I1
I1
sI-1
I-1
sssssssI-1
(dp6408
g20
(dp6409
I0
(dp6410
g6
(dp6411
I0
(dp6412
g27
(dp6413
I1
I-1
sI-1
I-1
sssI1
(dp6414
g63
(dp6415
I1
I-1
sI-1
I-1
sssI-1
I-1
sssI1
(dp6416
g6
(dp6417
I0
(dp6418
g9
(dp6419
I0
I1
sI1
I-1
sssI1
I1
sI-1
I-1
sssI-1
(dp6420
g12
(dp6421
I0
(dp6422
g63
(dp6423
I1
I-1
sI-1
I-1
sssI1
(dp6424
g9
(dp6425
I0
I-1
sI1
I-1
sI-1
I-1
sssI-1
I-1
ssssssssa(dp6426
g2
F1.2166616660982803
sg15
(dp6427
I0
(dp6428
g3
(dp6429
I0
I-1
sI1
(dp6430
g20
(dp6431
I0
(dp6432
g12
(dp6433
I0
(dp6434
g155
(dp6435
I1
I1
sI-1
I1
sssI1
(dp6436
g9
(dp6437
I0
I1
sI1
I1
sI-1
I1
sssI-1
(dp6438
g9
(dp6439
I0
I1
sI1
I1
sssssI1
(dp6440
g6
(dp6441
I0
(dp6442
g27
(dp6443
I1
I1
sI-1
I1
sssI1
I1
sI-1
I-1
sssI-1
(dp6444
g9
(dp6445
I0
(dp6446
g12
(dp6447
I0
I-1
sI1
I1
sI-1
I1
sssI1
(dp6448
g12
(dp6449
I0
I-1
sI1
I1
sI-1
I1
sssI-1
I1
sssssI-1
(dp6450
g20
(dp6451
I0
(dp6452
g6
(dp6453
I0
(dp6454
g9
(dp6455
I0
I-1
sI1
I1
sI-1
I1
sssI1
I1
sI-1
I-1
sssI1
(dp6456
g257
(dp6457
I1
(dp6458
g66
(dp6459
I1
I-1
sI-1
I-1
sssI-1
(dp6460
g6
(dp6461
I0
I1
sI-1
I-1
sssssI-1
(dp6462
g39
(dp6463
I1
(dp6464
g12
(dp6465
I0
I-1
sI1
I-1
sI-1
I-1
sssI-1
(dp6466
g12
(dp6467
I0
I-1
sI1
I-1
sI-1
I-1
sssssssssI1
(dp6468
g20
(dp6469
I0
(dp6470
g3
(dp6471
I0
(dp6472
g9
(dp6473
I0
I-1
sI1
I-1
sI-1
(dp6474
g39
(dp6475
I1
I1
sI-1
I-1
sssssI1
(dp6476
g12
(dp6477
I0
(dp6478
g66
(dp6479
I1
I1
sI-1
I1
sssI1
(dp6480
g9
(dp6481
I0
I1
sI1
I1
sI-1
I1
sssI-1
(dp6482
g6
(dp6483
I0
I1
sI1
I1
sI-1
I-1
sssssI-1
(dp6484
g12
(dp6485
I0
(dp6486
g9
(dp6487
I0
I1
sI1
I1
sI-1
I1
sssI1
(dp6488
g9
(dp6489
I0
I-1
sI1
I1
sI-1
I-1
sssI-1
(dp6490
g6
(dp6491
I0
I1
sI1
I1
sI-1
I-1
sssssssI1
(dp6492
g12
(dp6493
I0
(dp6494
g9
(dp6495
I0
(dp6496
g27
(dp6497
I1
I1
sI-1
I1
sssI1
(dp6498
g39
(dp6499
I1
I1
sI-1
I1
sssI-1
(dp6500
g244
(dp6501
I1
I-1
sI-1
I1
sssssI1
(dp6502
g3
(dp6503
I0
I-1
sI1
(dp6504
g95
(dp6505
I1
I1
sI-1
I1
sssI-1
(dp6506
g1719
(dp6507
I0
I1
sI1
I-1
sssssI-1
(dp6508
g6
(dp6509
I0
I1
sI1
I1
sI-1
I-1
sssssI-1
(dp6510
g3
(dp6511
I0
(dp6512
g12
(dp6513
I0
I-1
sI1
(dp6514
g9
(dp6515
I0
I1
sI1
I-1
sssI-1
I-1
sssI1
(dp6516
g12
(dp6517
I0
(dp6518
g27
(dp6519
I1
I1
sI-1
I1
sssI1
(dp6520
g6
(dp6521
I0
I1
sI1
I1
sI-1
I-1
sssI-1
(dp6522
g6
(dp6523
I0
I1
sI1
I1
sI-1
I-1
sssssI-1
(dp6524
g220
(dp6525
I1
(dp6526
g66
(dp6527
I1
I-1
sI-1
I-1
sssI-1
(dp6528
g27
(dp6529
I1
I-1
sI-1
I-1
sssssssssI-1
(dp6530
g3
(dp6531
I0
I-1
sI1
(dp6532
g20
(dp6533
I0
(dp6534
g12
(dp6535
I0
(dp6536
g54
(dp6537
I1
I1
sI-1
I-1
sssI1
I1
sI-1
(dp6538
g6
(dp6539
I0
I1
sI1
I1
sI-1
I-1
sssssI1
(dp6540
g6
(dp6541
I0
(dp6542
g12
(dp6543
I0
I-1
sI1
I1
sI-1
I1
sssI1
(dp6544
g66
(dp6545
I1
I1
sI-1
I1
sssI-1
(dp6546
g1158
(dp6547
I1
I-1
sI-1
I1
sssssI-1
(dp6548
g6
(dp6549
I0
(dp6550
g66
(dp6551
I1
I1
sI-1
I1
sssI1
(dp6552
g66
(dp6553
I1
I1
sI-1
I1
sssI-1
(dp6554
g34
(dp6555
I1
I1
sI-1
I-1
sssssssI-1
(dp6556
g20
(dp6557
I0
(dp6558
g6
(dp6559
I0
(dp6560
g27
(dp6561
I1
I-1
sI-1
I-1
sssI1
(dp6562
g63
(dp6563
I1
I-1
sI-1
I-1
sssI-1
I-1
sssI1
(dp6564
g6
(dp6565
I0
(dp6566
g9
(dp6567
I0
I1
sI1
I-1
sssI1
I1
sI-1
I-1
sssI-1
(dp6568
g12
(dp6569
I0
(dp6570
g63
(dp6571
I1
I-1
sI-1
I-1
sssI1
(dp6572
g9
(dp6573
I0
I-1
sI1
I-1
sI-1
I-1
sssI-1
I-1
ssssssssa(dp6574
g2
F1.2609773579233403
sg15
(dp6575
I0
(dp6576
g3
(dp6577
I0
I-1
sI1
(dp6578
g20
(dp6579
I0
(dp6580
g12
(dp6581
I0
(dp6582
g155
(dp6583
I1
I1
sI-1
I1
sssI1
(dp6584
g9
(dp6585
I0
I1
sI1
I1
sI-1
I1
sssI-1
(dp6586
g9
(dp6587
I0
I1
sI1
I1
sssssI1
(dp6588
g27
(dp6589
I1
(dp6590
g244
(dp6591
I1
I-1
sI-1
I1
sssI-1
(dp6592
g12
(dp6593
I0
I-1
sI1
I1
sI-1
I1
sssssI-1
(dp6594
g9
(dp6595
I0
(dp6596
g12
(dp6597
I0
I-1
sI1
I1
sI-1
I1
sssI1
(dp6598
g12
(dp6599
I0
I-1
sI1
I1
sI-1
I1
sssI-1
I1
sssssI-1
(dp6600
g20
(dp6601
I0
(dp6602
g6
(dp6603
I0
(dp6604
g9
(dp6605
I0
I-1
sI1
I1
sI-1
I1
sssI1
I1
sI-1
I-1
sssI1
(dp6606
g257
(dp6607
I1
(dp6608
g6
(dp6609
I0
I1
sI1
I1
sI-1
I-1
sssI-1
(dp6610
g5418
(dp6611
I1
I-1
sI-1
I-1
sssssI-1
(dp6612
g39
(dp6613
I1
(dp6614
g12
(dp6615
I0
I-1
sI1
I-1
sI-1
I-1
sssI-1
(dp6616
g12
(dp6617
I0
I-1
sI1
I-1
sI-1
I-1
sssssssssI1
(dp6618
g20
(dp6619
I0
(dp6620
g3
(dp6621
I0
(dp6622
g9
(dp6623
I0
I-1
sI1
I-1
sI-1
(dp6624
g39
(dp6625
I1
I1
sI-1
I-1
sssssI1
(dp6626
g12
(dp6627
I0
(dp6628
g66
(dp6629
I1
I1
sI-1
I1
sssI1
(dp6630
g9
(dp6631
I0
I1
sI1
I1
sI-1
I1
sssI-1
(dp6632
g6
(dp6633
I0
I1
sI1
I1
sI-1
I-1
sssssI-1
(dp6634
g12
(dp6635
I0
(dp6636
g9
(dp6637
I0
I1
sI1
I1
sI-1
I1
sssI1
(dp6638
g6
(dp6639
I0
I-1
sI1
I1
sI-1
I-1
sssI-1
(dp6640
g6
(dp6641
I0
I1
sI1
I1
sI-1
I-1
sssssssI1
(dp6642
g12
(dp6643
I0
(dp6644
g9
(dp6645
I0
(dp6646
g27
(dp6647
I1
I1
sI-1
I1
sssI1
(dp6648
g39
(dp6649
I1
I1
sI-1
I1
sssI-1
(dp6650
g244
(dp6651
I1
I-1
sI-1
I1
sssssI1
(dp6652
g3
(dp6653
I0
I-1
sI1
(dp6654
g95
(dp6655
I1
I1
sI-1
I1
sssI-1
(dp6656
g6
(dp6657
I0
I-1
sI1
I1
sI-1
I-1
sssssI-1
(dp6658
g6
(dp6659
I0
I1
sI1
I1
sI-1
I-1
sssssI-1
(dp6660
g3
(dp6661
I0
(dp6662
g12
(dp6663
I0
I-1
sI1
(dp6664
g9
(dp6665
I0
I1
sI1
I-1
sssI-1
I-1
sssI1
(dp6666
g12
(dp6667
I0
(dp6668
g27
(dp6669
I1
I1
sI-1
I1
sssI1
(dp6670
g6
(dp6671
I0
I1
sI1
I1
sI-1
I-1
sssI-1
(dp6672
g6
(dp6673
I0
I1
sI1
I1
sI-1
I-1
sssssI-1
(dp6674
g220
(dp6675
I1
(dp6676
g66
(dp6677
I1
I-1
sI-1
I-1
sssI-1
(dp6678
g27
(dp6679
I1
I-1
sI-1
I-1
sssssssssI-1
(dp6680
g3
(dp6681
I0
I-1
sI1
(dp6682
g20
(dp6683
I0
(dp6684
g12
(dp6685
I0
(dp6686
g54
(dp6687
I1
I1
sI-1
I-1
sssI1
I1
sI-1
(dp6688
g6
(dp6689
I0
I1
sI1
I1
sI-1
I-1
sssssI1
(dp6690
g6
(dp6691
I0
(dp6692
g12
(dp6693
I0
I-1
sI1
I1
sI-1
I1
sssI1
(dp6694
g66
(dp6695
I1
I1
sI-1
I1
sssI-1
(dp6696
g39
(dp6697
I1
I1
sI-1
I-1
sssssI-1
(dp6698
g6
(dp6699
I0
(dp6700
g66
(dp6701
I1
I1
sI-1
I1
sssI1
(dp6702
g66
(dp6703
I1
I1
sI-1
I1
sssI-1
(dp6704
g34
(dp6705
I1
I1
sI-1
I-1
sssssssI-1
(dp6706
g20
(dp6707
I0
(dp6708
g6
(dp6709
I0
(dp6710
g27
(dp6711
I1
I-1
sI-1
I-1
sssI1
(dp6712
g63
(dp6713
I1
I-1
sI-1
I-1
sssI-1
I-1
sssI1
(dp6714
g6
(dp6715
I0
(dp6716
g9
(dp6717
I0
I1
sI1
I-1
sssI1
I1
sI-1
I-1
sssI-1
(dp6718
g12
(dp6719
I0
(dp6720
g63
(dp6721
I1
I-1
sI-1
I-1
sssI1
(dp6722
g9
(dp6723
I0
I-1
sI1
I-1
sI-1
I-1
sssI-1
I-1
ssssssssa(dp6724
g2
F1.2211735176846021
sg15
(dp6725
I0
(dp6726
g3
(dp6727
I0
I-1
sI1
(dp6728
g20
(dp6729
I0
(dp6730
g12
(dp6731
I0
(dp6732
g155
(dp6733
I1
I1
sI-1
I1
sssI1
(dp6734
g9
(dp6735
I0
I1
sI1
I1
sI-1
I1
sssI-1
(dp6736
g9
(dp6737
I0
I1
sI1
I1
sssssI1
(dp6738
g6
(dp6739
I0
(dp6740
g27
(dp6741
I1
I1
sI-1
I1
sssI1
I1
sI-1
I-1
sssI-1
(dp6742
g9
(dp6743
I0
(dp6744
g12
(dp6745
I0
I-1
sI1
I1
sI-1
I1
sssI1
(dp6746
g12
(dp6747
I0
I-1
sI1
I1
sI-1
I1
sssI-1
I1
sssssI-1
(dp6748
g20
(dp6749
I0
(dp6750
g6
(dp6751
I0
(dp6752
g39
(dp6753
I1
I1
sI-1
I-1
sssI1
I1
sI-1
I-1
sssI1
(dp6754
g257
(dp6755
I1
(dp6756
g66
(dp6757
I1
I-1
sI-1
I-1
sssI-1
(dp6758
g6
(dp6759
I0
I1
sI-1
I-1
sssssI-1
(dp6760
g39
(dp6761
I1
(dp6762
g12
(dp6763
I0
I-1
sI1
I-1
sI-1
I-1
sssI-1
(dp6764
g12
(dp6765
I0
I-1
sI1
I-1
sI-1
I-1
sssssssssI1
(dp6766
g20
(dp6767
I0
(dp6768
g3
(dp6769
I0
(dp6770
g9
(dp6771
I0
I-1
sI1
I-1
sI-1
(dp6772
g39
(dp6773
I1
I1
sI-1
I-1
sssssI1
(dp6774
g12
(dp6775
I0
(dp6776
g66
(dp6777
I1
I1
sI-1
I1
sssI1
(dp6778
g9
(dp6779
I0
I1
sI1
I1
sI-1
I1
sssI-1
(dp6780
g6
(dp6781
I0
I1
sI1
I1
sI-1
I-1
sssssI-1
(dp6782
g12
(dp6783
I0
(dp6784
g9
(dp6785
I0
I1
sI1
I1
sI-1
I1
sssI1
(dp6786
g9
(dp6787
I0
I-1
sI1
I1
sI-1
I-1
sssI-1
(dp6788
g6
(dp6789
I0
I1
sI1
I1
sI-1
I-1
sssssssI1
(dp6790
g12
(dp6791
I0
(dp6792
g9
(dp6793
I0
(dp6794
g27
(dp6795
I1
I1
sI-1
I1
sssI1
(dp6796
g39
(dp6797
I1
I1
sI-1
I1
sssI-1
(dp6798
g39
(dp6799
I1
I1
sI-1
I-1
sssssI1
(dp6800
g3
(dp6801
I0
I-1
sI1
(dp6802
g95
(dp6803
I1
I1
sI-1
I1
sssI-1
(dp6804
g9
(dp6805
I0
I-1
sI1
I1
sssssI-1
(dp6806
g6
(dp6807
I0
I1
sI1
I1
sI-1
I-1
sssssI-1
(dp6808
g3
(dp6809
I0
(dp6810
g12
(dp6811
I0
I-1
sI1
(dp6812
g9
(dp6813
I0
I1
sI1
I-1
sssI-1
I-1
sssI1
(dp6814
g12
(dp6815
I0
(dp6816
g27
(dp6817
I1
I1
sI-1
I1
sssI1
(dp6818
g6
(dp6819
I0
I1
sI1
I1
sI-1
I-1
sssI-1
(dp6820
g6
(dp6821
I0
I1
sI1
I1
sI-1
I-1
sssssI-1
(dp6822
g220
(dp6823
I1
(dp6824
g66
(dp6825
I1
I-1
sI-1
I-1
sssI-1
(dp6826
g27
(dp6827
I1
I-1
sI-1
I-1
sssssssssI-1
(dp6828
g3
(dp6829
I0
I-1
sI1
(dp6830
g20
(dp6831
I0
(dp6832
g12
(dp6833
I0
(dp6834
g54
(dp6835
I1
I1
sI-1
I-1
sssI1
I1
sI-1
(dp6836
g6
(dp6837
I0
I1
sI1
I1
sI-1
I-1
sssssI1
(dp6838
g6
(dp6839
I0
(dp6840
g27
(dp6841
I1
I1
sI-1
I1
sssI1
(dp6842
g66
(dp6843
I1
I1
sI-1
I1
sssI-1
(dp6844
g548
(dp6845
I1
I-1
sI-1
I1
sssssI-1
(dp6846
g6
(dp6847
I0
(dp6848
g66
(dp6849
I1
I1
sI-1
I1
sssI1
(dp6850
g66
(dp6851
I1
I1
sI-1
I1
sssI-1
(dp6852
g34
(dp6853
I1
I1
sI-1
I-1
sssssssI-1
(dp6854
g20
(dp6855
I0
(dp6856
g6
(dp6857
I0
(dp6858
g27
(dp6859
I1
I-1
sI-1
I-1
sssI1
(dp6860
g63
(dp6861
I1
I-1
sI-1
I-1
sssI-1
I-1
sssI1
(dp6862
g6
(dp6863
I0
(dp6864
g9
(dp6865
I0
I1
sI1
I-1
sssI1
I1
sI-1
I-1
sssI-1
(dp6866
g12
(dp6867
I0
(dp6868
g63
(dp6869
I1
I-1
sI-1
I-1
sssI1
(dp6870
g9
(dp6871
I0
I-1
sI1
I-1
sI-1
I-1
sssI-1
I-1
ssssssssa(dp6872
g2
F1.2585601348858275
sg15
(dp6873
I0
(dp6874
g3
(dp6875
I0
I-1
sI1
(dp6876
g20
(dp6877
I0
(dp6878
g12
(dp6879
I0
(dp6880
g155
(dp6881
I1
I1
sI-1
I1
sssI1
(dp6882
g9
(dp6883
I0
I1
sI1
I1
sI-1
I1
sssI-1
(dp6884
g9
(dp6885
I0
I1
sI1
I1
sssssI1
(dp6886
g27
(dp6887
I1
(dp6888
g6
(dp6889
I0
I1
sI1
I1
sI-1
I-1
sssI-1
(dp6890
g12
(dp6891
I0
I-1
sI1
I1
sI-1
I1
sssssI-1
(dp6892
g9
(dp6893
I0
(dp6894
g12
(dp6895
I0
I-1
sI1
I1
sI-1
I1
sssI1
(dp6896
g12
(dp6897
I0
I-1
sI1
I1
sI-1
I1
sssI-1
I1
sssssI-1
(dp6898
g20
(dp6899
I0
(dp6900
g6
(dp6901
I0
(dp6902
g9
(dp6903
I0
I-1
sI1
I1
sI-1
I1
sssI1
I1
sI-1
I-1
sssI1
(dp6904
g257
(dp6905
I1
(dp6906
g6
(dp6907
I0
I1
sI1
I1
sI-1
I-1
sssI-1
(dp6908
g5418
(dp6909
I1
I-1
sI-1
I-1
sssssI-1
(dp6910
g39
(dp6911
I1
(dp6912
g12
(dp6913
I0
I-1
sI1
I-1
sI-1
I-1
sssI-1
(dp6914
g12
(dp6915
I0
I-1
sI1
I-1
sI-1
I-1
sssssssssI1
(dp6916
g20
(dp6917
I0
(dp6918
g3
(dp6919
I0
(dp6920
g9
(dp6921
I0
I-1
sI1
I-1
sI-1
(dp6922
g39
(dp6923
I1
I1
sI-1
I-1
sssssI1
(dp6924
g12
(dp6925
I0
(dp6926
g66
(dp6927
I1
I1
sI-1
I1
sssI1
(dp6928
g9
(dp6929
I0
I1
sI1
I1
sI-1
I1
sssI-1
(dp6930
g6
(dp6931
I0
I1
sI1
I1
sI-1
I-1
sssssI-1
(dp6932
g12
(dp6933
I0
(dp6934
g9
(dp6935
I0
I1
sI1
I1
sI-1
I1
sssI1
(dp6936
g6
(dp6937
I0
I-1
sI1
I1
sI-1
I-1
sssI-1
(dp6938
g6
(dp6939
I0
I1
sI1
I1
sI-1
I-1
sssssssI1
(dp6940
g12
(dp6941
I0
(dp6942
g9
(dp6943
I0
(dp6944
g27
(dp6945
I1
I1
sI-1
I1
sssI1
(dp6946
g39
(dp6947
I1
I1
sI-1
I1
sssI-1
(dp6948
g39
(dp6949
I1
I1
sI-1
I-1
sssssI1
(dp6950
g3
(dp6951
I0
I-1
sI1
(dp6952
g95
(dp6953
I1
I1
sI-1
I1
sssI-1
(dp6954
g6
(dp6955
I0
I-1
sI1
I1
sI-1
I-1
sssssI-1
(dp6956
g6
(dp6957
I0
I1
sI1
I1
sI-1
I-1
sssssI-1
(dp6958
g3
(dp6959
I0
(dp6960
g12
(dp6961
I0
I-1
sI1
(dp6962
g9
(dp6963
I0
I1
sI1
I-1
sssI-1
I-1
sssI1
(dp6964
g12
(dp6965
I0
(dp6966
g27
(dp6967
I1
I1
sI-1
I1
sssI1
(dp6968
g6
(dp6969
I0
I1
sI1
I1
sI-1
I-1
sssI-1
(dp6970
g6
(dp6971
I0
I1
sI1
I1
sI-1
I-1
sssssI-1
(dp6972
g220
(dp6973
I1
(dp6974
g66
(dp6975
I1
I-1
sI-1
I-1
sssI-1
(dp6976
g27
(dp6977
I1
I-1
sI-1
I-1
sssssssssI-1
(dp6978
g3
(dp6979
I0
I-1
sI1
(dp6980
g20
(dp6981
I0
(dp6982
g12
(dp6983
I0
(dp6984
g54
(dp6985
I1
I1
sI-1
I-1
sssI1
I1
sI-1
(dp6986
g6
(dp6987
I0
I1
sI1
I1
sI-1
I-1
sssssI1
(dp6988
g6
(dp6989
I0
(dp6990
g12
(dp6991
I0
I-1
sI1
I1
sI-1
I1
sssI1
(dp6992
g66
(dp6993
I1
I1
sI-1
I1
sssI-1
(dp6994
g1158
(dp6995
I1
I-1
sI-1
I1
sssssI-1
(dp6996
g6
(dp6997
I0
(dp6998
g66
(dp6999
I1
I1
sI-1
I1
sssI1
(dp7000
g66
(dp7001
I1
I1
sI-1
I1
sssI-1
(dp7002
g34
(dp7003
I1
I1
sI-1
I-1
sssssssI-1
(dp7004
g20
(dp7005
I0
(dp7006
g6
(dp7007
I0
(dp7008
g27
(dp7009
I1
I-1
sI-1
I-1
sssI1
(dp7010
g63
(dp7011
I1
I-1
sI-1
I-1
sssI-1
I-1
sssI1
(dp7012
g6
(dp7013
I0
(dp7014
g9
(dp7015
I0
I1
sI1
I-1
sssI1
I1
sI-1
I-1
sssI-1
(dp7016
g12
(dp7017
I0
(dp7018
g63
(dp7019
I1
I-1
sI-1
I-1
sssI1
(dp7020
g9
(dp7021
I0
I-1
sI1
I-1
sI-1
I-1
sssI-1
I-1
ssssssssa(dp7022
g2
F1.223442329999322
sg15
(dp7023
I0
(dp7024
g3
(dp7025
I0
I-1
sI1
(dp7026
g20
(dp7027
I0
(dp7028
g12
(dp7029
I0
(dp7030
g155
(dp7031
I1
I1
sI-1
I1
sssI1
(dp7032
g9
(dp7033
I0
I1
sI1
I1
sI-1
I1
sssI-1
(dp7034
g9
(dp7035
I0
I1
sI1
I1
sssssI1
(dp7036
g27
(dp7037
I1
(dp7038
g244
(dp7039
I1
I-1
sI-1
I1
sssI-1
(dp7040
g6
(dp7041
I0
I1
sI1
I1
sI-1
I-1
sssssI-1
(dp7042
g9
(dp7043
I0
(dp7044
g12
(dp7045
I0
I-1
sI1
I1
sI-1
I1
sssI1
(dp7046
g12
(dp7047
I0
I-1
sI1
I1
sI-1
I1
sssI-1
I1
sssssI-1
(dp7048
g20
(dp7049
I0
(dp7050
g6
(dp7051
I0
(dp7052
g39
(dp7053
I1
I1
sI-1
I-1
sssI1
I1
sI-1
I-1
sssI1
(dp7054
g257
(dp7055
I1
(dp7056
g66
(dp7057
I1
I-1
sI-1
I-1
sssI-1
(dp7058
g6
(dp7059
I0
I1
sI-1
I-1
sssssI-1
(dp7060
g39
(dp7061
I1
(dp7062
g12
(dp7063
I0
I-1
sI1
I-1
sI-1
I-1
sssI-1
(dp7064
g12
(dp7065
I0
I-1
sI1
I-1
sI-1
I-1
sssssssssI1
(dp7066
g20
(dp7067
I0
(dp7068
g3
(dp7069
I0
(dp7070
g9
(dp7071
I0
I-1
sI1
I-1
sI-1
(dp7072
g39
(dp7073
I1
I1
sI-1
I-1
sssssI1
(dp7074
g12
(dp7075
I0
(dp7076
g66
(dp7077
I1
I1
sI-1
I1
sssI1
(dp7078
g9
(dp7079
I0
I1
sI1
I1
sI-1
I1
sssI-1
(dp7080
g6
(dp7081
I0
I1
sI1
I1
sI-1
I-1
sssssI-1
(dp7082
g12
(dp7083
I0
(dp7084
g9
(dp7085
I0
I1
sI1
I1
sI-1
I1
sssI1
(dp7086
g9
(dp7087
I0
I-1
sI1
I1
sI-1
I-1
sssI-1
(dp7088
g6
(dp7089
I0
I1
sI1
I1
sI-1
I-1
sssssssI1
(dp7090
g12
(dp7091
I0
(dp7092
g9
(dp7093
I0
(dp7094
g27
(dp7095
I1
I1
sI-1
I1
sssI1
(dp7096
g39
(dp7097
I1
I1
sI-1
I1
sssI-1
(dp7098
g244
(dp7099
I1
I-1
sI-1
I1
sssssI1
(dp7100
g3
(dp7101
I0
I-1
sI1
(dp7102
g95
(dp7103
I1
I1
sI-1
I1
sssI-1
(dp7104
g1719
(dp7105
I0
I1
sI1
I-1
sssssI-1
(dp7106
g6
(dp7107
I0
I1
sI1
I1
sI-1
I-1
sssssI-1
(dp7108
g3
(dp7109
I0
(dp7110
g12
(dp7111
I0
I-1
sI1
(dp7112
g9
(dp7113
I0
I1
sI1
I-1
sssI-1
I-1
sssI1
(dp7114
g12
(dp7115
I0
(dp7116
g27
(dp7117
I1
I1
sI-1
I1
sssI1
(dp7118
g6
(dp7119
I0
I1
sI1
I1
sI-1
I-1
sssI-1
(dp7120
g6
(dp7121
I0
I1
sI1
I1
sI-1
I-1
sssssI-1
(dp7122
g220
(dp7123
I1
(dp7124
g66
(dp7125
I1
I-1
sI-1
I-1
sssI-1
(dp7126
g27
(dp7127
I1
I-1
sI-1
I-1
sssssssssI-1
(dp7128
g3
(dp7129
I0
I-1
sI1
(dp7130
g20
(dp7131
I0
(dp7132
g12
(dp7133
I0
(dp7134
g54
(dp7135
I1
I1
sI-1
I-1
sssI1
I1
sI-1
(dp7136
g6
(dp7137
I0
I1
sI1
I1
sI-1
I-1
sssssI1
(dp7138
g6
(dp7139
I0
(dp7140
g27
(dp7141
I1
I1
sI-1
I1
sssI1
(dp7142
g66
(dp7143
I1
I1
sI-1
I1
sssI-1
(dp7144
g39
(dp7145
I1
I1
sI-1
I-1
sssssI-1
(dp7146
g6
(dp7147
I0
(dp7148
g66
(dp7149
I1
I1
sI-1
I1
sssI1
(dp7150
g66
(dp7151
I1
I1
sI-1
I1
sssI-1
(dp7152
g34
(dp7153
I1
I1
sI-1
I-1
sssssssI-1
(dp7154
g20
(dp7155
I0
(dp7156
g6
(dp7157
I0
(dp7158
g27
(dp7159
I1
I-1
sI-1
I-1
sssI1
(dp7160
g63
(dp7161
I1
I-1
sI-1
I-1
sssI-1
I-1
sssI1
(dp7162
g6
(dp7163
I0
(dp7164
g9
(dp7165
I0
I1
sI1
I-1
sssI1
I1
sI-1
I-1
sssI-1
(dp7166
g12
(dp7167
I0
(dp7168
g63
(dp7169
I1
I-1
sI-1
I-1
sssI1
(dp7170
g9
(dp7171
I0
I-1
sI1
I-1
sI-1
I-1
sssI-1
I-1
ssssssssa(dp7172
g2
F1.2658418641123754
sg15
(dp7173
I0
(dp7174
g3
(dp7175
I0
I-1
sI1
(dp7176
g20
(dp7177
I0
(dp7178
g12
(dp7179
I0
(dp7180
g155
(dp7181
I1
I1
sI-1
I1
sssI1
(dp7182
g9
(dp7183
I0
I1
sI1
I1
sI-1
I1
sssI-1
(dp7184
g9
(dp7185
I0
I1
sI1
I1
sssssI1
(dp7186
g27
(dp7187
I1
(dp7188
g244
(dp7189
I1
I-1
sI-1
I1
sssI-1
(dp7190
g12
(dp7191
I0
I-1
sI1
I1
sI-1
I1
sssssI-1
(dp7192
g9
(dp7193
I0
(dp7194
g12
(dp7195
I0
I-1
sI1
I1
sI-1
I1
sssI1
(dp7196
g12
(dp7197
I0
I-1
sI1
I1
sI-1
I1
sssI-1
I1
sssssI-1
(dp7198
g20
(dp7199
I0
(dp7200
g6
(dp7201
I0
(dp7202
g39
(dp7203
I1
I1
sI-1
I-1
sssI1
I1
sI-1
I-1
sssI1
(dp7204
g257
(dp7205
I1
(dp7206
g6
(dp7207
I0
I1
sI1
I1
sI-1
I-1
sssI-1
(dp7208
g5418
(dp7209
I1
I-1
sI-1
I-1
sssssI-1
(dp7210
g39
(dp7211
I1
(dp7212
g12
(dp7213
I0
I-1
sI1
I-1
sI-1
I-1
sssI-1
(dp7214
g12
(dp7215
I0
I-1
sI1
I-1
sI-1
I-1
sssssssssI1
(dp7216
g20
(dp7217
I0
(dp7218
g3
(dp7219
I0
(dp7220
g9
(dp7221
I0
I-1
sI1
I-1
sI-1
(dp7222
g39
(dp7223
I1
I1
sI-1
I-1
sssssI1
(dp7224
g12
(dp7225
I0
(dp7226
g66
(dp7227
I1
I1
sI-1
I1
sssI1
(dp7228
g9
(dp7229
I0
I1
sI1
I1
sI-1
I1
sssI-1
(dp7230
g6
(dp7231
I0
I1
sI1
I1
sI-1
I-1
sssssI-1
(dp7232
g12
(dp7233
I0
(dp7234
g9
(dp7235
I0
I1
sI1
I1
sI-1
I1
sssI1
(dp7236
g6
(dp7237
I0
I-1
sI1
I1
sI-1
I-1
sssI-1
(dp7238
g6
(dp7239
I0
I1
sI1
I1
sI-1
I-1
sssssssI1
(dp7240
g12
(dp7241
I0
(dp7242
g9
(dp7243
I0
(dp7244
g27
(dp7245
I1
I1
sI-1
I1
sssI1
(dp7246
g39
(dp7247
I1
I1
sI-1
I1
sssI-1
(dp7248
g244
(dp7249
I1
I-1
sI-1
I1
sssssI1
(dp7250
g3
(dp7251
I0
I-1
sI1
(dp7252
g95
(dp7253
I1
I1
sI-1
I1
sssI-1
(dp7254
g6
(dp7255
I0
I-1
sI1
I1
sI-1
I-1
sssssI-1
(dp7256
g6
(dp7257
I0
I1
sI1
I1
sI-1
I-1
sssssI-1
(dp7258
g3
(dp7259
I0
(dp7260
g12
(dp7261
I0
I-1
sI1
(dp7262
g9
(dp7263
I0
I1
sI1
I-1
sssI-1
I-1
sssI1
(dp7264
g12
(dp7265
I0
(dp7266
g27
(dp7267
I1
I1
sI-1
I1
sssI1
(dp7268
g6
(dp7269
I0
I1
sI1
I1
sI-1
I-1
sssI-1
(dp7270
g6
(dp7271
I0
I1
sI1
I1
sI-1
I-1
sssssI-1
(dp7272
g220
(dp7273
I1
(dp7274
g66
(dp7275
I1
I-1
sI-1
I-1
sssI-1
(dp7276
g27
(dp7277
I1
I-1
sI-1
I-1
sssssssssI-1
(dp7278
g3
(dp7279
I0
I-1
sI1
(dp7280
g20
(dp7281
I0
(dp7282
g12
(dp7283
I0
(dp7284
g54
(dp7285
I1
I1
sI-1
I-1
sssI1
I1
sI-1
(dp7286
g6
(dp7287
I0
I1
sI1
I1
sI-1
I-1
sssssI1
(dp7288
g6
(dp7289
I0
(dp7290
g27
(dp7291
I1
I1
sI-1
I1
sssI1
(dp7292
g66
(dp7293
I1
I1
sI-1
I1
sssI-1
(dp7294
g548
(dp7295
I1
I-1
sI-1
I1
sssssI-1
(dp7296
g6
(dp7297
I0
(dp7298
g66
(dp7299
I1
I1
sI-1
I1
sssI1
(dp7300
g66
(dp7301
I1
I1
sI-1
I1
sssI-1
(dp7302
g34
(dp7303
I1
I1
sI-1
I-1
sssssssI-1
(dp7304
g20
(dp7305
I0
(dp7306
g6
(dp7307
I0
(dp7308
g27
(dp7309
I1
I-1
sI-1
I-1
sssI1
(dp7310
g63
(dp7311
I1
I-1
sI-1
I-1
sssI-1
I-1
sssI1
(dp7312
g6
(dp7313
I0
(dp7314
g9
(dp7315
I0
I1
sI1
I-1
sssI1
I1
sI-1
I-1
sssI-1
(dp7316
g12
(dp7317
I0
(dp7318
g63
(dp7319
I1
I-1
sI-1
I-1
sssI1
(dp7320
g9
(dp7321
I0
I-1
sI1
I-1
sI-1
I-1
sssI-1
I-1
ssssssssa(dp7322
g2
F1.2077390716781187
sg15
(dp7323
I0
(dp7324
g3
(dp7325
I0
I-1
sI1
(dp7326
g20
(dp7327
I0
(dp7328
g12
(dp7329
I0
(dp7330
g155
(dp7331
I1
I1
sI-1
I1
sssI1
(dp7332
g9
(dp7333
I0
I1
sI1
I1
sI-1
I1
sssI-1
(dp7334
g9
(dp7335
I0
I1
sI1
I1
sssssI1
(dp7336
g6
(dp7337
I0
(dp7338
g27
(dp7339
I1
I1
sI-1
I1
sssI1
I1
sI-1
I-1
sssI-1
(dp7340
g9
(dp7341
I0
(dp7342
g12
(dp7343
I0
I-1
sI1
I1
sI-1
I1
sssI1
(dp7344
g12
(dp7345
I0
I-1
sI1
I1
sI-1
I1
sssI-1
I1
sssssI-1
(dp7346
g20
(dp7347
I0
(dp7348
g6
(dp7349
I0
(dp7350
g9
(dp7351
I0
I-1
sI1
I1
sI-1
I1
sssI1
I1
sI-1
I-1
sssI1
(dp7352
g257
(dp7353
I1
(dp7354
g66
(dp7355
I1
I-1
sI-1
I-1
sssI-1
(dp7356
g6
(dp7357
I0
I1
sI-1
I-1
sssssI-1
(dp7358
g39
(dp7359
I1
(dp7360
g12
(dp7361
I0
I-1
sI1
I-1
sI-1
I-1
sssI-1
(dp7362
g12
(dp7363
I0
I-1
sI1
I-1
sI-1
I-1
sssssssssI1
(dp7364
g20
(dp7365
I0
(dp7366
g3
(dp7367
I0
(dp7368
g9
(dp7369
I0
I-1
sI1
I-1
sI-1
(dp7370
g39
(dp7371
I1
I1
sI-1
I-1
sssssI1
(dp7372
g12
(dp7373
I0
(dp7374
g66
(dp7375
I1
I1
sI-1
I1
sssI1
(dp7376
g9
(dp7377
I0
I1
sI1
I1
sI-1
I1
sssI-1
(dp7378
g6
(dp7379
I0
I1
sI1
I1
sI-1
I-1
sssssI-1
(dp7380
g12
(dp7381
I0
(dp7382
g9
(dp7383
I0
I1
sI1
I1
sI-1
I1
sssI1
(dp7384
g66
(dp7385
I1
I-1
sI-1
I1
sssI-1
(dp7386
g6
(dp7387
I0
I1
sI1
I1
sI-1
I-1
sssssssI1
(dp7388
g12
(dp7389
I0
(dp7390
g9
(dp7391
I0
(dp7392
g27
(dp7393
I1
I1
sI-1
I1
sssI1
(dp7394
g39
(dp7395
I1
I1
sI-1
I1
sssI-1
(dp7396
g39
(dp7397
I1
I1
sI-1
I-1
sssssI1
(dp7398
g3
(dp7399
I0
I-1
sI1
(dp7400
g95
(dp7401
I1
I1
sI-1
I1
sssI-1
(dp7402
g9
(dp7403
I0
I-1
sI1
I1
sssssI-1
(dp7404
g6
(dp7405
I0
I1
sI1
I1
sI-1
I-1
sssssI-1
(dp7406
g3
(dp7407
I0
(dp7408
g12
(dp7409
I0
I-1
sI1
(dp7410
g9
(dp7411
I0
I1
sI1
I-1
sssI-1
I-1
sssI1
(dp7412
g12
(dp7413
I0
(dp7414
g27
(dp7415
I1
I1
sI-1
I1
sssI1
(dp7416
g6
(dp7417
I0
I1
sI1
I1
sI-1
I-1
sssI-1
(dp7418
g6
(dp7419
I0
I1
sI1
I1
sI-1
I-1
sssssI-1
(dp7420
g220
(dp7421
I1
(dp7422
g66
(dp7423
I1
I-1
sI-1
I-1
sssI-1
(dp7424
g27
(dp7425
I1
I-1
sI-1
I-1
sssssssssI-1
(dp7426
g3
(dp7427
I0
I-1
sI1
(dp7428
g20
(dp7429
I0
(dp7430
g12
(dp7431
I0
(dp7432
g54
(dp7433
I1
I1
sI-1
I-1
sssI1
I1
sI-1
(dp7434
g6
(dp7435
I0
I1
sI1
I1
sI-1
I-1
sssssI1
(dp7436
g6
(dp7437
I0
(dp7438
g12
(dp7439
I0
I-1
sI1
I1
sI-1
I1
sssI1
(dp7440
g66
(dp7441
I1
I1
sI-1
I1
sssI-1
(dp7442
g1158
(dp7443
I1
I-1
sI-1
I1
sssssI-1
(dp7444
g6
(dp7445
I0
(dp7446
g66
(dp7447
I1
I1
sI-1
I1
sssI1
(dp7448
g66
(dp7449
I1
I1
sI-1
I1
sssI-1
(dp7450
g34
(dp7451
I1
I1
sI-1
I-1
sssssssI-1
(dp7452
g20
(dp7453
I0
(dp7454
g6
(dp7455
I0
(dp7456
g27
(dp7457
I1
I-1
sI-1
I-1
sssI1
(dp7458
g63
(dp7459
I1
I-1
sI-1
I-1
sssI-1
I-1
sssI1
(dp7460
g6
(dp7461
I0
(dp7462
g9
(dp7463
I0
I1
sI1
I-1
sssI1
I1
sI-1
I-1
sssI-1
(dp7464
g12
(dp7465
I0
(dp7466
g63
(dp7467
I1
I-1
sI-1
I-1
sssI1
(dp7468
g9
(dp7469
I0
I-1
sI1
I-1
sI-1
I-1
sssI-1
I-1
ssssssssa(dp7470
g2
F1.2466207706543693
sg15
(dp7471
I0
(dp7472
g3
(dp7473
I0
I-1
sI1
(dp7474
g20
(dp7475
I0
(dp7476
g12
(dp7477
I0
(dp7478
g155
(dp7479
I1
I1
sI-1
I1
sssI1
(dp7480
g9
(dp7481
I0
I1
sI1
I1
sI-1
I1
sssI-1
(dp7482
g9
(dp7483
I0
I1
sI1
I1
sssssI1
(dp7484
g27
(dp7485
I1
(dp7486
g6
(dp7487
I0
I1
sI1
I1
sI-1
I-1
sssI-1
(dp7488
g12
(dp7489
I0
I-1
sI1
I1
sI-1
I1
sssssI-1
(dp7490
g9
(dp7491
I0
(dp7492
g12
(dp7493
I0
I-1
sI1
I1
sI-1
I1
sssI1
(dp7494
g12
(dp7495
I0
I-1
sI1
I1
sI-1
I1
sssI-1
I1
sssssI-1
(dp7496
g20
(dp7497
I0
(dp7498
g6
(dp7499
I0
(dp7500
g9
(dp7501
I0
I-1
sI1
I1
sI-1
I1
sssI1
I1
sI-1
I-1
sssI1
(dp7502
g257
(dp7503
I1
(dp7504
g6
(dp7505
I0
I1
sI1
I1
sI-1
I-1
sssI-1
(dp7506
g5418
(dp7507
I1
I-1
sI-1
I-1
sssssI-1
(dp7508
g39
(dp7509
I1
(dp7510
g12
(dp7511
I0
I-1
sI1
I-1
sI-1
I-1
sssI-1
(dp7512
g12
(dp7513
I0
I-1
sI1
I-1
sI-1
I-1
sssssssssI1
(dp7514
g20
(dp7515
I0
(dp7516
g3
(dp7517
I0
(dp7518
g9
(dp7519
I0
I-1
sI1
I-1
sI-1
(dp7520
g39
(dp7521
I1
I1
sI-1
I-1
sssssI1
(dp7522
g12
(dp7523
I0
(dp7524
g66
(dp7525
I1
I1
sI-1
I1
sssI1
(dp7526
g9
(dp7527
I0
I1
sI1
I1
sI-1
I1
sssI-1
(dp7528
g6
(dp7529
I0
I1
sI1
I1
sI-1
I-1
sssssI-1
(dp7530
g12
(dp7531
I0
(dp7532
g9
(dp7533
I0
I1
sI1
I1
sI-1
I1
sssI1
(dp7534
g66
(dp7535
I1
I-1
sI-1
I1
sssI-1
(dp7536
g6
(dp7537
I0
I1
sI1
I1
sI-1
I-1
sssssssI1
(dp7538
g12
(dp7539
I0
(dp7540
g9
(dp7541
I0
(dp7542
g27
(dp7543
I1
I1
sI-1
I1
sssI1
(dp7544
g39
(dp7545
I1
I1
sI-1
I1
sssI-1
(dp7546
g39
(dp7547
I1
I1
sI-1
I-1
sssssI1
(dp7548
g3
(dp7549
I0
I-1
sI1
(dp7550
g95
(dp7551
I1
I1
sI-1
I1
sssI-1
(dp7552
g6
(dp7553
I0
I-1
sI1
I1
sI-1
I-1
sssssI-1
(dp7554
g6
(dp7555
I0
I1
sI1
I1
sI-1
I-1
sssssI-1
(dp7556
g3
(dp7557
I0
(dp7558
g12
(dp7559
I0
I-1
sI1
(dp7560
g9
(dp7561
I0
I1
sI1
I-1
sssI-1
I-1
sssI1
(dp7562
g12
(dp7563
I0
(dp7564
g27
(dp7565
I1
I1
sI-1
I1
sssI1
(dp7566
g6
(dp7567
I0
I1
sI1
I1
sI-1
I-1
sssI-1
(dp7568
g6
(dp7569
I0
I1
sI1
I1
sI-1
I-1
sssssI-1
(dp7570
g220
(dp7571
I1
(dp7572
g66
(dp7573
I1
I-1
sI-1
I-1
sssI-1
(dp7574
g27
(dp7575
I1
I-1
sI-1
I-1
sssssssssI-1
(dp7576
g3
(dp7577
I0
I-1
sI1
(dp7578
g20
(dp7579
I0
(dp7580
g12
(dp7581
I0
(dp7582
g54
(dp7583
I1
I1
sI-1
I-1
sssI1
I1
sI-1
(dp7584
g6
(dp7585
I0
I1
sI1
I1
sI-1
I-1
sssssI1
(dp7586
g6
(dp7587
I0
(dp7588
g12
(dp7589
I0
I-1
sI1
I1
sI-1
I1
sssI1
(dp7590
g66
(dp7591
I1
I1
sI-1
I1
sssI-1
(dp7592
g39
(dp7593
I1
I1
sI-1
I-1
sssssI-1
(dp7594
g6
(dp7595
I0
(dp7596
g66
(dp7597
I1
I1
sI-1
I1
sssI1
(dp7598
g66
(dp7599
I1
I1
sI-1
I1
sssI-1
(dp7600
g34
(dp7601
I1
I1
sI-1
I-1
sssssssI-1
(dp7602
g20
(dp7603
I0
(dp7604
g6
(dp7605
I0
(dp7606
g27
(dp7607
I1
I-1
sI-1
I-1
sssI1
(dp7608
g63
(dp7609
I1
I-1
sI-1
I-1
sssI-1
I-1
sssI1
(dp7610
g6
(dp7611
I0
(dp7612
g9
(dp7613
I0
I1
sI1
I-1
sssI1
I1
sI-1
I-1
sssI-1
(dp7614
g12
(dp7615
I0
(dp7616
g63
(dp7617
I1
I-1
sI-1
I-1
sssI1
(dp7618
g9
(dp7619
I0
I-1
sI1
I-1
sI-1
I-1
sssI-1
I-1
ssssssssa(dp7620
g2
F1.214418483841624
sg15
(dp7621
I0
(dp7622
g3
(dp7623
I0
I-1
sI1
(dp7624
g20
(dp7625
I0
(dp7626
g12
(dp7627
I0
(dp7628
g155
(dp7629
I1
I1
sI-1
I1
sssI1
(dp7630
g9
(dp7631
I0
I1
sI1
I1
sI-1
I1
sssI-1
(dp7632
g9
(dp7633
I0
I1
sI1
I1
sssssI1
(dp7634
g27
(dp7635
I1
(dp7636
g244
(dp7637
I1
I-1
sI-1
I1
sssI-1
(dp7638
g6
(dp7639
I0
I1
sI1
I1
sI-1
I-1
sssssI-1
(dp7640
g9
(dp7641
I0
(dp7642
g12
(dp7643
I0
I-1
sI1
I1
sI-1
I1
sssI1
(dp7644
g12
(dp7645
I0
I-1
sI1
I1
sI-1
I1
sssI-1
I1
sssssI-1
(dp7646
g20
(dp7647
I0
(dp7648
g6
(dp7649
I0
(dp7650
g39
(dp7651
I1
I1
sI-1
I-1
sssI1
I1
sI-1
I-1
sssI1
(dp7652
g257
(dp7653
I1
(dp7654
g66
(dp7655
I1
I-1
sI-1
I-1
sssI-1
(dp7656
g6
(dp7657
I0
I1
sI-1
I-1
sssssI-1
(dp7658
g39
(dp7659
I1
(dp7660
g12
(dp7661
I0
I-1
sI1
I-1
sI-1
I-1
sssI-1
(dp7662
g12
(dp7663
I0
I-1
sI1
I-1
sI-1
I-1
sssssssssI1
(dp7664
g20
(dp7665
I0
(dp7666
g3
(dp7667
I0
(dp7668
g9
(dp7669
I0
I-1
sI1
I-1
sI-1
(dp7670
g39
(dp7671
I1
I1
sI-1
I-1
sssssI1
(dp7672
g12
(dp7673
I0
(dp7674
g66
(dp7675
I1
I1
sI-1
I1
sssI1
(dp7676
g9
(dp7677
I0
I1
sI1
I1
sI-1
I1
sssI-1
(dp7678
g6
(dp7679
I0
I1
sI1
I1
sI-1
I-1
sssssI-1
(dp7680
g12
(dp7681
I0
(dp7682
g9
(dp7683
I0
I1
sI1
I1
sI-1
I1
sssI1
(dp7684
g66
(dp7685
I1
I-1
sI-1
I1
sssI-1
(dp7686
g6
(dp7687
I0
I1
sI1
I1
sI-1
I-1
sssssssI1
(dp7688
g12
(dp7689
I0
(dp7690
g9
(dp7691
I0
(dp7692
g27
(dp7693
I1
I1
sI-1
I1
sssI1
(dp7694
g39
(dp7695
I1
I1
sI-1
I1
sssI-1
(dp7696
g244
(dp7697
I1
I-1
sI-1
I1
sssssI1
(dp7698
g3
(dp7699
I0
I-1
sI1
(dp7700
g95
(dp7701
I1
I1
sI-1
I1
sssI-1
(dp7702
g1719
(dp7703
I0
I1
sI1
I-1
sssssI-1
(dp7704
g6
(dp7705
I0
I1
sI1
I1
sI-1
I-1
sssssI-1
(dp7706
g3
(dp7707
I0
(dp7708
g12
(dp7709
I0
I-1
sI1
(dp7710
g9
(dp7711
I0
I1
sI1
I-1
sssI-1
I-1
sssI1
(dp7712
g12
(dp7713
I0
(dp7714
g27
(dp7715
I1
I1
sI-1
I1
sssI1
(dp7716
g6
(dp7717
I0
I1
sI1
I1
sI-1
I-1
sssI-1
(dp7718
g6
(dp7719
I0
I1
sI1
I1
sI-1
I-1
sssssI-1
(dp7720
g220
(dp7721
I1
(dp7722
g66
(dp7723
I1
I-1
sI-1
I-1
sssI-1
(dp7724
g27
(dp7725
I1
I-1
sI-1
I-1
sssssssssI-1
(dp7726
g3
(dp7727
I0
I-1
sI1
(dp7728
g20
(dp7729
I0
(dp7730
g12
(dp7731
I0
(dp7732
g54
(dp7733
I1
I1
sI-1
I-1
sssI1
I1
sI-1
(dp7734
g6
(dp7735
I0
I1
sI1
I1
sI-1
I-1
sssssI1
(dp7736
g6
(dp7737
I0
(dp7738
g27
(dp7739
I1
I1
sI-1
I1
sssI1
(dp7740
g66
(dp7741
I1
I1
sI-1
I1
sssI-1
(dp7742
g548
(dp7743
I1
I-1
sI-1
I1
sssssI-1
(dp7744
g6
(dp7745
I0
(dp7746
g66
(dp7747
I1
I1
sI-1
I1
sssI1
(dp7748
g66
(dp7749
I1
I1
sI-1
I1
sssI-1
(dp7750
g34
(dp7751
I1
I1
sI-1
I-1
sssssssI-1
(dp7752
g20
(dp7753
I0
(dp7754
g6
(dp7755
I0
(dp7756
g27
(dp7757
I1
I-1
sI-1
I-1
sssI1
(dp7758
g63
(dp7759
I1
I-1
sI-1
I-1
sssI-1
I-1
sssI1
(dp7760
g6
(dp7761
I0
(dp7762
g9
(dp7763
I0
I1
sI1
I-1
sssI1
I1
sI-1
I-1
sssI-1
(dp7764
g12
(dp7765
I0
(dp7766
g63
(dp7767
I1
I-1
sI-1
I-1
sssI1
(dp7768
g9
(dp7769
I0
I-1
sI1
I-1
sI-1
I-1
sssI-1
I-1
ssssssssa(dp7770
g2
F1.2513675140671878
sg15
(dp7771
I0
(dp7772
g3
(dp7773
I0
I-1
sI1
(dp7774
g20
(dp7775
I0
(dp7776
g12
(dp7777
I0
(dp7778
g155
(dp7779
I1
I1
sI-1
I1
sssI1
(dp7780
g9
(dp7781
I0
I1
sI1
I1
sI-1
I1
sssI-1
(dp7782
g9
(dp7783
I0
I1
sI1
I1
sssssI1
(dp7784
g27
(dp7785
I1
(dp7786
g6
(dp7787
I0
I1
sI1
I1
sI-1
I-1
sssI-1
(dp7788
g12
(dp7789
I0
I-1
sI1
I1
sI-1
I1
sssssI-1
(dp7790
g9
(dp7791
I0
(dp7792
g12
(dp7793
I0
I-1
sI1
I1
sI-1
I1
sssI1
(dp7794
g12
(dp7795
I0
I-1
sI1
I1
sI-1
I1
sssI-1
I1
sssssI-1
(dp7796
g20
(dp7797
I0
(dp7798
g6
(dp7799
I0
(dp7800
g39
(dp7801
I1
I1
sI-1
I-1
sssI1
I1
sI-1
I-1
sssI1
(dp7802
g257
(dp7803
I1
(dp7804
g6
(dp7805
I0
I1
sI1
I1
sI-1
I-1
sssI-1
(dp7806
g5418
(dp7807
I1
I-1
sI-1
I-1
sssssI-1
(dp7808
g39
(dp7809
I1
(dp7810
g12
(dp7811
I0
I-1
sI1
I-1
sI-1
I-1
sssI-1
(dp7812
g12
(dp7813
I0
I-1
sI1
I-1
sI-1
I-1
sssssssssI1
(dp7814
g20
(dp7815
I0
(dp7816
g3
(dp7817
I0
(dp7818
g9
(dp7819
I0
I-1
sI1
I-1
sI-1
(dp7820
g39
(dp7821
I1
I1
sI-1
I-1
sssssI1
(dp7822
g12
(dp7823
I0
(dp7824
g66
(dp7825
I1
I1
sI-1
I1
sssI1
(dp7826
g9
(dp7827
I0
I1
sI1
I1
sI-1
I1
sssI-1
(dp7828
g6
(dp7829
I0
I1
sI1
I1
sI-1
I-1
sssssI-1
(dp7830
g12
(dp7831
I0
(dp7832
g9
(dp7833
I0
I1
sI1
I1
sI-1
I1
sssI1
(dp7834
g27
(dp7835
I1
I-1
sI-1
I1
sssI-1
(dp7836
g6
(dp7837
I0
I1
sI1
I1
sI-1
I-1
sssssssI1
(dp7838
g12
(dp7839
I0
(dp7840
g9
(dp7841
I0
(dp7842
g27
(dp7843
I1
I1
sI-1
I1
sssI1
(dp7844
g39
(dp7845
I1
I1
sI-1
I1
sssI-1
(dp7846
g39
(dp7847
I1
I1
sI-1
I-1
sssssI1
(dp7848
g3
(dp7849
I0
I-1
sI1
(dp7850
g95
(dp7851
I1
I1
sI-1
I1
sssI-1
(dp7852
g6
(dp7853
I0
I-1
sI1
I1
sI-1
I-1
sssssI-1
(dp7854
g6
(dp7855
I0
I1
sI1
I1
sI-1
I-1
sssssI-1
(dp7856
g3
(dp7857
I0
(dp7858
g12
(dp7859
I0
I-1
sI1
(dp7860
g9
(dp7861
I0
I1
sI1
I-1
sssI-1
I-1
sssI1
(dp7862
g12
(dp7863
I0
(dp7864
g27
(dp7865
I1
I1
sI-1
I1
sssI1
(dp7866
g6
(dp7867
I0
I1
sI1
I1
sI-1
I-1
sssI-1
(dp7868
g6
(dp7869
I0
I1
sI1
I1
sI-1
I-1
sssssI-1
(dp7870
g220
(dp7871
I1
(dp7872
g66
(dp7873
I1
I-1
sI-1
I-1
sssI-1
(dp7874
g27
(dp7875
I1
I-1
sI-1
I-1
sssssssssI-1
(dp7876
g3
(dp7877
I0
I-1
sI1
(dp7878
g20
(dp7879
I0
(dp7880
g12
(dp7881
I0
(dp7882
g54
(dp7883
I1
I1
sI-1
I-1
sssI1
I1
sI-1
(dp7884
g6
(dp7885
I0
I1
sI1
I1
sI-1
I-1
sssssI1
(dp7886
g6
(dp7887
I0
(dp7888
g27
(dp7889
I1
I1
sI-1
I1
sssI1
(dp7890
g66
(dp7891
I1
I1
sI-1
I1
sssI-1
(dp7892
g1158
(dp7893
I1
I-1
sI-1
I1
sssssI-1
(dp7894
g6
(dp7895
I0
(dp7896
g66
(dp7897
I1
I1
sI-1
I1
sssI1
(dp7898
g66
(dp7899
I1
I1
sI-1
I1
sssI-1
(dp7900
g34
(dp7901
I1
I1
sI-1
I-1
sssssssI-1
(dp7902
g20
(dp7903
I0
(dp7904
g6
(dp7905
I0
(dp7906
g27
(dp7907
I1
I-1
sI-1
I-1
sssI1
(dp7908
g63
(dp7909
I1
I-1
sI-1
I-1
sssI-1
I-1
sssI1
(dp7910
g6
(dp7911
I0
(dp7912
g9
(dp7913
I0
I1
sI1
I-1
sssI1
I1
sI-1
I-1
sssI-1
(dp7914
g12
(dp7915
I0
(dp7916
g63
(dp7917
I1
I-1
sI-1
I-1
sssI1
(dp7918
g9
(dp7919
I0
I-1
sI1
I-1
sI-1
I-1
sssI-1
I-1
ssssssssa(dp7920
g2
F1.209957255521144
sg15
(dp7921
I0
(dp7922
g3
(dp7923
I0
I-1
sI1
(dp7924
g20
(dp7925
I0
(dp7926
g12
(dp7927
I0
(dp7928
g155
(dp7929
I1
I1
sI-1
I1
sssI1
(dp7930
g9
(dp7931
I0
I1
sI1
I1
sI-1
I1
sssI-1
(dp7932
g9
(dp7933
I0
I1
sI1
I1
sssssI1
(dp7934
g27
(dp7935
I1
(dp7936
g244
(dp7937
I1
I-1
sI-1
I1
sssI-1
(dp7938
g6
(dp7939
I0
I1
sI1
I1
sI-1
I-1
sssssI-1
(dp7940
g9
(dp7941
I0
(dp7942
g12
(dp7943
I0
I-1
sI1
I1
sI-1
I1
sssI1
(dp7944
g12
(dp7945
I0
I-1
sI1
I1
sI-1
I1
sssI-1
I1
sssssI-1
(dp7946
g20
(dp7947
I0
(dp7948
g6
(dp7949
I0
(dp7950
g9
(dp7951
I0
I-1
sI1
I1
sI-1
I1
sssI1
I1
sI-1
I-1
sssI1
(dp7952
g257
(dp7953
I1
(dp7954
g66
(dp7955
I1
I-1
sI-1
I-1
sssI-1
(dp7956
g6
(dp7957
I0
I1
sI-1
I-1
sssssI-1
(dp7958
g39
(dp7959
I1
(dp7960
g12
(dp7961
I0
I-1
sI1
I-1
sI-1
I-1
sssI-1
(dp7962
g12
(dp7963
I0
I-1
sI1
I-1
sI-1
I-1
sssssssssI1
(dp7964
g20
(dp7965
I0
(dp7966
g3
(dp7967
I0
(dp7968
g9
(dp7969
I0
I-1
sI1
I-1
sI-1
(dp7970
g39
(dp7971
I1
I1
sI-1
I-1
sssssI1
(dp7972
g12
(dp7973
I0
(dp7974
g66
(dp7975
I1
I1
sI-1
I1
sssI1
(dp7976
g9
(dp7977
I0
I1
sI1
I1
sI-1
I1
sssI-1
(dp7978
g6
(dp7979
I0
I1
sI1
I1
sI-1
I-1
sssssI-1
(dp7980
g12
(dp7981
I0
(dp7982
g9
(dp7983
I0
I1
sI1
I1
sI-1
I1
sssI1
(dp7984
g27
(dp7985
I1
I-1
sI-1
I1
sssI-1
(dp7986
g6
(dp7987
I0
I1
sI1
I1
sI-1
I-1
sssssssI1
(dp7988
g12
(dp7989
I0
(dp7990
g9
(dp7991
I0
(dp7992
g27
(dp7993
I1
I1
sI-1
I1
sssI1
(dp7994
g39
(dp7995
I1
I1
sI-1
I1
sssI-1
(dp7996
g244
(dp7997
I1
I-1
sI-1
I1
sssssI1
(dp7998
g3
(dp7999
I0
I-1
sI1
(dp8000
g95
(dp8001
I1
I1
sI-1
I1
sssI-1
(dp8002
g9
(dp8003
I0
I-1
sI1
I1
sssssI-1
(dp8004
g6
(dp8005
I0
I1
sI1
I1
sI-1
I-1
sssssI-1
(dp8006
g3
(dp8007
I0
(dp8008
g12
(dp8009
I0
I-1
sI1
(dp8010
g9
(dp8011
I0
I1
sI1
I-1
sssI-1
I-1
sssI1
(dp8012
g12
(dp8013
I0
(dp8014
g27
(dp8015
I1
I1
sI-1
I1
sssI1
(dp8016
g6
(dp8017
I0
I1
sI1
I1
sI-1
I-1
sssI-1
(dp8018
g6
(dp8019
I0
I1
sI1
I1
sI-1
I-1
sssssI-1
(dp8020
g220
(dp8021
I1
(dp8022
g66
(dp8023
I1
I-1
sI-1
I-1
sssI-1
(dp8024
g27
(dp8025
I1
I-1
sI-1
I-1
sssssssssI-1
(dp8026
g3
(dp8027
I0
I-1
sI1
(dp8028
g20
(dp8029
I0
(dp8030
g12
(dp8031
I0
(dp8032
g54
(dp8033
I1
I1
sI-1
I-1
sssI1
I1
sI-1
(dp8034
g6
(dp8035
I0
I1
sI1
I1
sI-1
I-1
sssssI1
(dp8036
g6
(dp8037
I0
(dp8038
g12
(dp8039
I0
I-1
sI1
I1
sI-1
I1
sssI1
(dp8040
g66
(dp8041
I1
I1
sI-1
I1
sssI-1
(dp8042
g39
(dp8043
I1
I1
sI-1
I-1
sssssI-1
(dp8044
g6
(dp8045
I0
(dp8046
g66
(dp8047
I1
I1
sI-1
I1
sssI1
(dp8048
g66
(dp8049
I1
I1
sI-1
I1
sssI-1
(dp8050
g34
(dp8051
I1
I1
sI-1
I-1
sssssssI-1
(dp8052
g20
(dp8053
I0
(dp8054
g6
(dp8055
I0
(dp8056
g27
(dp8057
I1
I-1
sI-1
I-1
sssI1
(dp8058
g63
(dp8059
I1
I-1
sI-1
I-1
sssI-1
I-1
sssI1
(dp8060
g6
(dp8061
I0
(dp8062
g9
(dp8063
I0
I1
sI1
I-1
sssI1
I1
sI-1
I-1
sssI-1
(dp8064
g12
(dp8065
I0
(dp8066
g63
(dp8067
I1
I-1
sI-1
I-1
sssI1
(dp8068
g9
(dp8069
I0
I-1
sI1
I-1
sI-1
I-1
sssI-1
I-1
ssssssssa(dp8070
g2
F1.2419119063245843
sg15
(dp8071
I0
(dp8072
g3
(dp8073
I0
I-1
sI1
(dp8074
g20
(dp8075
I0
(dp8076
g12
(dp8077
I0
(dp8078
g155
(dp8079
I1
I1
sI-1
I1
sssI1
(dp8080
g9
(dp8081
I0
I1
sI1
I1
sI-1
I1
sssI-1
(dp8082
g9
(dp8083
I0
I1
sI1
I1
sssssI1
(dp8084
g27
(dp8085
I1
(dp8086
g244
(dp8087
I1
I-1
sI-1
I1
sssI-1
(dp8088
g12
(dp8089
I0
I-1
sI1
I1
sI-1
I1
sssssI-1
(dp8090
g9
(dp8091
I0
(dp8092
g12
(dp8093
I0
I-1
sI1
I1
sI-1
I1
sssI1
(dp8094
g12
(dp8095
I0
I-1
sI1
I1
sI-1
I1
sssI-1
I1
sssssI-1
(dp8096
g20
(dp8097
I0
(dp8098
g6
(dp8099
I0
(dp8100
g9
(dp8101
I0
I-1
sI1
I1
sI-1
I1
sssI1
I1
sI-1
I-1
sssI1
(dp8102
g257
(dp8103
I1
(dp8104
g6
(dp8105
I0
I1
sI1
I1
sI-1
I-1
sssI-1
(dp8106
g5418
(dp8107
I1
I-1
sI-1
I-1
sssssI-1
(dp8108
g39
(dp8109
I1
(dp8110
g12
(dp8111
I0
I-1
sI1
I-1
sI-1
I-1
sssI-1
(dp8112
g12
(dp8113
I0
I-1
sI1
I-1
sI-1
I-1
sssssssssI1
(dp8114
g20
(dp8115
I0
(dp8116
g3
(dp8117
I0
(dp8118
g9
(dp8119
I0
I-1
sI1
I-1
sI-1
(dp8120
g39
(dp8121
I1
I1
sI-1
I-1
sssssI1
(dp8122
g12
(dp8123
I0
(dp8124
g66
(dp8125
I1
I1
sI-1
I1
sssI1
(dp8126
g9
(dp8127
I0
I1
sI1
I1
sI-1
I1
sssI-1
(dp8128
g6
(dp8129
I0
I1
sI1
I1
sI-1
I-1
sssssI-1
(dp8130
g12
(dp8131
I0
(dp8132
g9
(dp8133
I0
I1
sI1
I1
sI-1
I1
sssI1
(dp8134
g66
(dp8135
I1
I-1
sI-1
I1
sssI-1
(dp8136
g6
(dp8137
I0
I1
sI1
I1
sI-1
I-1
sssssssI1
(dp8138
g12
(dp8139
I0
(dp8140
g9
(dp8141
I0
(dp8142
g27
(dp8143
I1
I1
sI-1
I1
sssI1
(dp8144
g39
(dp8145
I1
I1
sI-1
I1
sssI-1
(dp8146
g244
(dp8147
I1
I-1
sI-1
I1
sssssI1
(dp8148
g3
(dp8149
I0
I-1
sI1
(dp8150
g95
(dp8151
I1
I1
sI-1
I1
sssI-1
(dp8152
g1719
(dp8153
I0
I1
sI1
I-1
sssssI-1
(dp8154
g6
(dp8155
I0
I1
sI1
I1
sI-1
I-1
sssssI-1
(dp8156
g3
(dp8157
I0
(dp8158
g12
(dp8159
I0
I-1
sI1
(dp8160
g9
(dp8161
I0
I1
sI1
I-1
sssI-1
I-1
sssI1
(dp8162
g12
(dp8163
I0
(dp8164
g27
(dp8165
I1
I1
sI-1
I1
sssI1
(dp8166
g6
(dp8167
I0
I1
sI1
I1
sI-1
I-1
sssI-1
(dp8168
g6
(dp8169
I0
I1
sI1
I1
sI-1
I-1
sssssI-1
(dp8170
g220
(dp8171
I1
(dp8172
g66
(dp8173
I1
I-1
sI-1
I-1
sssI-1
(dp8174
g27
(dp8175
I1
I-1
sI-1
I-1
sssssssssI-1
(dp8176
g3
(dp8177
I0
I-1
sI1
(dp8178
g20
(dp8179
I0
(dp8180
g12
(dp8181
I0
(dp8182
g54
(dp8183
I1
I1
sI-1
I-1
sssI1
I1
sI-1
(dp8184
g6
(dp8185
I0
I1
sI1
I1
sI-1
I-1
sssssI1
(dp8186
g6
(dp8187
I0
(dp8188
g12
(dp8189
I0
I-1
sI1
I1
sI-1
I1
sssI1
(dp8190
g66
(dp8191
I1
I1
sI-1
I1
sssI-1
(dp8192
g548
(dp8193
I1
I-1
sI-1
I1
sssssI-1
(dp8194
g6
(dp8195
I0
(dp8196
g66
(dp8197
I1
I1
sI-1
I1
sssI1
(dp8198
g66
(dp8199
I1
I1
sI-1
I1
sssI-1
(dp8200
g34
(dp8201
I1
I1
sI-1
I-1
sssssssI-1
(dp8202
g20
(dp8203
I0
(dp8204
g6
(dp8205
I0
(dp8206
g27
(dp8207
I1
I-1
sI-1
I-1
sssI1
(dp8208
g63
(dp8209
I1
I-1
sI-1
I-1
sssI-1
I-1
sssI1
(dp8210
g6
(dp8211
I0
(dp8212
g9
(dp8213
I0
I1
sI1
I-1
sssI1
I1
sI-1
I-1
sssI-1
(dp8214
g12
(dp8215
I0
(dp8216
g63
(dp8217
I1
I-1
sI-1
I-1
sssI1
(dp8218
g9
(dp8219
I0
I-1
sI1
I-1
sI-1
I-1
sssI-1
I-1
ssssssssa(dp8220
g2
F1.2189133203633156
sg15
(dp8221
I0
(dp8222
g3
(dp8223
I0
I-1
sI1
(dp8224
g20
(dp8225
I0
(dp8226
g12
(dp8227
I0
(dp8228
g155
(dp8229
I1
I1
sI-1
I1
sssI1
(dp8230
g9
(dp8231
I0
I1
sI1
I1
sI-1
I1
sssI-1
(dp8232
g9
(dp8233
I0
I1
sI1
I1
sssssI1
(dp8234
g6
(dp8235
I0
(dp8236
g27
(dp8237
I1
I1
sI-1
I1
sssI1
I1
sI-1
I-1
sssI-1
(dp8238
g9
(dp8239
I0
(dp8240
g12
(dp8241
I0
I-1
sI1
I1
sI-1
I1
sssI1
(dp8242
g12
(dp8243
I0
I-1
sI1
I1
sI-1
I1
sssI-1
I1
sssssI-1
(dp8244
g20
(dp8245
I0
(dp8246
g6
(dp8247
I0
(dp8248
g39
(dp8249
I1
I1
sI-1
I-1
sssI1
I1
sI-1
I-1
sssI1
(dp8250
g257
(dp8251
I1
(dp8252
g66
(dp8253
I1
I-1
sI-1
I-1
sssI-1
(dp8254
g6
(dp8255
I0
I1
sI-1
I-1
sssssI-1
(dp8256
g39
(dp8257
I1
(dp8258
g12
(dp8259
I0
I-1
sI1
I-1
sI-1
I-1
sssI-1
(dp8260
g12
(dp8261
I0
I-1
sI1
I-1
sI-1
I-1
sssssssssI1
(dp8262
g20
(dp8263
I0
(dp8264
g3
(dp8265
I0
(dp8266
g9
(dp8267
I0
I-1
sI1
I-1
sI-1
(dp8268
g39
(dp8269
I1
I1
sI-1
I-1
sssssI1
(dp8270
g12
(dp8271
I0
(dp8272
g66
(dp8273
I1
I1
sI-1
I1
sssI1
(dp8274
g9
(dp8275
I0
I1
sI1
I1
sI-1
I1
sssI-1
(dp8276
g6
(dp8277
I0
I1
sI1
I1
sI-1
I-1
sssssI-1
(dp8278
g12
(dp8279
I0
(dp8280
g9
(dp8281
I0
I1
sI1
I1
sI-1
I1
sssI1
(dp8282
g27
(dp8283
I1
I-1
sI-1
I1
sssI-1
(dp8284
g6
(dp8285
I0
I1
sI1
I1
sI-1
I-1
sssssssI1
(dp8286
g12
(dp8287
I0
(dp8288
g9
(dp8289
I0
(dp8290
g27
(dp8291
I1
I1
sI-1
I1
sssI1
(dp8292
g39
(dp8293
I1
I1
sI-1
I1
sssI-1
(dp8294
g39
(dp8295
I1
I1
sI-1
I-1
sssssI1
(dp8296
g3
(dp8297
I0
I-1
sI1
(dp8298
g95
(dp8299
I1
I1
sI-1
I1
sssI-1
(dp8300
g6
(dp8301
I0
I-1
sI1
I1
sI-1
I-1
sssssI-1
(dp8302
g6
(dp8303
I0
I1
sI1
I1
sI-1
I-1
sssssI-1
(dp8304
g3
(dp8305
I0
(dp8306
g12
(dp8307
I0
I-1
sI1
(dp8308
g9
(dp8309
I0
I1
sI1
I-1
sssI-1
I-1
sssI1
(dp8310
g12
(dp8311
I0
(dp8312
g27
(dp8313
I1
I1
sI-1
I1
sssI1
(dp8314
g6
(dp8315
I0
I1
sI1
I1
sI-1
I-1
sssI-1
(dp8316
g6
(dp8317
I0
I1
sI1
I1
sI-1
I-1
sssssI-1
(dp8318
g220
(dp8319
I1
(dp8320
g66
(dp8321
I1
I-1
sI-1
I-1
sssI-1
(dp8322
g27
(dp8323
I1
I-1
sI-1
I-1
sssssssssI-1
(dp8324
g3
(dp8325
I0
I-1
sI1
(dp8326
g20
(dp8327
I0
(dp8328
g12
(dp8329
I0
(dp8330
g54
(dp8331
I1
I1
sI-1
I-1
sssI1
I1
sI-1
(dp8332
g6
(dp8333
I0
I1
sI1
I1
sI-1
I-1
sssssI1
(dp8334
g6
(dp8335
I0
(dp8336
g27
(dp8337
I1
I1
sI-1
I1
sssI1
(dp8338
g66
(dp8339
I1
I1
sI-1
I1
sssI-1
(dp8340
g1158
(dp8341
I1
I-1
sI-1
I1
sssssI-1
(dp8342
g6
(dp8343
I0
(dp8344
g66
(dp8345
I1
I1
sI-1
I1
sssI1
(dp8346
g66
(dp8347
I1
I1
sI-1
I1
sssI-1
(dp8348
g34
(dp8349
I1
I1
sI-1
I-1
sssssssI-1
(dp8350
g20
(dp8351
I0
(dp8352
g6
(dp8353
I0
(dp8354
g27
(dp8355
I1
I-1
sI-1
I-1
sssI1
(dp8356
g63
(dp8357
I1
I-1
sI-1
I-1
sssI-1
I-1
sssI1
(dp8358
g6
(dp8359
I0
(dp8360
g9
(dp8361
I0
I1
sI1
I-1
sssI1
I1
sI-1
I-1
sssI-1
(dp8362
g12
(dp8363
I0
(dp8364
g63
(dp8365
I1
I-1
sI-1
I-1
sssI1
(dp8366
g9
(dp8367
I0
I-1
sI1
I-1
sI-1
I-1
sssI-1
I-1
ssssssssa(dp8368
g2
F1.2489893656776765
sg15
(dp8369
I0
(dp8370
g3
(dp8371
I0
I-1
sI1
(dp8372
g20
(dp8373
I0
(dp8374
g12
(dp8375
I0
(dp8376
g155
(dp8377
I1
I1
sI-1
I1
sssI1
(dp8378
g9
(dp8379
I0
I1
sI1
I1
sI-1
I1
sssI-1
(dp8380
g9
(dp8381
I0
I1
sI1
I1
sssssI1
(dp8382
g27
(dp8383
I1
(dp8384
g244
(dp8385
I1
I-1
sI-1
I1
sssI-1
(dp8386
g12
(dp8387
I0
I-1
sI1
I1
sI-1
I1
sssssI-1
(dp8388
g9
(dp8389
I0
(dp8390
g12
(dp8391
I0
I-1
sI1
I1
sI-1
I1
sssI1
(dp8392
g12
(dp8393
I0
I-1
sI1
I1
sI-1
I1
sssI-1
I1
sssssI-1
(dp8394
g20
(dp8395
I0
(dp8396
g6
(dp8397
I0
(dp8398
g9
(dp8399
I0
I-1
sI1
I1
sI-1
I1
sssI1
I1
sI-1
I-1
sssI1
(dp8400
g257
(dp8401
I1
(dp8402
g6
(dp8403
I0
I1
sI1
I1
sI-1
I-1
sssI-1
(dp8404
g5418
(dp8405
I1
I-1
sI-1
I-1
sssssI-1
(dp8406
g39
(dp8407
I1
(dp8408
g12
(dp8409
I0
I-1
sI1
I-1
sI-1
I-1
sssI-1
(dp8410
g12
(dp8411
I0
I-1
sI1
I-1
sI-1
I-1
sssssssssI1
(dp8412
g20
(dp8413
I0
(dp8414
g3
(dp8415
I0
(dp8416
g9
(dp8417
I0
I-1
sI1
I-1
sI-1
(dp8418
g39
(dp8419
I1
I1
sI-1
I-1
sssssI1
(dp8420
g12
(dp8421
I0
(dp8422
g66
(dp8423
I1
I1
sI-1
I1
sssI1
(dp8424
g9
(dp8425
I0
I1
sI1
I1
sI-1
I1
sssI-1
(dp8426
g6
(dp8427
I0
I1
sI1
I1
sI-1
I-1
sssssI-1
(dp8428
g12
(dp8429
I0
(dp8430
g9
(dp8431
I0
I1
sI1
I1
sI-1
I1
sssI1
(dp8432
g66
(dp8433
I1
I-1
sI-1
I1
sssI-1
(dp8434
g6
(dp8435
I0
I1
sI1
I1
sI-1
I-1
sssssssI1
(dp8436
g12
(dp8437
I0
(dp8438
g9
(dp8439
I0
(dp8440
g27
(dp8441
I1
I1
sI-1
I1
sssI1
(dp8442
g39
(dp8443
I1
I1
sI-1
I1
sssI-1
(dp8444
g244
(dp8445
I1
I-1
sI-1
I1
sssssI1
(dp8446
g3
(dp8447
I0
I-1
sI1
(dp8448
g95
(dp8449
I1
I1
sI-1
I1
sssI-1
(dp8450
g6
(dp8451
I0
I-1
sI1
I1
sI-1
I-1
sssssI-1
(dp8452
g6
(dp8453
I0
I1
sI1
I1
sI-1
I-1
sssssI-1
(dp8454
g3
(dp8455
I0
(dp8456
g12
(dp8457
I0
I-1
sI1
(dp8458
g9
(dp8459
I0
I1
sI1
I-1
sssI-1
I-1
sssI1
(dp8460
g12
(dp8461
I0
(dp8462
g27
(dp8463
I1
I1
sI-1
I1
sssI1
(dp8464
g6
(dp8465
I0
I1
sI1
I1
sI-1
I-1
sssI-1
(dp8466
g6
(dp8467
I0
I1
sI1
I1
sI-1
I-1
sssssI-1
(dp8468
g220
(dp8469
I1
(dp8470
g66
(dp8471
I1
I-1
sI-1
I-1
sssI-1
(dp8472
g27
(dp8473
I1
I-1
sI-1
I-1
sssssssssI-1
(dp8474
g3
(dp8475
I0
I-1
sI1
(dp8476
g20
(dp8477
I0
(dp8478
g12
(dp8479
I0
(dp8480
g54
(dp8481
I1
I1
sI-1
I-1
sssI1
I1
sI-1
(dp8482
g6
(dp8483
I0
I1
sI1
I1
sI-1
I-1
sssssI1
(dp8484
g6
(dp8485
I0
(dp8486
g12
(dp8487
I0
I-1
sI1
I1
sI-1
I1
sssI1
(dp8488
g66
(dp8489
I1
I1
sI-1
I1
sssI-1
(dp8490
g39
(dp8491
I1
I1
sI-1
I-1
sssssI-1
(dp8492
g6
(dp8493
I0
(dp8494
g66
(dp8495
I1
I1
sI-1
I1
sssI1
(dp8496
g66
(dp8497
I1
I1
sI-1
I1
sssI-1
(dp8498
g34
(dp8499
I1
I1
sI-1
I-1
sssssssI-1
(dp8500
g20
(dp8501
I0
(dp8502
g6
(dp8503
I0
(dp8504
g27
(dp8505
I1
I-1
sI-1
I-1
sssI1
(dp8506
g63
(dp8507
I1
I-1
sI-1
I-1
sssI-1
I-1
sssI1
(dp8508
g6
(dp8509
I0
(dp8510
g9
(dp8511
I0
I1
sI1
I-1
sssI1
I1
sI-1
I-1
sssI-1
(dp8512
g12
(dp8513
I0
(dp8514
g63
(dp8515
I1
I-1
sI-1
I-1
sssI1
(dp8516
g9
(dp8517
I0
I-1
sI1
I-1
sI-1
I-1
sssI-1
I-1
ssssssssa(dp8518
g2
F1.2121837034201737
sg15
(dp8519
I0
(dp8520
g3
(dp8521
I0
I-1
sI1
(dp8522
g20
(dp8523
I0
(dp8524
g12
(dp8525
I0
(dp8526
g155
(dp8527
I1
I1
sI-1
I1
sssI1
(dp8528
g9
(dp8529
I0
I1
sI1
I1
sI-1
I1
sssI-1
(dp8530
g9
(dp8531
I0
I1
sI1
I1
sssssI1
(dp8532
g6
(dp8533
I0
(dp8534
g27
(dp8535
I1
I1
sI-1
I1
sssI1
I1
sI-1
I-1
sssI-1
(dp8536
g9
(dp8537
I0
(dp8538
g12
(dp8539
I0
I-1
sI1
I1
sI-1
I1
sssI1
(dp8540
g12
(dp8541
I0
I-1
sI1
I1
sI-1
I1
sssI-1
I1
sssssI-1
(dp8542
g20
(dp8543
I0
(dp8544
g6
(dp8545
I0
(dp8546
g39
(dp8547
I1
I1
sI-1
I-1
sssI1
I1
sI-1
I-1
sssI1
(dp8548
g257
(dp8549
I1
(dp8550
g66
(dp8551
I1
I-1
sI-1
I-1
sssI-1
(dp8552
g6
(dp8553
I0
I1
sI-1
I-1
sssssI-1
(dp8554
g39
(dp8555
I1
(dp8556
g12
(dp8557
I0
I-1
sI1
I-1
sI-1
I-1
sssI-1
(dp8558
g12
(dp8559
I0
I-1
sI1
I-1
sI-1
I-1
sssssssssI1
(dp8560
g20
(dp8561
I0
(dp8562
g3
(dp8563
I0
(dp8564
g9
(dp8565
I0
I-1
sI1
I-1
sI-1
(dp8566
g39
(dp8567
I1
I1
sI-1
I-1
sssssI1
(dp8568
g12
(dp8569
I0
(dp8570
g66
(dp8571
I1
I1
sI-1
I1
sssI1
(dp8572
g9
(dp8573
I0
I1
sI1
I1
sI-1
I1
sssI-1
(dp8574
g6
(dp8575
I0
I1
sI1
I1
sI-1
I-1
sssssI-1
(dp8576
g12
(dp8577
I0
(dp8578
g9
(dp8579
I0
I1
sI1
I1
sI-1
I1
sssI1
(dp8580
g27
(dp8581
I1
I-1
sI-1
I1
sssI-1
(dp8582
g6
(dp8583
I0
I1
sI1
I1
sI-1
I-1
sssssssI1
(dp8584
g12
(dp8585
I0
(dp8586
g9
(dp8587
I0
(dp8588
g27
(dp8589
I1
I1
sI-1
I1
sssI1
(dp8590
g39
(dp8591
I1
I1
sI-1
I1
sssI-1
(dp8592
g39
(dp8593
I1
I1
sI-1
I-1
sssssI1
(dp8594
g3
(dp8595
I0
I-1
sI1
(dp8596
g95
(dp8597
I1
I1
sI-1
I1
sssI-1
(dp8598
g9
(dp8599
I0
I-1
sI1
I1
sssssI-1
(dp8600
g6
(dp8601
I0
I1
sI1
I1
sI-1
I-1
sssssI-1
(dp8602
g3
(dp8603
I0
(dp8604
g12
(dp8605
I0
I-1
sI1
(dp8606
g9
(dp8607
I0
I1
sI1
I-1
sssI-1
I-1
sssI1
(dp8608
g12
(dp8609
I0
(dp8610
g27
(dp8611
I1
I1
sI-1
I1
sssI1
(dp8612
g6
(dp8613
I0
I1
sI1
I1
sI-1
I-1
sssI-1
(dp8614
g6
(dp8615
I0
I1
sI1
I1
sI-1
I-1
sssssI-1
(dp8616
g220
(dp8617
I1
(dp8618
g66
(dp8619
I1
I-1
sI-1
I-1
sssI-1
(dp8620
g27
(dp8621
I1
I-1
sI-1
I-1
sssssssssI-1
(dp8622
g3
(dp8623
I0
I-1
sI1
(dp8624
g20
(dp8625
I0
(dp8626
g12
(dp8627
I0
(dp8628
g54
(dp8629
I1
I1
sI-1
I-1
sssI1
I1
sI-1
(dp8630
g6
(dp8631
I0
I1
sI1
I1
sI-1
I-1
sssssI1
(dp8632
g6
(dp8633
I0
(dp8634
g27
(dp8635
I1
I1
sI-1
I1
sssI1
(dp8636
g66
(dp8637
I1
I1
sI-1
I1
sssI-1
(dp8638
g548
(dp8639
I1
I-1
sI-1
I1
sssssI-1
(dp8640
g6
(dp8641
I0
(dp8642
g66
(dp8643
I1
I1
sI-1
I1
sssI1
(dp8644
g66
(dp8645
I1
I1
sI-1
I1
sssI-1
(dp8646
g34
(dp8647
I1
I1
sI-1
I-1
sssssssI-1
(dp8648
g20
(dp8649
I0
(dp8650
g6
(dp8651
I0
(dp8652
g27
(dp8653
I1
I-1
sI-1
I-1
sssI1
(dp8654
g63
(dp8655
I1
I-1
sI-1
I-1
sssI-1
I-1
sssI1
(dp8656
g6
(dp8657
I0
(dp8658
g9
(dp8659
I0
I1
sI1
I-1
sssI1
I1
sI-1
I-1
sssI-1
(dp8660
g12
(dp8661
I0
(dp8662
g63
(dp8663
I1
I-1
sI-1
I-1
sssI1
(dp8664
g9
(dp8665
I0
I-1
sI1
I-1
sI-1
I-1
sssI-1
I-1
ssssssssa(dp8666
g2
F1.2442616451290944
sg15
(dp8667
I0
(dp8668
g3
(dp8669
I0
I-1
sI1
(dp8670
g20
(dp8671
I0
(dp8672
g12
(dp8673
I0
(dp8674
g155
(dp8675
I1
I1
sI-1
I1
sssI1
(dp8676
g9
(dp8677
I0
I1
sI1
I1
sI-1
I1
sssI-1
(dp8678
g9
(dp8679
I0
I1
sI1
I1
sssssI1
(dp8680
g27
(dp8681
I1
(dp8682
g6
(dp8683
I0
I1
sI1
I1
sI-1
I-1
sssI-1
(dp8684
g12
(dp8685
I0
I-1
sI1
I1
sI-1
I1
sssssI-1
(dp8686
g9
(dp8687
I0
(dp8688
g12
(dp8689
I0
I-1
sI1
I1
sI-1
I1
sssI1
(dp8690
g12
(dp8691
I0
I-1
sI1
I1
sI-1
I1
sssI-1
I1
sssssI-1
(dp8692
g20
(dp8693
I0
(dp8694
g6
(dp8695
I0
(dp8696
g39
(dp8697
I1
I1
sI-1
I-1
sssI1
I1
sI-1
I-1
sssI1
(dp8698
g257
(dp8699
I1
(dp8700
g6
(dp8701
I0
I1
sI1
I1
sI-1
I-1
sssI-1
(dp8702
g5418
(dp8703
I1
I-1
sI-1
I-1
sssssI-1
(dp8704
g39
(dp8705
I1
(dp8706
g12
(dp8707
I0
I-1
sI1
I-1
sI-1
I-1
sssI-1
(dp8708
g12
(dp8709
I0
I-1
sI1
I-1
sI-1
I-1
sssssssssI1
(dp8710
g20
(dp8711
I0
(dp8712
g3
(dp8713
I0
(dp8714
g9
(dp8715
I0
I-1
sI1
I-1
sI-1
(dp8716
g39
(dp8717
I1
I1
sI-1
I-1
sssssI1
(dp8718
g12
(dp8719
I0
(dp8720
g66
(dp8721
I1
I1
sI-1
I1
sssI1
(dp8722
g9
(dp8723
I0
I1
sI1
I1
sI-1
I1
sssI-1
(dp8724
g6
(dp8725
I0
I1
sI1
I1
sI-1
I-1
sssssI-1
(dp8726
g12
(dp8727
I0
(dp8728
g9
(dp8729
I0
I1
sI1
I1
sI-1
I1
sssI1
(dp8730
g66
(dp8731
I1
I-1
sI-1
I1
sssI-1
(dp8732
g6
(dp8733
I0
I1
sI1
I1
sI-1
I-1
sssssssI1
(dp8734
g12
(dp8735
I0
(dp8736
g9
(dp8737
I0
(dp8738
g27
(dp8739
I1
I1
sI-1
I1
sssI1
(dp8740
g39
(dp8741
I1
I1
sI-1
I1
sssI-1
(dp8742
g39
(dp8743
I1
I1
sI-1
I-1
sssssI1
(dp8744
g3
(dp8745
I0
I-1
sI1
(dp8746
g95
(dp8747
I1
I1
sI-1
I1
sssI-1
(dp8748
g1719
(dp8749
I0
I1
sI1
I-1
sssssI-1
(dp8750
g6
(dp8751
I0
I1
sI1
I1
sI-1
I-1
sssssI-1
(dp8752
g3
(dp8753
I0
(dp8754
g12
(dp8755
I0
I-1
sI1
(dp8756
g9
(dp8757
I0
I1
sI1
I-1
sssI-1
I-1
sssI1
(dp8758
g12
(dp8759
I0
(dp8760
g27
(dp8761
I1
I1
sI-1
I1
sssI1
(dp8762
g6
(dp8763
I0
I1
sI1
I1
sI-1
I-1
sssI-1
(dp8764
g6
(dp8765
I0
I1
sI1
I1
sI-1
I-1
sssssI-1
(dp8766
g220
(dp8767
I1
(dp8768
g66
(dp8769
I1
I-1
sI-1
I-1
sssI-1
(dp8770
g27
(dp8771
I1
I-1
sI-1
I-1
sssssssssI-1
(dp8772
g3
(dp8773
I0
I-1
sI1
(dp8774
g20
(dp8775
I0
(dp8776
g12
(dp8777
I0
(dp8778
g54
(dp8779
I1
I1
sI-1
I-1
sssI1
I1
sI-1
(dp8780
g6
(dp8781
I0
I1
sI1
I1
sI-1
I-1
sssssI1
(dp8782
g6
(dp8783
I0
(dp8784
g27
(dp8785
I1
I1
sI-1
I1
sssI1
(dp8786
g66
(dp8787
I1
I1
sI-1
I1
sssI-1
(dp8788
g1158
(dp8789
I1
I-1
sI-1
I1
sssssI-1
(dp8790
g6
(dp8791
I0
(dp8792
g66
(dp8793
I1
I1
sI-1
I1
sssI1
(dp8794
g66
(dp8795
I1
I1
sI-1
I1
sssI-1
(dp8796
g34
(dp8797
I1
I1
sI-1
I-1
sssssssI-1
(dp8798
g20
(dp8799
I0
(dp8800
g6
(dp8801
I0
(dp8802
g27
(dp8803
I1
I-1
sI-1
I-1
sssI1
(dp8804
g63
(dp8805
I1
I-1
sI-1
I-1
sssI-1
I-1
sssI1
(dp8806
g6
(dp8807
I0
(dp8808
g9
(dp8809
I0
I1
sI1
I-1
sssI1
I1
sI-1
I-1
sssI-1
(dp8810
g12
(dp8811
I0
(dp8812
g63
(dp8813
I1
I-1
sI-1
I-1
sssI1
(dp8814
g9
(dp8815
I0
I-1
sI1
I-1
sI-1
I-1
sssI-1
I-1
ssssssssa(dp8816
g2
F1.2166616660982803
sg15
(dp8817
I0
(dp8818
g3
(dp8819
I0
I-1
sI1
(dp8820
g20
(dp8821
I0
(dp8822
g12
(dp8823
I0
(dp8824
g155
(dp8825
I1
I1
sI-1
I1
sssI1
(dp8826
g9
(dp8827
I0
I1
sI1
I1
sI-1
I1
sssI-1
(dp8828
g9
(dp8829
I0
I1
sI1
I1
sssssI1
(dp8830
g27
(dp8831
I1
(dp8832
g244
(dp8833
I1
I-1
sI-1
I1
sssI-1
(dp8834
g6
(dp8835
I0
I1
sI1
I1
sI-1
I-1
sssssI-1
(dp8836
g9
(dp8837
I0
(dp8838
g12
(dp8839
I0
I-1
sI1
I1
sI-1
I1
sssI1
(dp8840
g12
(dp8841
I0
I-1
sI1
I1
sI-1
I1
sssI-1
I1
sssssI-1
(dp8842
g20
(dp8843
I0
(dp8844
g6
(dp8845
I0
(dp8846
g9
(dp8847
I0
I-1
sI1
I1
sI-1
I1
sssI1
I1
sI-1
I-1
sssI1
(dp8848
g257
(dp8849
I1
(dp8850
g66
(dp8851
I1
I-1
sI-1
I-1
sssI-1
(dp8852
g6
(dp8853
I0
I1
sI-1
I-1
sssssI-1
(dp8854
g39
(dp8855
I1
(dp8856
g12
(dp8857
I0
I-1
sI1
I-1
sI-1
I-1
sssI-1
(dp8858
g12
(dp8859
I0
I-1
sI1
I-1
sI-1
I-1
sssssssssI1
(dp8860
g20
(dp8861
I0
(dp8862
g3
(dp8863
I0
(dp8864
g9
(dp8865
I0
I-1
sI1
I-1
sI-1
(dp8866
g39
(dp8867
I1
I1
sI-1
I-1
sssssI1
(dp8868
g12
(dp8869
I0
(dp8870
g66
(dp8871
I1
I1
sI-1
I1
sssI1
(dp8872
g9
(dp8873
I0
I1
sI1
I1
sI-1
I1
sssI-1
(dp8874
g6
(dp8875
I0
I1
sI1
I1
sI-1
I-1
sssssI-1
(dp8876
g12
(dp8877
I0
(dp8878
g9
(dp8879
I0
I1
sI1
I1
sI-1
I1
sssI1
(dp8880
g27
(dp8881
I1
I-1
sI-1
I1
sssI-1
(dp8882
g6
(dp8883
I0
I1
sI1
I1
sI-1
I-1
sssssssI1
(dp8884
g12
(dp8885
I0
(dp8886
g9
(dp8887
I0
(dp8888
g27
(dp8889
I1
I1
sI-1
I1
sssI1
(dp8890
g39
(dp8891
I1
I1
sI-1
I1
sssI-1
(dp8892
g244
(dp8893
I1
I-1
sI-1
I1
sssssI1
(dp8894
g3
(dp8895
I0
I-1
sI1
(dp8896
g95
(dp8897
I1
I1
sI-1
I1
sssI-1
(dp8898
g6
(dp8899
I0
I-1
sI1
I1
sI-1
I-1
sssssI-1
(dp8900
g6
(dp8901
I0
I1
sI1
I1
sI-1
I-1
sssssI-1
(dp8902
g3
(dp8903
I0
(dp8904
g12
(dp8905
I0
I-1
sI1
(dp8906
g9
(dp8907
I0
I1
sI1
I-1
sssI-1
I-1
sssI1
(dp8908
g12
(dp8909
I0
(dp8910
g27
(dp8911
I1
I1
sI-1
I1
sssI1
(dp8912
g6
(dp8913
I0
I1
sI1
I1
sI-1
I-1
sssI-1
(dp8914
g6
(dp8915
I0
I1
sI1
I1
sI-1
I-1
sssssI-1
(dp8916
g220
(dp8917
I1
(dp8918
g66
(dp8919
I1
I-1
sI-1
I-1
sssI-1
(dp8920
g27
(dp8921
I1
I-1
sI-1
I-1
sssssssssI-1
(dp8922
g3
(dp8923
I0
I-1
sI1
(dp8924
g20
(dp8925
I0
(dp8926
g12
(dp8927
I0
(dp8928
g54
(dp8929
I1
I1
sI-1
I-1
sssI1
I1
sI-1
(dp8930
g6
(dp8931
I0
I1
sI1
I1
sI-1
I-1
sssssI1
(dp8932
g6
(dp8933
I0
(dp8934
g12
(dp8935
I0
I-1
sI1
I1
sI-1
I1
sssI1
(dp8936
g66
(dp8937
I1
I1
sI-1
I1
sssI-1
(dp8938
g39
(dp8939
I1
I1
sI-1
I-1
sssssI-1
(dp8940
g6
(dp8941
I0
(dp8942
g66
(dp8943
I1
I1
sI-1
I1
sssI1
(dp8944
g66
(dp8945
I1
I1
sI-1
I1
sssI-1
(dp8946
g34
(dp8947
I1
I1
sI-1
I-1
sssssssI-1
(dp8948
g20
(dp8949
I0
(dp8950
g6
(dp8951
I0
(dp8952
g27
(dp8953
I1
I-1
sI-1
I-1
sssI1
(dp8954
g63
(dp8955
I1
I-1
sI-1
I-1
sssI-1
I-1
sssI1
(dp8956
g6
(dp8957
I0
(dp8958
g9
(dp8959
I0
I1
sI1
I-1
sssI1
I1
sI-1
I-1
sssI-1
(dp8960
g12
(dp8961
I0
(dp8962
g63
(dp8963
I1
I-1
sI-1
I-1
sssI1
(dp8964
g9
(dp8965
I0
I-1
sI1
I-1
sI-1
I-1
sssI-1
I-1
ssssssssa.