(lp0
(dp1
S'alpha'
p2
F1.107940917470381
sS'SSLfinal_State'
p3
(dp4
I0
(dp5
S'URL_of_Anchor'
p6
(dp7
I0
(dp8
S'having_Sub_Domain'
p9
(dp10
I0
I-1
sI1
I1
sI-1
I-1
sssI1
I-1
sI-1
I-1
sssI1
(dp11
g9
(dp12
I0
(dp13
S'Links_in_tags'
p14
(dp15
I0
I1
sI1
I1
sI-1
I1
sssI1
(dp16
S'web_traffic'
p17
(dp18
I0
I1
sI1
I1
sI-1
I1
sssI-1
(dp19
g17
(dp20
I0
I-1
sI1
I1
sI-1
I1
sssssI-1
(dp21
g6
(dp22
I0
(dp23
g9
(dp24
I0
I-1
sI1
I-1
sI-1
I-1
sssI1
(dp25
g14
(dp26
I0
I1
sI1
I1
sI-1
I-1
sssI-1
I-1
ssssa.