(dp0
S'SSLfinal_State'
p1
(dp2
I0
(dp3
S'having_Sub_Domain'
p4
(dp5
I0
I-1
sI1
(dp6
S'age_of_domain'
p7
(dp8
I1
(dp9
S'having_At_Symbol'
p10
(dp11
I1
(dp12
S'Request_URL'
p13
(dp14
I1
I1
sI-1
I-1
sssI-1
I-1
sssI-1
I-1
sssI-1
I-1
sssI1
(dp15
S'URL_of_Anchor'
p16
(dp17
I0
(dp18
S'web_traffic'
p19
(dp20
I0
(dp21
g4
(dp22
I0
(dp23
S'URL_Length'
p24
(dp25
I0
I1
sI1
I1
sI-1
(dp26
S'SFH'
p27
(dp28
I1
I1
sI-1
(dp29
S'Links_in_tags'
p30
(dp31
I0
(dp32
S'Domain_registeration_length'
p33
(dp34
I1
I1
sI-1
(dp35
g7
(dp36
I1
(dp37
S'having_IP_Address'
p38
(dp39
I1
I1
sI-1
I-1
sssI-1
I-1
sssssI1
I-1
sI-1
(dp40
g33
(dp41
I1
I-1
sI-1
(dp42
g38
(dp43
I1
I1
sI-1
(dp44
g13
(dp45
I1
I1
sI-1
I-1
sssssssssssssI1
(dp46
S'DNSRecord'
p47
(dp48
I1
(dp49
S'Redirect'
p50
(dp51
I0
(dp52
g30
(dp53
I0
(dp54
g27
(dp55
I0
I1
sI1
I1
sI-1
(dp56
S'popUpWidnow'
p57
(dp58
I1
(dp59
g38
(dp60
I1
(dp61
g7
(dp62
I1
(dp63
S'Prefix_Suffix'
p64
(dp65
I1
I1
sI-1
(dp66
S'Result'
p67
(dp68
I1
I1
sI-1
I-1
sssssI-1
I1
sssI-1
I-1
sssI-1
I1
sssssI1
I1
sI-1
I1
sssI1
I-1
sssI-1
(dp69
S'Page_Rank'
p70
(dp71
I1
I1
sI-1
(dp72
S'Links_pointing_to_page'
p73
(dp74
I0
(dp75
g24
(dp76
I1
I1
sI-1
I-1
sssI1
(dp77
g30
(dp78
I0
(dp79
g24
(dp80
I1
I-1
sI-1
(dp81
g38
(dp82
I1
I-1
sI-1
I1
sssssI1
(dp83
S'Favicon'
p84
(dp85
I1
I1
sI-1
I-1
sssI-1
I1
sssssssssI-1
(dp86
g73
(dp87
I0
(dp88
S'port'
p89
(dp90
I1
(dp91
g84
(dp92
I1
(dp93
g47
(dp94
I1
(dp95
g30
(dp96
I0
I1
sI1
(dp97
g67
(dp98
I1
I1
sI-1
I-1
sssI-1
(dp99
g13
(dp100
I1
(dp101
g67
(dp102
I1
I1
sI-1
I-1
sssI-1
I-1
sssssI-1
I-1
sssI-1
I1
sssI-1
I-1
sssI1
(dp103
S'Submitting_to_email'
p104
(dp105
I1
I1
sI-1
(dp106
g38
(dp107
I1
I-1
sI-1
I1
sssssI-1
I-1
sssssI1
(dp108
g27
(dp109
I0
I1
sI1
I1
sI-1
(dp110
g30
(dp111
I0
(dp112
g38
(dp113
I1
I1
sI-1
(dp114
g33
(dp115
I1
(dp116
g24
(dp117
I0
I-1
sI1
I1
sI-1
I-1
sssI-1
I1
sssssI1
(dp118
g4
(dp119
I0
(dp120
g7
(dp121
I1
(dp122
g47
(dp123
I1
I-1
sI-1
I1
sssI-1
I1
sssI1
I1
sI-1
I1
sssI-1
(dp124
g4
(dp125
I0
(dp126
S'Google_Index'
p127
(dp128
I1
(dp129
g73
(dp130
I0
I1
sI1
I1
sI-1
(dp131
g38
(dp132
I1
I1
sI-1
(dp133
g24
(dp134
I1
I1
sI-1
I-1
sssssssI-1
I-1
sssI1
I1
sI-1
(dp135
g73
(dp136
I0
(dp137
g47
(dp138
I1
(dp139
g13
(dp140
I1
(dp141
g7
(dp142
I1
I-1
sI-1
(dp143
g70
(dp144
I1
I-1
sI-1
I1
sssssI-1
(dp145
g7
(dp146
I1
I1
sI-1
I-1
sssssI-1
I-1
sssI1
I1
sI-1
I-1
sssssssssI-1
(dp147
g4
(dp148
I0
(dp149
g7
(dp150
I1
(dp151
g33
(dp152
I1
I-1
sI-1
I1
sssI-1
I1
sssI1
I1
sI-1
I1
sssssI1
(dp153
g73
(dp154
I0
(dp155
g38
(dp156
I1
(dp157
g127
(dp158
I1
I1
sI-1
(dp159
g30
(dp160
I0
(dp161
g4
(dp162
I1
(dp163
g27
(dp164
I1
I1
sI-1
I-1
sssI-1
I1
sssI1
I1
sI-1
I1
sssssI-1
(dp165
g64
(dp166
I1
I1
sI-1
I-1
sssssI1
I1
sI-1
I1
sssI-1
(dp167
g64
(dp168
I1
I1
sI-1
I-1
sssssI-1
(dp169
g16
(dp170
I0
(dp171
g30
(dp172
I0
(dp173
g19
(dp174
I0
(dp175
g4
(dp176
I0
I-1
sI1
(dp177
g84
(dp178
I1
I1
sI-1
I-1
sssI-1
I-1
sssI1
(dp179
g27
(dp180
I0
I1
sI1
(dp181
g38
(dp182
I1
I1
sI-1
I-1
sssI-1
(dp183
g4
(dp184
I0
(dp185
g38
(dp186
I1
I1
sI-1
I-1
sssI1
I-1
sI-1
(dp187
g13
(dp188
I1
(dp189
g24
(dp190
I1
I1
sI-1
I-1
sssI-1
I1
sssssssI-1
I-1
sssI1
(dp191
g47
(dp192
I1
(dp193
g38
(dp194
I1
I1
sI-1
(dp195
g33
(dp196
I1
I-1
sI-1
I1
sssssI-1
I-1
sssI-1
(dp197
g84
(dp198
I1
(dp199
S'Statistical_report'
p200
(dp201
I1
(dp202
g13
(dp203
I1
(dp204
g4
(dp205
I0
(dp206
g38
(dp207
I1
(dp208
g27
(dp209
I1
I-1
sI-1
(dp210
g33
(dp211
I1
(dp212
g47
(dp213
I1
(dp214
g73
(dp215
I0
I1
sI1
I-1
sssI-1
I-1
sssI-1
I1
sssssI-1
I-1
sssI1
I-1
sI-1
I-1
sssI-1
I-1
sssI-1
(dp216
g47
(dp217
I1
I-1
sI-1
I1
sssssI-1
(dp218
g4
(dp219
I0
(dp220
g38
(dp221
I1
I1
sI-1
I-1
sssI1
I-1
sI-1
I1
sssssssI1
(dp222
g4
(dp223
I0
I1
sI1
I1
sI-1
(dp224
g70
(dp225
I1
(dp226
g38
(dp227
I1
I1
sI-1
I-1
sssI-1
I-1
sssssI-1
I-1
ssss.