(dp0
S'SSLfinal_State'
p1
(dp2
I0
I-1
sI1
(dp3
S'web_traffic'
p4
(dp5
I0
(dp6
S'Shortining_Service'
p7
(dp8
I1
(dp9
S'Links_in_tags'
p10
(dp11
I0
I1
sI1
I1
sI-1
(dp12
S'having_IP_Address'
p13
(dp14
I1
I-1
sI-1
I1
sssssI-1
I-1
sssI1
I1
sI-1
I1
sssI-1
I-1
ss.