(dp0
S'URL_of_Anchor'
p1
(dp2
I0
(dp3
S'SSLfinal_State'
p4
(dp5
I1
(dp6
S'Links_pointing_to_page'
p7
(dp8
I0
(dp9
S'web_traffic'
p10
(dp11
I0
I-1
sI1
I1
sI-1
I1
sssI1
I1
sI-1
I-1
sssI-1
I-1
sssI1
(dp12
g4
(dp13
I0
I-1
sI1
I1
sI-1
I1
sssI-1
I-1
ss.