(dp0
S'SSLfinal_State'
p1
(dp2
I0
(dp3
S'URL_of_Anchor'
p4
(dp5
I0
(dp6
S'having_Sub_Domain'
p7
(dp8
I0
I-1
sI1
I1
sI-1
I-1
sssI1
I-1
sI-1
I-1
sssI1
(dp9
g4
(dp10
I0
(dp11
S'web_traffic'
p12
(dp13
I0
(dp14
S'DNSRecord'
p15
(dp16
I1
(dp17
g7
(dp18
I0
(dp19
S'Prefix_Suffix'
p20
(dp21
I1
I1
sI-1
I-1
sssI1
(dp22
S'Links_in_tags'
p23
(dp24
I0
I1
sI1
(dp25
S'Links_pointing_to_page'
p26
(dp27
I0
(dp28
S'Domain_registeration_length'
p29
(dp30
I1
I1
sI-1
I-1
sssI1
I1
sI-1
I1
sssI-1
(dp31
S'Request_URL'
p32
(dp33
I1
(dp34
S'age_of_domain'
p35
(dp36
I1
(dp37
S'Result'
p38
(dp39
I1
I1
sI-1
I-1
sssI-1
I1
sssI-1
I1
sssssI-1
I1
sssI-1
(dp40
g26
(dp41
I0
I-1
sI1
(dp42
g7
(dp43
I0
I1
sI1
I1
sI-1
(dp44
S'URL_Length'
p45
(dp46
I1
I-1
sI-1
(dp47
S'having_At_Symbol'
p48
(dp49
I1
(dp50
g23
(dp51
I0
I-1
sI-1
I1
sssI-1
I-1
sssssssI-1
I-1
sssssI1
(dp52
g23
(dp53
I0
(dp54
S'Google_Index'
p55
(dp56
I1
I1
sI-1
(dp57
S'Page_Rank'
p58
(dp59
I1
I1
sI-1
I-1
sssssI1
I1
sI-1
(dp60
S'SFH'
p61
(dp62
I0
I1
sI1
I1
sI-1
(dp63
S'Abnormal_URL'
p64
(dp65
I1
(dp66
g7
(dp67
I0
(dp68
S'having_IP_Address'
p69
(dp70
I1
I1
sI-1
I-1
sssI1
(dp71
g29
(dp72
I1
I-1
sI-1
I1
sssI-1
(dp73
g35
(dp74
I1
I1
sI-1
I-1
sssssI-1
I1
sssssssI-1
I1
sssI1
I1
sI-1
(dp75
g26
(dp76
I0
I-1
sI1
I1
sI-1
I1
sssssI-1
(dp77
g4
(dp78
I0
(dp79
g58
(dp80
I1
I-1
sI-1
(dp81
g55
(dp82
I1
(dp83
g61
(dp84
I0
I-1
sI1
I1
sI-1
(dp85
S'Submitting_to_email'
p86
(dp87
I1
(dp88
g20
(dp89
I1
I1
sI-1
(dp90
g26
(dp91
I0
(dp92
g35
(dp93
I1
I-1
sI-1
(dp94
g15
(dp95
I1
I1
sI-1
I-1
sssssI1
(dp96
g12
(dp97
I0
I-1
sI1
(dp98
S'Statistical_report'
p99
(dp100
I1
(dp101
g7
(dp102
I0
(dp103
g32
(dp104
I1
I-1
sI-1
I1
sssI1
I-1
sI-1
(dp105
g35
(dp106
I1
I1
sI-1
I-1
sssssI-1
I1
sssI-1
I1
sssI-1
I-1
sssssI-1
I1
sssssI-1
I-1
sssssI1
(dp107
g12
(dp108
I0
I1
sI1
(dp109
g7
(dp110
I0
I1
sI1
I1
sI-1
(dp111
S'HTTPS_token'
p112
(dp113
I1
I-1
sI-1
I1
sssssI-1
I-1
sssI-1
I-1
ssss.