(dp0
S'SSLfinal_State'
p1
(dp2
I0
(dp3
S'URL_of_Anchor'
p4
(dp5
I0
(dp6
S'Links_pointing_to_page'
p7
(dp8
I0
(dp9
S'Links_in_tags'
p10
(dp11
I0
I-1
sI1
I-1
sI-1
(dp12
S'web_traffic'
p13
(dp14
I0
I-1
sI1
I1
sI-1
I-1
sssssI1
I-1
sI-1
I1
sssI1
I-1
sI-1
I-1
sssI1
(dp15
g4
(dp16
I0
(dp17
g13
(dp18
I0
(dp19
S'having_Sub_Domain'
p20
(dp21
I0
(dp22
S'age_of_domain'
p23
(dp24
I1
(dp25
g10
(dp26
I0
(dp27
S'Result'
p28
(dp29
I1
I1
sI-1
I-1
sssI1
I-1
sI-1
I-1
sssI-1
(dp30
S'Prefix_Suffix'
p31
(dp32
I1
I1
sI-1
(dp33
S'Google_Index'
p34
(dp35
I1
(dp36
S'HTTPS_token'
p37
(dp38
I1
(dp39
S'Domain_registeration_length'
p40
(dp41
I1
I1
sI-1
(dp42
S'Shortining_Service'
p43
(dp44
I1
(dp45
g10
(dp46
I0
(dp47
S'Page_Rank'
p48
(dp49
I1
I1
sI-1
I-1
sssI-1
(dp50
g48
(dp51
I1
I-1
sI-1
I1
sssssI-1
I1
sssssI-1
I-1
sssI-1
I-1
sssssssI1
(dp52
S'DNSRecord'
p53
(dp54
I1
(dp55
g7
(dp56
I0
(dp57
S'URL_Length'
p58
(dp59
I1
I1
sI-1
(dp60
g34
(dp61
I1
(dp62
g48
(dp63
I1
(dp64
S'having_IP_Address'
p65
(dp66
I1
(dp67
g10
(dp68
I0
I1
sI-1
(dp69
S'Redirect'
p70
(dp71
I0
(dp72
g28
(dp73
I1
I1
sI-1
I-1
sssI1
I-1
sssssI-1
I-1
sssI-1
I1
sssI-1
I-1
sssssI1
I1
sI-1
I1
sssI-1
(dp74
g40
(dp75
I1
I1
sI-1
(dp76
g23
(dp77
I1
(dp78
g65
(dp79
I1
(dp80
S'on_mouseover'
p81
(dp82
I1
(dp83
S'popUpWidnow'
p84
(dp85
I1
(dp86
g10
(dp87
I0
(dp88
g28
(dp89
I1
I1
sI-1
I-1
sssI1
I1
sI-1
(dp90
g58
(dp91
I1
I1
sI-1
(dp92
g7
(dp93
I0
I-1
sI1
(dp94
g43
(dp95
I1
I1
sI-1
I-1
sssssssssI-1
I-1
sssI-1
I1
sssI-1
(dp96
S'Statistical_report'
p97
(dp98
I1
(dp99
g58
(dp100
I1
I-1
sI-1
I1
sssI-1
I1
sssssI-1
I1
sssssssI-1
(dp101
g23
(dp102
I1
(dp103
S'port'
p104
(dp105
I1
(dp106
S'SFH'
p107
(dp108
I1
I-1
sI-1
I1
sssI-1
I-1
sssI-1
(dp109
g65
(dp110
I1
(dp111
g53
(dp112
I1
(dp113
g34
(dp114
I1
(dp115
g10
(dp116
I0
I1
sI1
I-1
sI-1
(dp117
g40
(dp118
I1
I-1
sI-1
(dp119
g28
(dp120
I1
I1
sI-1
I-1
sssssssI-1
I-1
sssI-1
I-1
sssI-1
(dp121
g10
(dp122
I0
I1
sI1
I1
sI-1
I-1
sssssssssI1
(dp123
g10
(dp124
I0
(dp125
g107
(dp126
I0
I1
sI1
I1
sI-1
(dp127
g48
(dp128
I1
I1
sI-1
(dp129
g34
(dp130
I1
(dp131
g7
(dp132
I0
(dp133
g20
(dp134
I0
(dp135
g23
(dp136
I1
(dp137
g28
(dp138
I1
I1
sI-1
I-1
sssI-1
I1
sssI1
I1
sI-1
(dp139
S'Request_URL'
p140
(dp141
I1
I1
sI-1
(dp142
g43
(dp143
I1
I-1
sI-1
I1
sssssssI1
I1
sI-1
I1
sssI-1
(dp144
g23
(dp145
I1
(dp146
g65
(dp147
I1
I1
sI-1
I-1
sssI-1
I1
sssssssssI1
(dp148
S'Iframe'
p149
(dp150
I1
I1
sI-1
(dp151
g20
(dp152
I0
I1
sI1
(dp153
S'having_At_Symbol'
p154
(dp155
I1
I-1
sI-1
I1
sssI-1
I1
sssssI-1
(dp156
g140
(dp157
I1
(dp158
g20
(dp159
I0
(dp160
g107
(dp161
I0
I1
sI1
I1
sI-1
(dp162
g48
(dp163
I1
I1
sI-1
(dp164
g97
(dp165
I1
(dp166
g31
(dp167
I1
I1
sI-1
I-1
sssI-1
I1
sssssssI1
I1
sI-1
I1
sssI-1
(dp168
g20
(dp169
I0
(dp170
g65
(dp171
I1
(dp172
g34
(dp173
I1
(dp174
g40
(dp175
I1
I1
sI-1
(dp176
g107
(dp177
I1
I1
sI-1
(dp178
g23
(dp179
I1
I1
sI-1
(dp180
g28
(dp181
I1
I1
sI-1
I-1
sssssssssI-1
I-1
sssI-1
I-1
sssI1
(dp182
g40
(dp183
I1
(dp184
g107
(dp185
I1
I1
sI-1
(dp186
g34
(dp187
I1
(dp188
g23
(dp189
I1
(dp190
g28
(dp191
I1
I1
sI-1
I-1
sssI-1
I1
sssI-1
I1
sssssI-1
I1
sssI-1
(dp192
g23
(dp193
I1
I1
sI-1
(dp194
g107
(dp195
I1
I1
sI-1
I-1
sssssssssssI-1
(dp196
g10
(dp197
I0
I1
sI1
I1
sI-1
(dp198
g20
(dp199
I0
I1
sI1
(dp200
g107
(dp201
I0
I1
sI1
I1
sI-1
(dp202
g31
(dp203
I1
I1
sI-1
(dp204
g40
(dp205
I1
(dp206
g28
(dp207
I1
I1
sI-1
I-1
sssI-1
I1
sssssssI-1
(dp208
g58
(dp209
I1
I1
sI-1
(dp210
g107
(dp211
I0
I1
sI-1
I-1
sssssssssssI1
(dp212
g10
(dp213
I0
(dp214
g34
(dp215
I1
I1
sI-1
(dp216
g23
(dp217
I1
(dp218
g107
(dp219
I0
I1
sI1
I1
sI-1
(dp220
g20
(dp221
I1
(dp222
g140
(dp223
I1
I-1
sI-1
I1
sssI-1
I1
sssssI-1
I1
sssssI1
I1
sI-1
(dp224
g65
(dp225
I1
I1
sI-1
(dp226
g7
(dp227
I0
I-1
sI1
I1
sI-1
I1
sssssssI-1
(dp228
g31
(dp229
I1
I1
sI-1
(dp230
g81
(dp231
I1
I-1
sI-1
(dp232
g154
(dp233
I1
I1
sI-1
(dp234
g20
(dp235
I0
I-1
sI1
I1
sI-1
I-1
sssssssssssI-1
(dp236
g4
(dp237
I0
(dp238
g10
(dp239
I0
(dp240
g20
(dp241
I0
(dp242
g53
(dp243
I1
(dp244
g58
(dp245
I1
I1
sI-1
(dp246
S'Favicon'
p247
(dp248
I1
(dp249
g7
(dp250
I0
(dp251
g31
(dp252
I1
I1
sI-1
I-1
sssI1
(dp253
g140
(dp254
I1
(dp255
g84
(dp256
I1
I-1
sI-1
I1
sssI-1
(dp257
g70
(dp258
I0
I1
sI1
I-1
sssssssI-1
I-1
sssssI-1
I1
sssI1
(dp259
g13
(dp260
I0
(dp261
g247
(dp262
I1
I1
sI-1
I-1
sssI1
(dp263
g43
(dp264
I1
(dp265
g23
(dp266
I1
I-1
sI-1
(dp267
g7
(dp268
I0
I-1
sI1
I1
sssssI-1
I1
sssI-1
I1
sssI-1
(dp269
g58
(dp270
I0
I-1
sI1
(dp271
g40
(dp272
I1
I-1
sI-1
I1
sssI-1
(dp273
g53
(dp274
I1
(dp275
g34
(dp276
I1
(dp277
g40
(dp278
I1
(dp279
g154
(dp280
I1
(dp281
g140
(dp282
I1
I-1
sI-1
I1
sssI-1
I-1
sssI-1
I-1
sssI-1
I-1
sssI-1
I-1
sssssssI1
(dp283
g23
(dp284
I1
(dp285
g58
(dp286
I1
(dp287
g97
(dp288
I1
I1
sI-1
I-1
sssI-1
I-1
sssI-1
I1
sssI-1
(dp289
g20
(dp290
I0
(dp291
g7
(dp292
I0
(dp293
g13
(dp294
I0
I-1
sI1
(dp295
g65
(dp296
I1
(dp297
g140
(dp298
I1
(dp299
g23
(dp300
I1
I-1
sI-1
I1
sssI-1
I-1
sssI-1
I-1
sssI-1
(dp301
g40
(dp302
I1
I-1
sI-1
I1
sssssI1
(dp303
g65
(dp304
I1
(dp305
g140
(dp306
I1
I-1
sI-1
I1
sssI-1
(dp307
g13
(dp308
I0
I-1
sI1
(dp309
g43
(dp310
I1
(dp311
g48
(dp312
I1
I1
sI-1
(dp313
g28
(dp314
I1
I1
sI-1
I-1
sssssI-1
I-1
sssI-1
I-1
sssssssI1
(dp315
g7
(dp316
I0
I-1
sI1
(dp317
S'Submitting_to_email'
p318
(dp319
I1
(dp320
g65
(dp321
I1
(dp322
S'double_slash_redirecting'
p323
(dp324
I1
(dp325
g97
(dp326
I1
(dp327
g28
(dp328
I1
I1
sI-1
I-1
sssI-1
I1
sssI-1
I-1
sssI-1
(dp329
g40
(dp330
I1
I-1
sI-1
(dp331
g23
(dp332
I1
I-1
sI-1
I1
sssssssI-1
I-1
sssI-1
I-1
sssI-1
(dp333
g13
(dp334
I0
(dp335
g40
(dp336
I1
I-1
sI-1
(dp337
g53
(dp338
I1
(dp339
g154
(dp340
I1
I1
sI-1
I-1
sssI-1
I-1
sssssI1
I-1
sI-1
I-1
sssssssI1
(dp341
g31
(dp342
I1
I1
sI-1
(dp343
g10
(dp344
I0
(dp345
g247
(dp346
I1
(dp347
g34
(dp348
I1
I1
sI-1
I-1
sssI-1
I-1
sssI1
(dp349
g43
(dp350
I1
I1
sI-1
I-1
sssI-1
(dp351
g58
(dp352
I1
I1
sI-1
I-1
sssssssI-1
I-1
ssss.