(lp0
(dp1
S'index'
p2
I15
sS'right'
p3
(dp4
g2
I24
sg3
(dp5
g2
I6
sg3
I1
sS'value'
p6
I1
sS'left'
p7
I1
ssg6
I1
sg7
(dp8
g2
I21
sg3
I1
sg6
I1
sg7
I1
sssg6
I1
sg7
(dp9
g2
I25
sg3
(dp10
g2
I18
sg3
I1
sg6
I1
sg7
I1
ssg6
I1
sg7
(dp11
g2
I7
sg3
I1
sg6
I1
sg7
I-1
sssa(dp12
g2
I12
sg3
(dp13
g2
I6
sg3
(dp14
g2
I14
sg3
I1
sg6
I0
sg7
I1
ssg6
I1
sg7
(dp15
g2
I13
sg3
I1
sg6
I0
sg7
I-1
sssg6
I1
sg7
(dp16
g2
I5
sg3
(dp17
g2
I17
sg3
I1
sg6
I1
sg7
I1
ssg6
I1
sg7
(dp18
g2
I15
sg3
I1
sg6
I1
sg7
I-1
sssa(dp19
g2
I27
sg3
(dp20
g2
I14
sg3
(dp21
g2
I7
sg3
I1
sg6
I1
sg7
I-1
ssg6
I0
sg7
(dp22
g2
I7
sg3
I1
sg6
I1
sg7
I-1
sssg6
I1
sg7
(dp23
g2
I15
sg3
(dp24
g2
I7
sg3
I1
sg6
I1
sg7
I-1
ssg6
I1
sg7
(dp25
g2
I7
sg3
I1
sg6
I1
sg7
I-1
sssa(dp26
g2
I25
sg3
(dp27
g2
I27
sg3
(dp28
g2
I6
sg3
I1
sg6
I1
sg7
I1
ssg6
I1
sg7
(dp29
g2
I24
sg3
I-1
sg6
I1
sg7
I1
sssg6
I1
sg7
(dp30
g2
I12
sg3
(dp31
g2
I6
sg3
I1
sg6
I1
sg7
I-1
ssg6
I1
sg7
(dp32
g2
I27
sg3
I-1
sg6
I1
sg7
I-1
sssa(dp33
g2
I5
sg3
(dp34
g2
I21
sg3
(dp35
g2
I19
sg3
I1
sg6
I1
sg7
I1
ssg6
I1
sg7
(dp36
g2
I15
sg3
I1
sg6
I1
sg7
I1
sssg6
I1
sg7
(dp37
g2
I7
sg3
(dp38
g2
I14
sg3
I1
sg6
I0
sg7
I1
ssg6
I1
sg7
(dp39
g2
I25
sg3
I-1
sg6
I1
sg7
I-1
sssa(dp40
g2
I25
sg3
(dp41
g2
I0
sg3
(dp42
g2
I6
sg3
I1
sg6
I1
sg7
I1
ssg6
I1
sg7
(dp43
g2
I28
sg3
I1
sg6
I1
sg7
I-1
sssg6
I1
sg7
(dp44
g2
I7
sg3
(dp45
g2
I24
sg3
I1
sg6
I1
sg7
I1
ssg6
I1
sg7
(dp46
g2
I28
sg3
I-1
sg6
I0
sg7
I-1
sssa(dp47
g2
I13
sg3
(dp48
g2
I5
sg3
(dp49
g2
I0
sg3
I1
sg6
I1
sg7
I1
ssg6
I1
sg7
(dp50
g2
I12
sg3
I1
sg6
I1
sg7
I1
sssg6
I0
sg7
(dp51
g2
I29
sg3
(dp52
g2
I12
sg3
I-1
sg6
I1
sg7
I-1
ssg6
I1
sg7
(dp53
g2
I23
sg3
I-1
sg6
I1
sg7
I-1
sssa(dp54
g2
I7
sg3
(dp55
g2
I25
sg3
(dp56
g2
I13
sg3
I1
sg6
I0
sg7
I-1
ssg6
I1
sg7
(dp57
g2
I6
sg3
I1
sg6
I1
sg7
I1
sssg6
I1
sg7
(dp58
g2
I7
sg3
(dp59
g2
I13
sg3
I-1
sg6
I0
sg7
I-1
ssg6
I0
sg7
(dp60
g2
I13
sg3
I-1
sg6
I0
sg7
I-1
sssa(dp61
g2
I27
sg3
(dp62
g2
I13
sg3
(dp63
g2
I14
sg3
I1
sg6
I0
sg7
I1
ssg6
I0
sg7
(dp64
g2
I12
sg3
I-1
sg6
I1
sg7
I-1
sssg6
I1
sg7
(dp65
g2
I29
sg3
(dp66
g2
I7
sg3
I1
sg6
I1
sg7
I-1
ssg6
I1
sg7
(dp67
g2
I13
sg3
I1
sg6
I1
sg7
I-1
sssa(dp68
g2
I12
sg3
(dp69
g2
I7
sg3
(dp70
g2
I18
sg3
I1
sg6
I1
sg7
I1
ssg6
I1
sg7
(dp71
g2
I5
sg3
I1
sg6
I1
sg7
I-1
sssg6
I1
sg7
(dp72
g2
I6
sg3
(dp73
g2
I13
sg3
I1
sg6
I0
sg7
I-1
ssg6
I1
sg7
(dp74
g2
I1
sg3
I-1
sg6
I0
sg7
I-1
sssa(dp75
g2
I28
sg3
(dp76
g2
I15
sg3
(dp77
g2
I24
sg3
I1
sg6
I1
sg7
I1
ssg6
I1
sg7
(dp78
g2
I13
sg3
I1
sg6
I0
sg7
I-1
sssg6
I1
sg7
(dp79
g2
I7
sg3
(dp80
g2
I23
sg3
I1
sg6
I1
sg7
I1
ssg6
I1
sg7
(dp81
g2
I5
sg3
I1
sg6
I1
sg7
I-1
sssa(dp82
g2
I15
sg3
(dp83
g2
I7
sg3
(dp84
g2
I2
sg3
I1
sg6
I1
sg7
I1
ssg6
I1
sg7
(dp85
g2
I5
sg3
I1
sg6
I1
sg7
I-1
sssg6
I1
sg7
(dp86
g2
I5
sg3
(dp87
g2
I22
sg3
I1
sg6
I1
sg7
I1
ssg6
I1
sg7
(dp88
g2
I7
sg3
I1
sg6
I1
sg7
I-1
sssa(dp89
g2
I15
sg3
(dp90
g2
I24
sg3
(dp91
g2
I26
sg3
I1
sg6
I1
sg7
I1
ssg6
I1
sg7
(dp92
g2
I26
sg3
I1
sg6
I1
sg7
I1
sssg6
I1
sg7
(dp93
g2
I25
sg3
(dp94
g2
I7
sg3
I1
sg6
I1
sg7
I-1
ssg6
I1
sg7
(dp95
g2
I6
sg3
I1
sg6
I1
sg7
I-1
sssa(dp96
g2
I1
sg3
(dp97
g2
I12
sg3
(dp98
g2
I5
sg3
I1
sg6
I1
sg7
I1
ssg6
I1
sg7
(dp99
g2
I0
sg3
I1
sg6
I1
sg7
I-1
sssg6
I1
sg7
(dp100
g2
I2
sg3
(dp101
g2
I25
sg3
I1
sg6
I1
sg7
I-1
ssg6
I1
sg7
(dp102
g2
I21
sg3
I1
sg6
I1
sg7
I-1
sssa(dp103
g2
I13
sg3
(dp104
g2
I13
sg3
(dp105
g2
I7
sg3
I1
sg6
I1
sg7
I1
ssg6
I1
sg7
(dp106
g2
I15
sg3
I1
sg6
I0
sg7
I1
sssg6
I0
sg7
(dp107
g2
I8
sg3
(dp108
g2
I27
sg3
I-1
sg6
I-1
sg7
I-1
ssg6
I1
sg7
(dp109
g2
I5
sg3
I1
sg6
I1
sg7
I-1
sssa(dp110
g2
I7
sg3
(dp111
g2
I13
sg3
(dp112
g2
I25
sg3
I1
sg6
I1
sg7
I1
ssg6
I0
sg7
(dp113
g2
I16
sg3
I-1
sg6
I1
sg7
I-1
sssg6
I1
sg7
(dp114
g2
I6
sg3
(dp115
g2
I25
sg3
I-1
sg6
I1
sg7
I-1
ssg6
I1
sg7
(dp116
g2
I12
sg3
I-1
sg6
I1
sg7
I-1
sssa(dp117
g2
I7
sg3
(dp118
g2
I13
sg3
(dp119
g2
I14
sg3
I1
sg6
I0
sg7
I1
ssg6
I0
sg7
(dp120
g2
I28
sg3
I-1
sg6
I1
sg7
I-1
sssg6
I1
sg7
(dp121
g2
I12
sg3
(dp122
g2
I7
sg3
I-1
sg6
I0
sg7
I-1
ssg6
I1
sg7
(dp123
g2
I7
sg3
I-1
sg6
I0
sg7
I-1
sssa(dp124
g2
I14
sg3
(dp125
g2
I15
sg3
(dp126
g2
I24
sg3
I1
sg6
I1
sg7
I-1
ssg6
I0
sg7
(dp127
g2
I13
sg3
I1
sg6
I0
sg7
I-1
sssg6
I0
sg7
(dp128
g2
I21
sg3
(dp129
g2
I13
sg3
I1
sg6
I0
sg7
I-1
ssg6
I1
sg7
(dp130
g2
I12
sg3
I1
sg6
I1
sg7
I-1
sssa(dp131
g2
I29
sg3
(dp132
g2
I26
sg3
(dp133
g2
I7
sg3
I1
sg6
I1
sg7
I-1
ssg6
I1
sg7
(dp134
g2
I15
sg3
I1
sg6
I0
sg7
I-1
sssg6
I1
sg7
(dp135
g2
I15
sg3
(dp136
g2
I18
sg3
I1
sg6
I1
sg7
I1
ssg6
I1
sg7
(dp137
g2
I25
sg3
I1
sg6
I1
sg7
I-1
sssa(dp138
g2
I25
sg3
(dp139
g2
I0
sg3
(dp140
g2
I5
sg3
I1
sg6
I1
sg7
I1
ssg6
I1
sg7
(dp141
g2
I13
sg3
I1
sg6
I0
sg7
I-1
sssg6
I1
sg7
(dp142
g2
I13
sg3
(dp143
g2
I25
sg3
I1
sg6
I0
sg7
I1
ssg6
I0
sg7
(dp144
g2
I17
sg3
I-1
sg6
I1
sg7
I-1
sssa(dp145
g2
I2
sg3
(dp146
g2
I25
sg3
(dp147
g2
I6
sg3
I1
sg6
I1
sg7
I1
ssg6
I1
sg7
(dp148
g2
I23
sg3
I-1
sg6
I1
sg7
I-1
sssg6
I1
sg7
(dp149
g2
I13
sg3
(dp150
g2
I13
sg3
I1
sg6
I1
sg7
I1
ssg6
I0
sg7
(dp151
g2
I3
sg3
I-1
sg6
I1
sg7
I-1
sssa(dp152
g2
I5
sg3
(dp153
g2
I9
sg3
(dp154
g2
I28
sg3
I1
sg6
I0
sg7
I1
ssg6
I1
sg7
(dp155
g2
I19
sg3
I1
sg6
I-1
sg7
I1
sssg6
I1
sg7
(dp156
g2
I7
sg3
(dp157
g2
I26
sg3
I1
sg6
I1
sg7
I1
ssg6
I1
sg7
(dp158
g2
I6
sg3
I-1
sg6
I1
sg7
I-1
sssa(dp159
g2
I6
sg3
(dp160
g2
I16
sg3
(dp161
g2
I15
sg3
I1
sg6
I0
sg7
I1
ssg6
I1
sg7
(dp162
g2
I8
sg3
I-1
sg6
I1
sg7
I1
sssg6
I1
sg7
(dp163
g2
I7
sg3
(dp164
g2
I14
sg3
I1
sg6
I0
sg7
I1
ssg6
I1
sg7
(dp165
g2
I13
sg3
I-1
sg6
I0
sg7
I-1
sssa(dp166
g2
I13
sg3
(dp167
g2
I14
sg3
(dp168
g2
I15
sg3
I1
sg6
I1
sg7
I1
ssg6
I0
sg7
(dp169
g2
I25
sg3
I1
sg6
I1
sg7
I-1
sssg6
I0
sg7
(dp170
g2
I12
sg3
(dp171
g2
I27
sg3
I-1
sg6
I1
sg7
I-1
ssg6
I1
sg7
(dp172
g2
I27
sg3
I-1
sg6
I1
sg7
I-1
sssa(dp173
g2
I7
sg3
(dp174
g2
I27
sg3
(dp175
g2
I6
sg3
I1
sg6
I1
sg7
I1
ssg6
I1
sg7
(dp176
g2
I2
sg3
I1
sg6
I1
sg7
I1
sssg6
I1
sg7
(dp177
g2
I6
sg3
(dp178
g2
I13
sg3
I-1
sg6
I0
sg7
I-1
ssg6
I1
sg7
(dp179
g2
I5
sg3
I1
sg6
I1
sg7
I-1
sssa(dp180
g2
I6
sg3
(dp181
g2
I7
sg3
(dp182
g2
I5
sg3
I1
sg6
I1
sg7
I1
ssg6
I1
sg7
(dp183
g2
I12
sg3
I-1
sg6
I1
sg7
I-1
sssg6
I1
sg7
(dp184
g2
I5
sg3
(dp185
g2
I19
sg3
I1
sg6
I1
sg7
I1
ssg6
I1
sg7
(dp186
g2
I3
sg3
I-1
sg6
I1
sg7
I-1
sssa(dp187
g2
I5
sg3
(dp188
g2
I28
sg3
(dp189
g2
I15
sg3
I1
sg6
I-1
sg7
I1
ssg6
I1
sg7
(dp190
g2
I2
sg3
I1
sg6
I1
sg7
I1
sssg6
I1
sg7
(dp191
g2
I25
sg3
(dp192
g2
I14
sg3
I1
sg6
I0
sg7
I-1
ssg6
I1
sg7
(dp193
g2
I13
sg3
I1
sg6
I0
sg7
I-1
sssa(dp194
g2
I25
sg3
(dp195
g2
I7
sg3
(dp196
g2
I6
sg3
I1
sg6
I1
sg7
I1
ssg6
I1
sg7
(dp197
g2
I13
sg3
I1
sg6
I1
sg7
I-1
sssg6
I1
sg7
(dp198
g2
I6
sg3
(dp199
g2
I7
sg3
I1
sg6
I1
sg7
I-1
ssg6
I1
sg7
(dp200
g2
I24
sg3
I-1
sg6
I1
sg7
I-1
sssa(dp201
g2
I6
sg3
(dp202
g2
I7
sg3
(dp203
g2
I25
sg3
I1
sg6
I1
sg7
I1
ssg6
I1
sg7
(dp204
g2
I12
sg3
I-1
sg6
I1
sg7
I-1
sssg6
I1
sg7
(dp205
g2
I7
sg3
(dp206
g2
I13
sg3
I1
sg6
I0
sg7
I-1
ssg6
I1
sg7
(dp207
g2
I5
sg3
I1
sg6
I1
sg7
I-1
sssa(dp208
g2
I14
sg3
(dp209
g2
I13
sg3
(dp210
g2
I8
sg3
I1
sg6
I1
sg7
I1
ssg6
I0
sg7
(dp211
g2
I25
sg3
I-1
sg6
I1
sg7
I-1
sssg6
I0
sg7
(dp212
g2
I21
sg3
(dp213
g2
I7
sg3
I1
sg6
I1
sg7
I-1
ssg6
I1
sg7
(dp214
g2
I27
sg3
I1
sg6
I1
sg7
I-1
sssa.