(lp0
(dp1
S'index'
p2
I15
sS'right'
p3
(dp4
g2
I24
sg3
(dp5
g2
I6
sg3
I1
sS'value'
p6
I1
sS'left'
p7
I1
ssg6
I1
sg7
(dp8
g2
I21
sg3
I-1
sg6
I1
sg7
I1
sssg6
I1
sg7
(dp9
g2
I25
sg3
(dp10
g2
I18
sg3
I1
sg6
I1
sg7
I1
ssg6
I1
sg7
(dp11
g2
I7
sg3
I1
sg6
I1
sg7
I-1
sssa(dp12
g2
I14
sg3
(dp13
g2
I6
sg3
(dp14
g2
I14
sg3
I1
sg6
I1
sg7
I1
ssg6
I1
sg7
(dp15
g2
I13
sg3
I1
sg6
I0
sg7
I-1
sssg6
I0
sg7
(dp16
g2
I5
sg3
(dp17
g2
I17
sg3
I1
sg6
I1
sg7
I1
ssg6
I1
sg7
(dp18
g2
I15
sg3
I1
sg6
I0
sg7
I-1
sssa(dp19
g2
I27
sg3
(dp20
g2
I14
sg3
(dp21
g2
I7
sg3
I1
sg6
I1
sg7
I-1
ssg6
I0
sg7
(dp22
g2
I7
sg3
I1
sg6
I1
sg7
I-1
sssg6
I1
sg7
(dp23
g2
I15
sg3
(dp24
g2
I7
sg3
I1
sg6
I1
sg7
I-1
ssg6
I0
sg7
(dp25
g2
I7
sg3
I1
sg6
I1
sg7
I-1
sssa(dp26
g2
I25
sg3
(dp27
g2
I27
sg3
(dp28
g2
I6
sg3
I1
sg6
I1
sg7
I1
ssg6
I1
sg7
(dp29
g2
I24
sg3
I-1
sg6
I1
sg7
I1
sssg6
I1
sg7
(dp30
g2
I12
sg3
(dp31
g2
I6
sg3
I1
sg6
I1
sg7
I-1
ssg6
I1
sg7
(dp32
g2
I27
sg3
I-1
sg6
I1
sg7
I-1
sssa(dp33
g2
I5
sg3
(dp34
g2
I21
sg3
(dp35
g2
I19
sg3
I1
sg6
I1
sg7
I1
ssg6
I1
sg7
(dp36
g2
I15
sg3
I1
sg6
I-1
sg7
I1
sssg6
I1
sg7
(dp37
g2
I7
sg3
(dp38
g2
I6
sg3
I1
sg6
I1
sg7
I1
ssg6
I1
sg7
(dp39
g2
I25
sg3
I-1
sg6
I1
sg7
I-1
sssa(dp40
g2
I25
sg3
(dp41
g2
I0
sg3
(dp42
g2
I6
sg3
I1
sg6
I1
sg7
I1
ssg6
I1
sg7
(dp43
g2
I28
sg3
I1
sg6
I1
sg7
I-1
sssg6
I1
sg7
(dp44
g2
I7
sg3
(dp45
g2
I24
sg3
I1
sg6
I1
sg7
I1
ssg6
I1
sg7
(dp46
g2
I8
sg3
I-1
sg6
I1
sg7
I-1
sssa(dp47
g2
I13
sg3
(dp48
g2
I5
sg3
(dp49
g2
I0
sg3
I1
sg6
I1
sg7
I1
ssg6
I1
sg7
(dp50
g2
I13
sg3
I1
sg6
I1
sg7
I1
sssg6
I0
sg7
(dp51
g2
I29
sg3
(dp52
g2
I12
sg3
I-1
sg6
I1
sg7
I-1
ssg6
I1
sg7
(dp53
g2
I23
sg3
I-1
sg6
I1
sg7
I-1
sssa(dp54
g2
I7
sg3
(dp55
g2
I25
sg3
(dp56
g2
I13
sg3
I1
sg6
I0
sg7
I-1
ssg6
I1
sg7
(dp57
g2
I6
sg3
I1
sg6
I1
sg7
I1
sssg6
I1
sg7
(dp58
g2
I14
sg3
(dp59
g2
I13
sg3
I-1
sg6
I0
sg7
I-1
ssg6
I0
sg7
(dp60
g2
I13
sg3
I-1
sg6
I0
sg7
I-1
sssa(dp61
g2
I27
sg3
(dp62
g2
I13
sg3
(dp63
g2
I14
sg3
I1
sg6
I0
sg7
I1
ssg6
I0
sg7
(dp64
g2
I12
sg3
I-1
sg6
I1
sg7
I-1
sssg6
I1
sg7
(dp65
g2
I29
sg3
(dp66
g2
I7
sg3
I1
sg6
I1
sg7
I-1
ssg6
I1
sg7
(dp67
g2
I5
sg3
I1
sg6
I1
sg7
I-1
sssa(dp68
g2
I12
sg3
(dp69
g2
I7
sg3
(dp70
g2
I19
sg3
I1
sg6
I1
sg7
I1
ssg6
I1
sg7
(dp71
g2
I5
sg3
I1
sg6
I1
sg7
I-1
sssg6
I1
sg7
(dp72
g2
I6
sg3
(dp73
g2
I13
sg3
I1
sg6
I0
sg7
I-1
ssg6
I1
sg7
(dp74
g2
I3
sg3
I-1
sg6
I1
sg7
I-1
sssa.