(lp0
(dp1
S'index'
p2
I6
sS'right'
p3
(dp4
g2
I15
sg3
(dp5
g2
I25
sg3
I1
sS'value'
p6
I1
sS'left'
p7
I1
ssg6
I1
sg7
(dp8
g2
I2
sg3
I1
sg6
I1
sg7
I1
sssg6
I1
sg7
(dp9
g2
I8
sg3
(dp10
g2
I7
sg3
I1
sg6
I1
sg7
I-1
ssg6
I1
sg7
(dp11
g2
I7
sg3
I1
sg6
I1
sg7
I-1
sssa(dp12
g2
I1
sg3
(dp13
g2
I24
sg3
(dp14
g2
I13
sg3
I1
sg6
I0
sg7
I-1
ssg6
I1
sg7
(dp15
g2
I13
sg3
I1
sg6
I0
sg7
I-1
sssg6
I1
sg7
(dp16
g2
I5
sg3
(dp17
g2
I15
sg3
I1
sg6
I-1
sg7
I1
ssg6
I1
sg7
(dp18
g2
I6
sg3
I1
sg6
I1
sg7
I-1
sssa(dp19
g2
I25
sg3
(dp20
g2
I5
sg3
(dp21
g2
I27
sg3
I1
sg6
I1
sg7
I1
ssg6
I1
sg7
(dp22
g2
I6
sg3
I1
sg6
I1
sg7
I1
sssg6
I1
sg7
(dp23
g2
I13
sg3
(dp24
g2
I6
sg3
I1
sg6
I1
sg7
I-1
ssg6
I0
sg7
(dp25
g2
I18
sg3
I-1
sg6
I0
sg7
I-1
sssa(dp26
g2
I12
sg3
(dp27
g2
I4
sg3
(dp28
g2
I25
sg3
I1
sg6
I1
sg7
I-1
ssg6
I1
sg7
(dp29
g2
I21
sg3
I1
sg6
I1
sg7
I-1
sssg6
I1
sg7
(dp30
g2
I27
sg3
(dp31
g2
I13
sg3
I1
sg6
I0
sg7
I-1
ssg6
I1
sg7
(dp32
g2
I19
sg3
I-1
sg6
I1
sg7
I-1
sssa(dp33
g2
I5
sg3
(dp34
g2
I18
sg3
I1
sg6
I0
sg7
I1
ssg6
I1
sg7
(dp35
g2
I15
sg3
(dp36
g2
I4
sg3
I1
sg6
I1
sg7
I1
ssg6
I0
sg7
(dp37
g2
I24
sg3
I-1
sg6
I1
sg7
I-1
sssa(dp38
g2
I23
sg3
(dp39
g2
I0
sg3
(dp40
g2
I13
sg3
I1
sg6
I0
sg7
I-1
ssg6
I1
sg7
(dp41
g2
I13
sg3
I1
sg6
I0
sg7
I-1
sssg6
I1
sg7
(dp42
g2
I25
sg3
(dp43
g2
I13
sg3
I1
sg6
I0
sg7
I-1
ssg6
I1
sg7
(dp44
g2
I6
sg3
I1
sg6
I1
sg7
I-1
sssa(dp45
g2
I6
sg3
(dp46
g2
I14
sg3
(dp47
g2
I15
sg3
I1
sg6
I0
sg7
I1
ssg6
I0
sg7
(dp48
g2
I13
sg3
I1
sg6
I0
sg7
I-1
sssg6
I1
sg7
(dp49
g2
I25
sg3
(dp50
g2
I3
sg3
I1
sg6
I1
sg7
I1
ssg6
I1
sg7
(dp51
g2
I0
sg3
I-1
sg6
I1
sg7
I-1
sssa(dp52
g2
I13
sg3
(dp53
g2
I13
sg3
(dp54
g2
I14
sg3
I1
sg6
I0
sg7
I1
ssg6
I1
sg7
(dp55
g2
I14
sg3
I1
sg6
I0
sg7
I1
sssg6
I0
sg7
(dp56
g2
I16
sg3
(dp57
g2
I11
sg3
I-1
sg6
I1
sg7
I-1
ssg6
I1
sg7
(dp58
g2
I25
sg3
I-1
sg6
I1
sg7
I-1
sssa(dp59
g2
I7
sg3
(dp60
g2
I8
sg3
(dp61
g2
I4
sg3
I1
sg6
I1
sg7
I1
ssg6
I1
sg7
(dp62
g2
I5
sg3
I1
sg6
I1
sg7
I1
sssg6
I1
sg7
(dp63
g2
I25
sg3
(dp64
g2
I6
sg3
I-1
sg6
I0
sg7
I-1
ssg6
I1
sg7
(dp65
g2
I4
sg3
I-1
sg6
I1
sg7
I-1
sssa(dp66
g2
I2
sg3
(dp67
g2
I15
sg3
(dp68
g2
I27
sg3
I1
sg6
I1
sg7
I1
ssg6
I1
sg7
(dp69
g2
I7
sg3
I1
sg6
I1
sg7
I-1
sssg6
I1
sg7
(dp70
g2
I19
sg3
(dp71
g2
I16
sg3
I1
sg6
I1
sg7
I-1
ssg6
I1
sg7
(dp72
g2
I29
sg3
I-1
sg6
I1
sg7
I-1
sssa(dp73
g2
I8
sg3
(dp74
g2
I15
sg3
(dp75
g2
I0
sg3
I1
sg6
I1
sg7
I1
ssg6
I1
sg7
(dp76
g2
I25
sg3
I1
sg6
I1
sg7
I-1
sssg6
I1
sg7
(dp77
g2
I13
sg3
(dp78
g2
I5
sg3
I1
sg6
I1
sg7
I1
ssg6
I0
sg7
(dp79
g2
I22
sg3
I-1
sg6
I1
sg7
I-1
sssa(dp80
g2
I3
sg3
(dp81
g2
I7
sg3
(dp82
g2
I26
sg3
I1
sg6
I1
sg7
I1
ssg6
I1
sg7
(dp83
g2
I13
sg3
I-1
sg6
I0
sg7
I-1
sssg6
I1
sg7
(dp84
g2
I6
sg3
(dp85
g2
I15
sg3
I1
sg6
I0
sg7
I1
ssg6
I1
sg7
(dp86
g2
I13
sg3
I1
sg6
I0
sg7
I-1
sssa(dp87
g2
I15
sg3
(dp88
g2
I28
sg3
(dp89
g2
I13
sg3
I1
sg6
I0
sg7
I-1
ssg6
I0
sg7
(dp90
g2
I10
sg3
I1
sg6
I1
sg7
I-1
sssg6
I1
sg7
(dp91
g2
I0
sg3
(dp92
g2
I7
sg3
I1
sg6
I1
sg7
I-1
ssg6
I1
sg7
(dp93
g2
I17
sg3
I-1
sg6
I1
sg7
I1
sssa(dp94
g2
I5
sg3
(dp95
g2
I16
sg3
(dp96
g2
I3
sg3
I1
sg6
I1
sg7
I1
ssg6
I1
sg7
(dp97
g2
I10
sg3
I1
sg6
I-1
sg7
I1
sssg6
I1
sg7
(dp98
g2
I25
sg3
(dp99
g2
I14
sg3
I1
sg6
I0
sg7
I-1
ssg6
I1
sg7
(dp100
g2
I7
sg3
I1
sg6
I1
sg7
I-1
sssa(dp101
g2
I13
sg3
(dp102
g2
I7
sg3
(dp103
g2
I25
sg3
I1
sg6
I1
sg7
I1
ssg6
I1
sg7
(dp104
g2
I23
sg3
I-1
sg6
I1
sg7
I-1
sssg6
I0
sg7
(dp105
g2
I5
sg3
(dp106
g2
I19
sg3
I1
sg6
I1
sg7
I1
ssg6
I1
sg7
(dp107
g2
I19
sg3
I-1
sg6
I1
sg7
I-1
sssa(dp108
g2
I27
sg3
(dp109
g2
I13
sg3
(dp110
g2
I20
sg3
I1
sg6
I1
sg7
I1
ssg6
I0
sg7
(dp111
g2
I7
sg3
I-1
sg6
I1
sg7
I-1
sssg6
I1
sg7
(dp112
g2
I6
sg3
(dp113
g2
I13
sg3
I1
sg6
I0
sg7
I-1
ssg6
I1
sg7
(dp114
g2
I13
sg3
I-1
sg6
I0
sg7
I-1
sssa(dp115
g2
I23
sg3
(dp116
g2
I6
sg3
(dp117
g2
I5
sg3
I1
sg6
I1
sg7
I1
ssg6
I1
sg7
(dp118
g2
I12
sg3
I1
sg6
I1
sg7
I-1
sssg6
I1
sg7
(dp119
g2
I3
sg3
(dp120
g2
I25
sg3
I1
sg6
I1
sg7
I-1
ssg6
I1
sg7
(dp121
g2
I20
sg3
I-1
sg6
I1
sg7
I1
sssa(dp122
g2
I15
sg3
(dp123
g2
I1
sg3
(dp124
g2
I8
sg3
I-1
sg6
I1
sg7
I1
ssg6
I0
sg7
(dp125
g2
I29
sg3
I1
sg6
I1
sg7
I1
sssg6
I1
sg7
(dp126
g2
I25
sg3
(dp127
g2
I6
sg3
I1
sg6
I1
sg7
I1
ssg6
I1
sg7
(dp128
g2
I24
sg3
I-1
sg6
I1
sg7
I-1
sssa(dp129
g2
I23
sg3
(dp130
g2
I13
sg3
(dp131
g2
I7
sg3
I1
sg6
I1
sg7
I-1
ssg6
I0
sg7
(dp132
g2
I8
sg3
I-1
sg6
I1
sg7
I-1
sssg6
I1
sg7
(dp133
g2
I7
sg3
(dp134
g2
I25
sg3
I1
sg6
I1
sg7
I1
ssg6
I1
sg7
(dp135
g2
I25
sg3
I-1
sg6
I1
sg7
I-1
sssa(dp136
g2
I8
sg3
(dp137
g2
I7
sg3
(dp138
g2
I4
sg3
I1
sg6
I1
sg7
I1
ssg6
I1
sg7
(dp139
g2
I5
sg3
I1
sg6
I1
sg7
I-1
sssg6
I1
sg7
(dp140
g2
I5
sg3
(dp141
g2
I25
sg3
I1
sg6
I1
sg7
I1
ssg6
I1
sg7
(dp142
g2
I15
sg3
I1
sg6
I0
sg7
I-1
sssa(dp143
g2
I12
sg3
(dp144
g2
I2
sg3
(dp145
g2
I25
sg3
I1
sg6
I1
sg7
I-1
ssg6
I1
sg7
(dp146
g2
I1
sg3
I1
sg6
I1
sg7
I1
sssg6
I1
sg7
(dp147
g2
I23
sg3
(dp148
g2
I7
sg3
I1
sg6
I1
sg7
I-1
ssg6
I1
sg7
(dp149
g2
I6
sg3
I-1
sg6
I0
sg7
I-1
sssa(dp150
g2
I6
sg3
(dp151
g2
I7
sg3
(dp152
g2
I13
sg3
I1
sg6
I0
sg7
I-1
ssg6
I1
sg7
(dp153
g2
I9
sg3
I-1
sg6
I1
sg7
I-1
sssg6
I1
sg7
(dp154
g2
I5
sg3
(dp155
g2
I23
sg3
I1
sg6
I1
sg7
I1
ssg6
I1
sg7
(dp156
g2
I12
sg3
I-1
sg6
I1
sg7
I-1
sssa(dp157
g2
I8
sg3
(dp158
g2
I7
sg3
(dp159
g2
I15
sg3
I1
sg6
I0
sg7
I1
ssg6
I1
sg7
(dp160
g2
I10
sg3
I-1
sg6
I1
sg7
I-1
sssg6
I1
sg7
(dp161
g2
I24
sg3
(dp162
g2
I14
sg3
I1
sg6
I0
sg7
I-1
ssg6
I1
sg7
(dp163
g2
I13
sg3
I1
sg6
I0
sg7
I-1
sssa(dp164
g2
I0
sg3
(dp165
g2
I13
sg3
(dp166
g2
I25
sg3
I1
sg6
I1
sg7
I1
ssg6
I0
sg7
(dp167
g2
I7
sg3
I-1
sg6
I1
sg7
I-1
sssg6
I1
sg7
(dp168
g2
I13
sg3
(dp169
g2
I2
sg3
I1
sg6
I1
sg7
I1
ssg6
I0
sg7
(dp170
g2
I6
sg3
I-1
sg6
I1
sg7
I-1
sssa(dp171
g2
I5
sg3
(dp172
g2
I26
sg3
I1
sg6
I-1
sg7
I1
ssg6
I1
sg7
(dp173
g2
I14
sg3
(dp174
g2
I6
sg3
I1
sg6
I1
sg7
I-1
ssg6
I0
sg7
(dp175
g2
I7
sg3
I1
sg6
I1
sg7
I-1
sssa(dp176
g2
I13
sg3
(dp177
g2
I21
sg3
(dp178
g2
I14
sg3
I1
sg6
I0
sg7
I1
ssg6
I1
sg7
(dp179
g2
I27
sg3
I1
sg6
I1
sg7
I1
sssg6
I0
sg7
(dp180
g2
I5
sg3
I1
sg6
I1
sg7
(dp181
g2
I21
sg3
I-1
sg6
I1
sg7
I-1
sssa(dp182
g2
I5
sg3
(dp183
g2
I11
sg3
I1
sg6
I-1
sg7
I1
ssg6
I1
sg7
(dp184
g2
I15
sg3
(dp185
g2
I12
sg3
I1
sg6
I1
sg7
I1
ssg6
I0
sg7
(dp186
g2
I14
sg3
I-1
sg6
I0
sg7
I-1
sssa(dp187
g2
I13
sg3
(dp188
g2
I7
sg3
(dp189
g2
I15
sg3
I1
sg6
I0
sg7
I1
ssg6
I1
sg7
(dp190
g2
I5
sg3
I1
sg6
I1
sg7
I-1
sssg6
I0
sg7
(dp191
g2
I19
sg3
(dp192
g2
I12
sg3
I-1
sg6
I1
sg7
I-1
ssg6
I1
sg7
(dp193
g2
I17
sg3
I-1
sg6
I1
sg7
I-1
sssa(dp194
g2
I27
sg3
(dp195
g2
I0
sg3
(dp196
g2
I25
sg3
I1
sg6
I1
sg7
I-1
ssg6
I1
sg7
(dp197
g2
I5
sg3
I1
sg6
I1
sg7
I-1
sssg6
I1
sg7
(dp198
g2
I7
sg3
(dp199
g2
I13
sg3
I1
sg6
I0
sg7
I-1
ssg6
I1
sg7
(dp200
g2
I4
sg3
I-1
sg6
I1
sg7
I-1
sssa(dp201
g2
I7
sg3
(dp202
g2
I25
sg3
(dp203
g2
I5
sg3
I1
sg6
I1
sg7
I1
ssg6
I1
sg7
(dp204
g2
I13
sg3
I1
sg6
I0
sg7
I-1
sssg6
I1
sg7
(dp205
g2
I13
sg3
(dp206
g2
I2
sg3
I-1
sg6
I1
sg7
I1
ssg6
I0
sg7
(dp207
g2
I11
sg3
I-1
sg6
I-1
sg7
I-1
sssa(dp208
g2
I13
sg3
(dp209
g2
I14
sg3
(dp210
g2
I5
sg3
I1
sg6
I1
sg7
I1
ssg6
I0
sg7
(dp211
g2
I13
sg3
I1
sg6
I1
sg7
I1
sssg6
I0
sg7
(dp212
g2
I14
sg3
(dp213
g2
I25
sg3
I-1
sg6
I-1
sg7
I-1
ssg6
I0
sg7
(dp214
g2
I23
sg3
I-1
sg6
I1
sg7
I-1
sssa(dp215
g2
I6
sg3
(dp216
g2
I13
sg3
(dp217
g2
I7
sg3
I1
sg6
I1
sg7
I-1
ssg6
I0
sg7
(dp218
g2
I14
sg3
I-1
sg6
I1
sg7
I-1
sssg6
I1
sg7
(dp219
g2
I7
sg3
(dp220
g2
I28
sg3
I1
sg6
I1
sg7
I1
ssg6
I1
sg7
(dp221
g2
I21
sg3
I-1
sg6
I1
sg7
I-1
sssa(dp222
g2
I15
sg3
(dp223
g2
I13
sg3
(dp224
g2
I7
sg3
I1
sg6
I1
sg7
I1
ssg6
I0
sg7
(dp225
g2
I7
sg3
I-1
sg6
I1
sg7
I-1
sssg6
I0
sg7
(dp226
g2
I7
sg3
(dp227
g2
I28
sg3
I1
sg6
I1
sg7
I1
ssg6
I1
sg7
(dp228
g2
I13
sg3
I-1
sg6
I0
sg7
I-1
sssa(dp229
g2
I7
sg3
(dp230
g2
I28
sg3
(dp231
g2
I1
sg3
I1
sg6
I1
sg7
I1
ssg6
I1
sg7
(dp232
g2
I23
sg3
I1
sg6
I1
sg7
I1
sssg6
I1
sg7
(dp233
g2
I7
sg3
(dp234
g2
I13
sg3
I-1
sg6
I0
sg7
I-1
ssg6
I0
sg7
(dp235
g2
I13
sg3
I1
sg6
I1
sg7
I-1
sssa(dp236
g2
I8
sg3
(dp237
g2
I6
sg3
(dp238
g2
I23
sg3
I1
sg6
I1
sg7
I1
ssg6
I1
sg7
(dp239
g2
I7
sg3
I1
sg6
I1
sg7
I-1
sssg6
I1
sg7
(dp240
g2
I5
sg3
(dp241
g2
I28
sg3
I1
sg6
I1
sg7
I1
ssg6
I1
sg7
(dp242
g2
I26
sg3
I1
sg6
I1
sg7
I1
sssa(dp243
g2
I25
sg3
(dp244
g2
I27
sg3
(dp245
g2
I20
sg3
I1
sg6
I1
sg7
I1
ssg6
I1
sg7
(dp246
g2
I7
sg3
I1
sg6
I1
sg7
I-1
sssg6
I1
sg7
(dp247
g2
I23
sg3
(dp248
g2
I7
sg3
I1
sg6
I1
sg7
I-1
ssg6
I1
sg7
(dp249
g2
I6
sg3
I1
sg6
I1
sg7
I-1
sssa(dp250
g2
I15
sg3
(dp251
g2
I14
sg3
(dp252
g2
I24
sg3
I1
sg6
I1
sg7
I1
ssg6
I0
sg7
(dp253
g2
I21
sg3
I1
sg6
I1
sg7
I1
sssg6
I0
sg7
(dp254
g2
I5
sg3
(dp255
g2
I23
sg3
I1
sg6
I-1
sg7
I1
ssg6
I1
sg7
(dp256
g2
I29
sg3
I-1
sg6
I1
sg7
I-1
sssa(dp257
g2
I14
sg3
(dp258
g2
I12
sg3
(dp259
g2
I14
sg3
I1
sg6
I1
sg7
I1
ssg6
I1
sg7
(dp260
g2
I6
sg3
I1
sg6
I1
sg7
I-1
sssg6
I0
sg7
(dp261
g2
I23
sg3
(dp262
g2
I12
sg3
I1
sg6
I1
sg7
I-1
ssg6
I1
sg7
(dp263
g2
I7
sg3
I1
sg6
I1
sg7
I-1
sssa(dp264
g2
I13
sg3
(dp265
g2
I8
sg3
(dp266
g2
I15
sg3
I1
sg6
I1
sg7
I1
ssg6
I1
sg7
(dp267
g2
I28
sg3
I1
sg6
I1
sg7
I1
sssg6
I0
sg7
(dp268
g2
I29
sg3
(dp269
g2
I5
sg3
I1
sg6
I1
sg7
I-1
ssg6
I1
sg7
(dp270
g2
I8
sg3
I-1
sg6
I1
sg7
I-1
sssa(dp271
g2
I14
sg3
(dp272
g2
I13
sg3
(dp273
g2
I25
sg3
I1
sg6
I1
sg7
I1
ssg6
I0
sg7
(dp274
g2
I12
sg3
I-1
sg6
I1
sg7
I-1
sssg6
I0
sg7
(dp275
g2
I2
sg3
(dp276
g2
I25
sg3
I1
sg6
I1
sg7
I-1
ssg6
I1
sg7
(dp277
g2
I21
sg3
I1
sg6
I1
sg7
I-1
sssa(dp278
g2
I12
sg3
(dp279
g2
I29
sg3
(dp280
g2
I7
sg3
I1
sg6
I1
sg7
I-1
ssg6
I1
sg7
(dp281
g2
I27
sg3
I1
sg6
I1
sg7
I-1
sssg6
I1
sg7
(dp282
g2
I5
sg3
(dp283
g2
I16
sg3
I1
sg6
I1
sg7
I1
ssg6
I1
sg7
(dp284
g2
I25
sg3
I1
sg6
I1
sg7
I-1
sssa(dp285
g2
I12
sg3
(dp286
g2
I6
sg3
(dp287
g2
I5
sg3
I1
sg6
I1
sg7
I1
ssg6
I1
sg7
(dp288
g2
I22
sg3
I-1
sg6
I1
sg7
I1
sssg6
I1
sg7
(dp289
g2
I18
sg3
(dp290
g2
I7
sg3
I1
sg6
I1
sg7
I-1
ssg6
I1
sg7
(dp291
g2
I13
sg3
I1
sg6
I0
sg7
I-1
sssa(dp292
g2
I7
sg3
(dp293
g2
I13
sg3
(dp294
g2
I13
sg3
I1
sg6
I1
sg7
I1
ssg6
I0
sg7
(dp295
g2
I5
sg3
I1
sg6
I1
sg7
I-1
sssg6
I1
sg7
(dp296
g2
I13
sg3
(dp297
g2
I27
sg3
I-1
sg6
I1
sg7
I-1
ssg6
I0
sg7
(dp298
g2
I10
sg3
I-1
sg6
I1
sg7
I-1
sssa(dp299
g2
I14
sg3
(dp300
g2
I8
sg3
(dp301
g2
I20
sg3
I1
sg6
I1
sg7
I-1
ssg6
I1
sg7
(dp302
g2
I19
sg3
I1
sg6
I1
sg7
I-1
sssg6
I0
sg7
(dp303
g2
I5
sg3
(dp304
g2
I13
sg3
I1
sg6
I1
sg7
I1
ssg6
I1
sg7
(dp305
g2
I12
sg3
I-1
sg6
I1
sg7
I-1
sssa(dp306
g2
I8
sg3
(dp307
g2
I23
sg3
(dp308
g2
I14
sg3
I1
sg6
I1
sg7
I-1
ssg6
I1
sg7
(dp309
g2
I1
sg3
I-1
sg6
I0
sg7
I-1
sssg6
I1
sg7
(dp310
g2
I13
sg3
(dp311
g2
I14
sg3
I1
sg6
I0
sg7
I1
ssg6
I0
sg7
(dp312
g2
I14
sg3
I-1
sg6
I1
sg7
I-1
sssa(dp313
g2
I7
sg3
(dp314
g2
I25
sg3
(dp315
g2
I26
sg3
I1
sg6
I1
sg7
I1
ssg6
I1
sg7
(dp316
g2
I6
sg3
I1
sg6
I1
sg7
I1
sssg6
I1
sg7
(dp317
g2
I13
sg3
(dp318
g2
I12
sg3
I-1
sg6
I1
sg7
I-1
ssg6
I0
sg7
(dp319
g2
I9
sg3
I-1
sg6
I1
sg7
I-1
sssa(dp320
g2
I13
sg3
(dp321
g2
I7
sg3
(dp322
g2
I27
sg3
I1
sg6
I1
sg7
I1
ssg6
I1
sg7
(dp323
g2
I14
sg3
I-1
sg6
I0
sg7
I-1
sssg6
I0
sg7
(dp324
g2
I25
sg3
(dp325
g2
I1
sg3
I-1
sg6
I1
sg7
I-1
ssg6
I1
sg7
(dp326
g2
I26
sg3
I-1
sg6
I-1
sg7
I-1
sssa(dp327
g2
I25
sg3
(dp328
g2
I8
sg3
(dp329
g2
I1
sg3
I-1
sg6
I0
sg7
I1
ssg6
I1
sg7
(dp330
g2
I11
sg3
I1
sg6
I1
sg7
I1
sssg6
I1
sg7
(dp331
g2
I13
sg3
(dp332
g2
I26
sg3
I1
sg6
I1
sg7
I1
ssg6
I0
sg7
(dp333
g2
I15
sg3
I-1
sg6
I-1
sg7
I-1
sssa(dp334
g2
I8
sg3
(dp335
g2
I25
sg3
(dp336
g2
I7
sg3
I1
sg6
I1
sg7
I-1
ssg6
I1
sg7
(dp337
g2
I7
sg3
I1
sg6
I1
sg7
I-1
sssg6
I1
sg7
(dp338
g2
I13
sg3
(dp339
g2
I17
sg3
I1
sg6
I1
sg7
I1
ssg6
I0
sg7
(dp340
g2
I6
sg3
I-1
sg6
I1
sg7
I-1
sssa(dp341
g2
I13
sg3
(dp342
g2
I21
sg3
(dp343
g2
I23
sg3
I1
sg6
I1
sg7
I1
ssg6
I1
sg7
(dp344
g2
I7
sg3
I1
sg6
I1
sg7
I1
sssg6
I0
sg7
(dp345
g2
I14
sg3
(dp346
g2
I7
sg3
I1
sg6
I1
sg7
I-1
ssg6
I1
sg7
(dp347
g2
I23
sg3
I-1
sg6
I1
sg7
I-1
sssa(dp348
g2
I5
sg3
(dp349
g2
I8
sg3
I1
sg6
I-1
sg7
I1
ssg6
I1
sg7
(dp350
g2
I13
sg3
(dp351
g2
I17
sg3
I1
sg6
I1
sg7
I1
ssg6
I0
sg7
(dp352
g2
I10
sg3
I-1
sg6
I1
sg7
I-1
sssa(dp353
g2
I25
sg3
(dp354
g2
I7
sg3
(dp355
g2
I8
sg3
I1
sg6
I1
sg7
I1
ssg6
I1
sg7
(dp356
g2
I3
sg3
I-1
sg6
I1
sg7
I-1
sssg6
I1
sg7
(dp357
g2
I23
sg3
(dp358
g2
I7
sg3
I1
sg6
I1
sg7
I-1
ssg6
I1
sg7
(dp359
g2
I8
sg3
I-1
sg6
I1
sg7
I-1
sssa(dp360
g2
I7
sg3
(dp361
g2
I9
sg3
(dp362
g2
I13
sg3
I1
sg6
I0
sg7
I-1
ssg6
I1
sg7
(dp363
g2
I25
sg3
I1
sg6
I1
sg7
I1
sssg6
I1
sg7
(dp364
g2
I10
sg3
(dp365
g2
I7
sg3
I-1
sg6
I0
sg7
I-1
ssg6
I1
sg7
(dp366
g2
I0
sg3
I-1
sg6
I1
sg7
I-1
sssa(dp367
g2
I7
sg3
(dp368
g2
I13
sg3
(dp369
g2
I14
sg3
I1
sg6
I0
sg7
I1
ssg6
I0
sg7
(dp370
g2
I25
sg3
I-1
sg6
I1
sg7
I-1
sssg6
I1
sg7
(dp371
g2
I5
sg3
(dp372
g2
I6
sg3
I1
sg6
I0
sg7
I1
ssg6
I1
sg7
(dp373
g2
I7
sg3
I-1
sg6
I0
sg7
I-1
sssa(dp374
g2
I3
sg3
(dp375
g2
I8
sg3
(dp376
g2
I7
sg3
I1
sg6
I1
sg7
I-1
ssg6
I1
sg7
(dp377
g2
I17
sg3
I1
sg6
I1
sg7
I1
sssg6
I1
sg7
(dp378
g2
I14
sg3
(dp379
g2
I7
sg3
I1
sg6
I1
sg7
I-1
ssg6
I0
sg7
(dp380
g2
I13
sg3
I1
sg6
I0
sg7
I-1
sssa(dp381
g2
I5
sg3
(dp382
g2
I28
sg3
(dp383
g2
I3
sg3
I1
sg6
I1
sg7
I1
ssg6
I0
sg7
(dp384
g2
I16
sg3
I1
sg6
I1
sg7
I1
sssg6
I1
sg7
(dp385
g2
I13
sg3
(dp386
g2
I13
sg3
I1
sg6
I1
sg7
I1
ssg6
I0
sg7
(dp387
g2
I0
sg3
I-1
sg6
I1
sg7
I-1
sssa(dp388
g2
I12
sg3
(dp389
g2
I14
sg3
(dp390
g2
I6
sg3
I1
sg6
I1
sg7
I1
ssg6
I0
sg7
(dp391
g2
I13
sg3
I1
sg6
I0
sg7
I-1
sssg6
I1
sg7
(dp392
g2
I7
sg3
(dp393
g2
I5
sg3
I1
sg6
I1
sg7
I1
ssg6
I1
sg7
(dp394
g2
I16
sg3
I-1
sg6
I1
sg7
I-1
sssa(dp395
g2
I10
sg3
(dp396
g2
I7
sg3
(dp397
g2
I27
sg3
I1
sg6
I1
sg7
I1
ssg6
I1
sg7
(dp398
g2
I24
sg3
I-1
sg6
I1
sg7
I-1
sssg6
I1
sg7
(dp399
g2
I17
sg3
(dp400
g2
I14
sg3
I1
sg6
I1
sg7
I-1
ssg6
I1
sg7
(dp401
g2
I21
sg3
I-1
sg6
I1
sg7
I-1
sssa(dp402
g2
I14
sg3
(dp403
g2
I25
sg3
(dp404
g2
I0
sg3
I1
sg6
I1
sg7
I1
ssg6
I1
sg7
(dp405
g2
I5
sg3
I1
sg6
I1
sg7
I-1
sssg6
I0
sg7
(dp406
g2
I5
sg3
(dp407
g2
I26
sg3
I1
sg6
I1
sg7
I1
ssg6
I1
sg7
(dp408
g2
I19
sg3
I-1
sg6
I1
sg7
I1
sssa(dp409
g2
I6
sg3
(dp410
g2
I28
sg3
(dp411
g2
I26
sg3
I1
sg6
I1
sg7
I1
ssg6
I0
sg7
(dp412
g2
I10
sg3
I1
sg6
I1
sg7
I-1
sssg6
I1
sg7
(dp413
g2
I25
sg3
(dp414
g2
I13
sg3
I1
sg6
I0
sg7
I-1
ssg6
I1
sg7
(dp415
g2
I24
sg3
I-1
sg6
I1
sg7
I-1
sssa.