(lp0
(dp1
S'alpha'
p2
F1.322213475267808
sS'SSLfinal_State'
p3
(dp4
I0
(dp5
S'URL_of_Anchor'
p6
(dp7
I0
(dp8
S'Links_pointing_to_page'
p9
(dp10
I0
(dp11
S'having_Sub_Domain'
p12
(dp13
I0
I-1
sI1
(dp14
S'Request_URL'
p15
(dp16
I1
I1
sI-1
I-1
sssI-1
I-1
sssI1
I-1
sI-1
I1
sssI1
I-1
sI-1
I-1
sssI1
(dp17
g12
(dp18
I0
(dp19
S'web_traffic'
p20
(dp21
I0
(dp22
S'Links_in_tags'
p23
(dp24
I0
(dp25
S'Page_Rank'
p26
(dp27
I1
I1
sI-1
I-1
sssI1
(dp28
S'URL_Length'
p29
(dp30
I1
I1
sI-1
I-1
sssI-1
(dp31
g6
(dp32
I0
I1
sI1
I1
sI-1
I-1
sssssI1
(dp33
g23
(dp34
I0
(dp35
S'having_IP_Address'
p36
(dp37
I1
I1
sI-1
I1
sssI1
(dp38
g6
(dp39
I0
I1
sI1
I1
sI-1
I-1
sssI-1
(dp40
g9
(dp41
I0
I1
sI1
I1
sI-1
I1
sssssI-1
(dp42
g23
(dp43
I0
(dp44
g36
(dp45
I1
I1
sI-1
I1
sssI1
(dp46
g6
(dp47
I0
I1
sI-1
I-1
sssI-1
(dp48
g15
(dp49
I1
I1
sI-1
I-1
sssssssI1
(dp50
g20
(dp51
I0
(dp52
S'DNSRecord'
p53
(dp54
I1
(dp55
g23
(dp56
I0
I1
sI1
I1
sI-1
I1
sssI-1
(dp57
g23
(dp58
I0
I1
sI1
I1
sI-1
I-1
sssssI1
(dp59
g15
(dp60
I1
(dp61
S'Google_Index'
p62
(dp63
I1
I1
sI-1
I1
sssI-1
(dp64
g23
(dp65
I0
I1
sI1
I1
sI-1
I1
sssssI-1
(dp66
g6
(dp67
I0
I1
sI1
I1
sI-1
I-1
sssssI-1
(dp68
g23
(dp69
I0
(dp70
g20
(dp71
I0
(dp72
g53
(dp73
I1
I1
sI-1
I-1
sssI1
(dp74
g6
(dp75
I0
I1
sI1
I1
sI-1
I1
sssI-1
(dp76
g6
(dp77
I0
I1
sI1
I1
sI-1
I-1
sssssI1
(dp78
g20
(dp79
I0
(dp80
g9
(dp81
I0
I-1
sI1
I1
sI-1
I-1
sssI1
(dp82
g6
(dp83
I0
I1
sI1
I1
sI-1
I1
sssI-1
I1
sssI-1
(dp84
g9
(dp85
I0
(dp86
S'age_of_domain'
p87
(dp88
I1
I1
sI-1
I-1
sssI1
(dp89
g20
(dp90
I0
I-1
sI1
I1
sI-1
I1
sssI-1
(dp91
S'Iframe'
p92
(dp93
I1
I1
sI-1
I-1
sssssssssI-1
(dp94
g6
(dp95
I0
(dp96
g12
(dp97
I0
(dp98
g23
(dp99
I0
(dp100
g9
(dp101
I0
I-1
sI1
I1
sI-1
I1
sssI1
(dp102
g9
(dp103
I0
I1
sI1
I-1
sssI-1
(dp104
g9
(dp105
I0
I-1
sI1
I-1
sI-1
I-1
sssssI1
(dp106
g23
(dp107
I0
(dp108
g9
(dp109
I0
I-1
sI1
I1
sI-1
I1
sssI1
(dp110
g20
(dp111
I0
I1
sI1
I-1
sI-1
I1
sssI-1
(dp112
g9
(dp113
I0
I-1
sI1
I-1
sI-1
I-1
sssssI-1
(dp114
g23
(dp115
I0
(dp116
g9
(dp117
I0
I-1
sI1
I-1
sI-1
I1
sssI1
(dp118
g9
(dp119
I0
I1
sI1
I-1
sssI-1
(dp120
S'Domain_registeration_length'
p121
(dp122
I1
I-1
sI-1
I-1
sssssssI1
(dp123
g23
(dp124
I0
(dp125
g12
(dp126
I0
(dp127
S'having_At_Symbol'
p128
(dp129
I1
I1
sI-1
I-1
sssI1
I1
sI-1
(dp130
S'HTTPS_token'
p131
(dp132
I1
I-1
sI-1
I1
sssssI1
I1
sI-1
(dp133
S'Prefix_Suffix'
p134
(dp135
I1
I1
sI-1
(dp136
g29
(dp137
I1
I1
sI-1
I-1
sssssssI-1
I-1
ssssa.